
app_rtos.elf:     file format elf32-littlenios2
app_rtos.elf
architecture: nios2:r1, flags 0x00000112:
EXEC_P, HAS_SYMS, D_PAGED
start address 0x00040230

Program Header:
    LOAD off    0x00001000 vaddr 0x00040000 paddr 0x00040000 align 2**12
         filesz 0x00000020 memsz 0x00000020 flags r-x
    LOAD off    0x00001020 vaddr 0x00040020 paddr 0x00040020 align 2**12
         filesz 0x0000d3a8 memsz 0x0000d3a8 flags r-x
    LOAD off    0x0000e3c8 vaddr 0x0004d3c8 paddr 0x0004eebc align 2**12
         filesz 0x00001af4 memsz 0x00001af4 flags rw-
    LOAD off    0x000109b0 vaddr 0x000509b0 paddr 0x000509b0 align 2**12
         filesz 0x00000000 memsz 0x000053e8 flags rw-

Sections:
Idx Name          Size      VMA       LMA       File off  Algn
  0 .entry        00000020  00040000  00040000  00001000  2**5
                  CONTENTS, ALLOC, LOAD, READONLY, CODE
  1 .exceptions   00000210  00040020  00040020  00001020  2**2
                  CONTENTS, ALLOC, LOAD, READONLY, CODE
  2 .text         0000d044  00040230  00040230  00001230  2**2
                  CONTENTS, ALLOC, LOAD, READONLY, CODE
  3 .rodata       00000154  0004d274  0004d274  0000e274  2**2
                  CONTENTS, ALLOC, LOAD, READONLY, DATA
  4 .rwdata       00001af4  0004d3c8  0004eebc  0000e3c8  2**2
                  CONTENTS, ALLOC, LOAD, DATA, SMALL_DATA
  5 .bss          000053e8  000509b0  000509b0  000109b0  2**2
                  ALLOC, SMALL_DATA
  6 .onchip_mem   00000000  00055d98  00055d98  0000febc  2**0
                  CONTENTS
  7 .comment      00000023  00000000  00000000  0000febc  2**0
                  CONTENTS, READONLY
  8 .debug_aranges 00000b38  00000000  00000000  0000fee0  2**3
                  CONTENTS, READONLY, DEBUGGING
  9 .debug_info   0001f41b  00000000  00000000  00010a18  2**0
                  CONTENTS, READONLY, DEBUGGING
 10 .debug_abbrev 0000791a  00000000  00000000  0002fe33  2**0
                  CONTENTS, READONLY, DEBUGGING
 11 .debug_line   00008a82  00000000  00000000  0003774d  2**0
                  CONTENTS, READONLY, DEBUGGING
 12 .debug_frame  000025a0  00000000  00000000  000401d0  2**2
                  CONTENTS, READONLY, DEBUGGING
 13 .debug_str    000037ec  00000000  00000000  00042770  2**0
                  CONTENTS, READONLY, DEBUGGING
 14 .debug_loc    00003545  00000000  00000000  00045f5c  2**0
                  CONTENTS, READONLY, DEBUGGING
 15 .debug_alt_sim_info 00000010  00000000  00000000  000494a4  2**2
                  CONTENTS, READONLY, DEBUGGING
 16 .debug_ranges 00000530  00000000  00000000  000494b8  2**3
                  CONTENTS, READONLY, DEBUGGING
 17 .thread_model 00000006  00000000  00000000  0004d700  2**0
                  CONTENTS, READONLY
 18 .cpu          00000003  00000000  00000000  0004d706  2**0
                  CONTENTS, READONLY
 19 .qsys         00000001  00000000  00000000  0004d709  2**0
                  CONTENTS, READONLY
 20 .simulation_enabled 00000001  00000000  00000000  0004d70a  2**0
                  CONTENTS, READONLY
 21 .stderr_dev   00000009  00000000  00000000  0004d70b  2**0
                  CONTENTS, READONLY
 22 .stdin_dev    00000009  00000000  00000000  0004d714  2**0
                  CONTENTS, READONLY
 23 .stdout_dev   00000009  00000000  00000000  0004d71d  2**0
                  CONTENTS, READONLY
 24 .sopc_system_name 0000000c  00000000  00000000  0004d726  2**0
                  CONTENTS, READONLY
 25 .sopcinfo     0005166f  00000000  00000000  0004d732  2**0
                  CONTENTS, READONLY
SYMBOL TABLE:
00040000 l    d  .entry	00000000 .entry
00040020 l    d  .exceptions	00000000 .exceptions
00040230 l    d  .text	00000000 .text
0004d274 l    d  .rodata	00000000 .rodata
0004d3c8 l    d  .rwdata	00000000 .rwdata
000509b0 l    d  .bss	00000000 .bss
00055d98 l    d  .onchip_mem	00000000 .onchip_mem
00000000 l    d  .comment	00000000 .comment
00000000 l    d  .debug_aranges	00000000 .debug_aranges
00000000 l    d  .debug_info	00000000 .debug_info
00000000 l    d  .debug_abbrev	00000000 .debug_abbrev
00000000 l    d  .debug_line	00000000 .debug_line
00000000 l    d  .debug_frame	00000000 .debug_frame
00000000 l    d  .debug_str	00000000 .debug_str
00000000 l    d  .debug_loc	00000000 .debug_loc
00000000 l    d  .debug_alt_sim_info	00000000 .debug_alt_sim_info
00000000 l    d  .debug_ranges	00000000 .debug_ranges
00000000 l    df *ABS*	00000000 ../app_rtos_bsp/obj/HAL/src/crt0.o
00040268 l       .text	00000000 alt_after_alt_main
00000000 l    df *ABS*	00000000 alt_irq_handler.c
00000000 l    df *ABS*	00000000 alt_instruction_exception_entry.c
00000000 l    df *ABS*	00000000 app_rtos.c
0004026c l     F .text	00000064 handle_interrupts
000402d0 l     F .text	0000006c init_interrupt_pio
00000000 l    df *ABS*	00000000 impure.c
0004d3c8 l     O .rwdata	00000424 impure_data
00000000 l    df *ABS*	00000000 putc.c
00000000 l    df *ABS*	00000000 strlen.c
00000000 l    df *ABS*	00000000 wbuf.c
00000000 l    df *ABS*	00000000 wsetup.c
00000000 l    df *ABS*	00000000 fflush.c
00000000 l    df *ABS*	00000000 findfp.c
00040d4c l     F .text	00000008 __fp_unlock
00040d60 l     F .text	0000019c __sinit.part.1
00040efc l     F .text	00000008 __fp_lock
00000000 l    df *ABS*	00000000 mallocr.c
00000000 l    df *ABS*	00000000 fwalk.c
00000000 l    df *ABS*	00000000 makebuf.c
00000000 l    df *ABS*	00000000 mallocr.c
00000000 l    df *ABS*	00000000 memset.c
00000000 l    df *ABS*	00000000 sbrkr.c
00000000 l    df *ABS*	00000000 stdio.c
00000000 l    df *ABS*	00000000 writer.c
00000000 l    df *ABS*	00000000 closer.c
00000000 l    df *ABS*	00000000 fclose.c
00000000 l    df *ABS*	00000000 fstatr.c
00000000 l    df *ABS*	00000000 int_errno.c
00000000 l    df *ABS*	00000000 isattyr.c
00000000 l    df *ABS*	00000000 lseekr.c
00000000 l    df *ABS*	00000000 readr.c
00000000 l    df *ABS*	00000000 lib2-mul.c
00000000 l    df *ABS*	00000000 alt_close.c
00042688 l     F .text	0000003c alt_get_errno
00000000 l    df *ABS*	00000000 alt_dev.c
0004279c l     F .text	0000002c alt_dev_null_write
00000000 l    df *ABS*	00000000 alt_errno.c
00000000 l    df *ABS*	00000000 alt_fstat.c
000427c8 l     F .text	0000003c alt_get_errno
00000000 l    df *ABS*	00000000 alt_iic.c
00000000 l    df *ABS*	00000000 alt_iic_isr_register.c
00000000 l    df *ABS*	00000000 alt_irq_vars.c
00000000 l    df *ABS*	00000000 alt_isatty.c
00042b5c l     F .text	0000003c alt_get_errno
00000000 l    df *ABS*	00000000 alt_load.c
00042c44 l     F .text	00000068 alt_load_section
00000000 l    df *ABS*	00000000 alt_lseek.c
00042d30 l     F .text	0000003c alt_get_errno
00000000 l    df *ABS*	00000000 alt_main.c
00000000 l    df *ABS*	00000000 alt_read.c
00042f04 l     F .text	0000003c alt_get_errno
00000000 l    df *ABS*	00000000 alt_release_fd.c
00000000 l    df *ABS*	00000000 alt_sbrk.c
0004ee34 l     O .rwdata	00000004 heap_end
00000000 l    df *ABS*	00000000 alt_write.c
00043178 l     F .text	0000003c alt_get_errno
00000000 l    df *ABS*	00000000 alt_env_lock.c
0004ee38 l     O .rwdata	00000004 lockid
000509e0 l     O .bss	00000004 locks
00000000 l    df *ABS*	00000000 alt_malloc_lock.c
0004ee3c l     O .rwdata	00000004 lockid
000509e8 l     O .bss	00000004 locks
00000000 l    df *ABS*	00000000 os_core.c
00044bb0 l     F .text	00000048 OS_InitMisc
00044bf8 l     F .text	0000006c OS_InitRdyList
00044d64 l     F .text	000000e4 OS_InitTCBList
00044ad0 l     F .text	000000e0 OS_InitEventList
00044c64 l     F .text	00000080 OS_InitTaskIdle
00044ce4 l     F .text	00000080 OS_InitTaskStat
00044fd4 l     F .text	00000074 OS_SchedNew
00000000 l    df *ABS*	00000000 os_dbg.c
00000000 l    df *ABS*	00000000 os_flag.c
00046ce4 l     F .text	000000f4 OS_FlagTaskRdy
00046aa4 l     F .text	00000160 OS_FlagBlock
00000000 l    df *ABS*	00000000 os_mem.c
00000000 l    df *ABS*	00000000 os_q.c
00000000 l    df *ABS*	00000000 os_sem.c
00000000 l    df *ABS*	00000000 os_task.c
00000000 l    df *ABS*	00000000 os_time.c
00000000 l    df *ABS*	00000000 alt_sys_init.c
0004adbc l     F .text	00000034 alt_dev_reg
0004dd9c l     O .rwdata	0000106c jtag_uart
00000000 l    df *ABS*	00000000 altera_avalon_jtag_uart_fd.c
00000000 l    df *ABS*	00000000 altera_avalon_jtag_uart_init.c
0004b138 l     F .text	000002a4 altera_avalon_jtag_uart_irq
0004b3dc l     F .text	00000104 altera_avalon_jtag_uart_timeout
00000000 l    df *ABS*	00000000 altera_avalon_jtag_uart_ioctl.c
00000000 l    df *ABS*	00000000 altera_avalon_jtag_uart_read.c
00000000 l    df *ABS*	00000000 altera_avalon_jtag_uart_write.c
00000000 l    df *ABS*	00000000 altera_avalon_timer_sc.c
0004bbb8 l     F .text	00000078 alt_avalon_timer_sc_irq
00000000 l    df *ABS*	00000000 alt_alarm_start.c
00000000 l    df *ABS*	00000000 alt_dcache_flush_all.c
00000000 l    df *ABS*	00000000 alt_dev_llist_insert.c
0004bdf8 l     F .text	0000003c alt_get_errno
00000000 l    df *ABS*	00000000 alt_do_ctors.c
00000000 l    df *ABS*	00000000 alt_do_dtors.c
00000000 l    df *ABS*	00000000 alt_icache_flush_all.c
00000000 l    df *ABS*	00000000 alt_io_redirect.c
0004c054 l     F .text	000000e4 alt_open_fd
00000000 l    df *ABS*	00000000 alt_open.c
0004c1b4 l     F .text	0000003c alt_get_errno
0004c1f0 l     F .text	000000ec alt_file_locked
00000000 l    df *ABS*	00000000 alt_tick.c
00000000 l    df *ABS*	00000000 altera_nios2_gen2_irq.c
00000000 l    df *ABS*	00000000 os_cpu_a.o
00000040 l       *ABS*	00000000 OSCtxSw_SWITCH_PC
00000000 l    df *ABS*	00000000 os_cpu_c.c
00000014 l       *ABS*	00000000 OSTCBNext_OFFSET
00000032 l       *ABS*	00000000 OSTCBPrio_OFFSET
00000000 l       *ABS*	00000000 OSTCBStkPtr_OFFSET
00000000 l    df *ABS*	00000000 alt_find_dev.c
00000000 l    df *ABS*	00000000 alt_find_file.c
00000000 l    df *ABS*	00000000 alt_get_fd.c
00000000 l    df *ABS*	00000000 atexit.c
00000000 l    df *ABS*	00000000 exit.c
00000000 l    df *ABS*	00000000 memcmp.c
00000000 l    df *ABS*	00000000 memcpy.c
00000000 l    df *ABS*	00000000 __atexit.c
00000000 l    df *ABS*	00000000 __call_atexit.c
00000000 l    df *ABS*	00000000 lib2-divmod.c
00000000 l    df *ABS*	00000000 alt_exit.c
00050a40 g     O .bss	00000004 alt_instruction_exception_handler
0004ee8a g     O .rwdata	00000002 OSTaskNameSize
0004254c g     F .text	00000054 _isatty_r
00042e48 g     F .text	000000bc alt_main
00052a74 g     O .bss	00000100 alt_irq
000425a0 g     F .text	00000060 _lseek_r
00047504 g     F .text	000000d8 OS_MemInit
0004eebc g       *ABS*	00000000 __flash_rwdata_start
0004ad5c g     F .text	00000060 OSTimeSet
00043824 g     F .text	00000610 OSEventPendMulti
00055d98 g       *ABS*	00000000 __alt_heap_start
0004c82c g     F .text	00000024 OSTaskCreateHook
00050a74 g     O .bss	00001000 task1_stk
0004ee62 g     O .rwdata	00000002 OSMboxEn
00043e8c g     F .text	0000004c OSIntEnter
000422d4 g     F .text	0000005c __sseek
000410ac g     F .text	00000010 __sinit
000407f8 g     F .text	00000140 __swbuf_r
0004ee72 g     O .rwdata	00000002 OSQEn
00040f04 g     F .text	00000078 __sfmoreglue
000434f8 g     F .text	000000cc __malloc_unlock
0004c894 g     F .text	00000020 OSTaskStatHook
000509f0 g     O .bss	00000001 OSLockNesting
0004eeb0 g     O .rwdata	00000002 OSDataSize
000509f1 g     O .bss	00000001 OSRunning
0004c8d4 g     F .text	00000020 OSInitHookBegin
0004eea8 g     O .rwdata	00000002 OSTmrSize
00041094 g     F .text	00000018 _cleanup
000509f4 g     O .bss	00000004 OSIdleCtr
0004c5dc g     F .text	00000024 altera_nios2_gen2_irq_init
0004c6ac g       .text	00000000 OSStartTsk
00045304 g     F .text	000002d4 OS_TCBInit
00040000 g     F .entry	0000000c __reset
000509b0 g     O .bss	00000004 edge_capture
0004eeae g     O .rwdata	00000002 OSTmrWheelTblSize
00040020 g       *ABS*	00000000 __flash_exceptions_start
0004ee4e g     O .rwdata	00000002 OSEventSize
000509f8 g     O .bss	00000001 OSPrioHighRdy
000424f0 g     F .text	0000005c _fstat_r
0004c850 g     F .text	00000024 OSTaskDelHook
000509c8 g     O .bss	00000004 errno
00042250 g     F .text	00000008 __seofread
0004c68c g       .text	00000000 OSStartHighRdy
000497dc g     F .text	000001e4 OSTaskCreateExt
000465ec g     F .text	00000060 OSFlagPendGetFlagsRdy
0004ee8e g     O .rwdata	00000002 OSTaskStatStkSize
00045768 g     F .text	00000308 OSFlagAccept
00047b48 g     F .text	000000b8 OSQFlush
000475dc g     F .text	00000140 OSQAccept
000509d8 g     O .bss	00000004 alt_argv
00056e08 g       *ABS*	00000000 _gp
00049630 g     F .text	000001ac OSTaskCreate
00049140 g     F .text	000004f0 OSTaskChangePrio
000509ec g     O .bss	00000004 alt_heapsem
000455d8 g     F .text	00000190 OSDebugInit
000499c0 g     F .text	00000344 OSTaskDel
0004dc1c g     O .rwdata	00000180 alt_fd_list
00052b74 g     O .bss	00000370 OSFlagTbl
000448b0 g     F .text	000000b8 OS_EventTaskRemove
0004c958 g     F .text	00000090 alt_find_dev
0004ccac g     F .text	00000148 memcpy
0004ee78 g     O .rwdata	00000002 OSRdyTblSize
00040d54 g     F .text	0000000c _cleanup_r
0004c138 g     F .text	0000007c alt_io_redirect
0004d274 g       *ABS*	00000000 __DTOR_END__
0004bfb8 g     F .text	0000009c alt_exception_cause_generated_bad_addr
000435c4 g     F .text	00000120 OSEventNameGet
0004ee5c g     O .rwdata	00000002 OSFlagMax
00043ed8 g     F .text	000000f8 OSIntExit
0004ee96 g     O .rwdata	00000002 OSTCBSize
000509f9 g     O .bss	00000001 OSPrioCur
0004b638 g     F .text	000002bc altera_avalon_jtag_uart_read
0004d184 g     F .text	00000064 .hidden __udivsi3
00042b98 g     F .text	000000ac isatty
0004ee7c g     O .rwdata	00000002 OSStkWidth
0004ee70 g     O .rwdata	00000002 OSPtrSize
0004ee50 g     O .rwdata	00000002 OSEventTblSize
0004c600 g       .text	00000000 OSCtxSw
000509c4 g     O .bss	00000004 __malloc_top_pad
000509fc g     O .bss	00000004 OSTCBList
000509cc g     O .bss	00000004 alt_fd_list_lock
00052ee4 g     O .bss	00000c30 OSMemTbl
00050a00 g     O .bss	00000001 OSTickStepState
000421a8 g     F .text	00000054 _sbrk_r
000509b4 g     O .bss	00000004 shared_key1_sem
0004ee74 g     O .rwdata	00000002 OSQMax
00053b14 g     O .bss	00000800 OSTaskStatStk
00047140 g     F .text	000000f0 OSMemNameGet
0004ee54 g     O .rwdata	00000002 OSFlagEn
00042600 g     F .text	00000060 _read_r
0004ee9a g     O .rwdata	00000002 OSTimeTickHookEn
00047ff8 g     F .text	00000168 OSQPost
00046dd8 g     F .text	000000a4 OS_FlagUnlink
0004ee28 g     O .rwdata	00000004 alt_max_fd
00044e9c g     F .text	00000068 OS_MemCopy
00044f04 g     F .text	000000d0 OS_Sched
000423ec g     F .text	000000f0 _fclose_r
00047050 g     F .text	000000f0 OSMemGet
00049fec g     F .text	000001b4 OSTaskNameSet
00040d1c g     F .text	00000030 fflush
000509c0 g     O .bss	00000004 __malloc_max_sbrked_mem
00050a04 g     O .bss	00000004 OSCtxSwCtr
0004c8b4 g     F .text	00000020 OSTimeTickHook
0004ee5e g     O .rwdata	00000002 OSFlagNameSize
00044968 g     F .text	00000100 OS_EventTaskRemoveMulti
00044760 g     F .text	00000150 OS_EventTaskWaitMulti
0004ee76 g     O .rwdata	00000002 OSQSize
00042d6c g     F .text	000000dc lseek
00048aa8 g     F .text	0000020c OSSemPend
0004ee08 g     O .rwdata	00000004 _global_impure_ptr
0004ee60 g     O .rwdata	00000002 OSLowestPrio
00055d98 g       *ABS*	00000000 __bss_end
00042a6c g     F .text	000000f0 alt_iic_isr_register
0004c934 g     F .text	00000024 OSTCBInitHook
0004eea6 g     O .rwdata	00000002 OSTmrCfgTicksPerSec
0004c4d4 g     F .text	00000108 alt_tick
0004ee48 g     O .rwdata	00000002 OSEventEn
0004eea2 g     O .rwdata	00000002 OSTmrCfgNameSize
000410cc g     F .text	00000018 __fp_lock_all
00042a20 g     F .text	0000004c alt_ic_irq_enabled
00046c04 g     F .text	000000e0 OS_FlagInit
0004c438 g     F .text	0000009c alt_alarm_stop
0004ee84 g     O .rwdata	00000002 OSTaskIdleStkSize
000509d0 g     O .bss	00000004 alt_irq_active
000486e0 g     F .text	000000b0 OSSemAccept
00047344 g     F .text	000000d8 OSMemPut
00046e7c g     F .text	000001d4 OSMemCreate
00050a08 g     O .bss	00000004 OSIdleCtrMax
00040000 g       *ABS*	00000000 __alt_mem_onchip_mem
000400fc g     F .exceptions	000000d4 alt_irq_handler
0004dbf4 g     O .rwdata	00000028 alt_dev_null
0004ee98 g     O .rwdata	00000002 OSTicksPerSec
0004c600 g       .text	00000000 OSIntCtxSw
0004bdd8 g     F .text	00000020 alt_dcache_flush_all
00050a0c g     O .bss	00000004 OSTCBFreeList
0004eebc g       *ABS*	00000000 __ram_rwdata_end
00048cb4 g     F .text	0000016c OSSemPendAbort
0004ee20 g     O .rwdata	00000008 alt_dev_list
000431b4 g     F .text	00000100 write
000405f8 g     F .text	000000a0 _putc_r
0004ee9c g     O .rwdata	00000002 OSVersionNbr
0004d3c8 g       *ABS*	00000000 __ram_rodata_end
00042804 g     F .text	000000b8 fstat
0004ee44 g     O .rwdata	00000004 OSEndiannessTest
0004d1e8 g     F .text	00000058 .hidden __umodsi3
0004ee56 g     O .rwdata	00000002 OSFlagGrpSize
00055d98 g       *ABS*	00000000 end
0004aff0 g     F .text	00000148 altera_avalon_jtag_uart_init
0004516c g     F .text	000000cc OS_TaskStat
000401d0 g     F .exceptions	00000060 alt_instruction_exception_entry
0004d274 g       *ABS*	00000000 __CTOR_LIST__
00065800 g       *ABS*	00000000 __alt_stack_pointer
0004bc30 g     F .text	0000007c alt_avalon_timer_sc_init
0004b8f4 g     F .text	000002c4 altera_avalon_jtag_uart_write
000410bc g     F .text	00000004 __sfp_lock_acquire
00044e48 g     F .text	00000054 OS_MemClr
0004c6d0 g     F .text	0000015c OSTaskStkInit
0004033c g     F .text	0000010c task1
00041220 g     F .text	00000310 _free_r
000444b8 g     F .text	00000198 OS_EventTaskRdy
0004cf0c g     F .text	00000180 __call_exitprocs
00050a10 g     O .bss	00000001 OSCPUUsage
0004ee10 g     O .rwdata	00000004 __malloc_sbrk_base
00040230 g     F .text	0000003c _start
00040448 g     F .text	000000e8 task2
00050a44 g     O .bss	00000004 _alt_tick_rate
00047c00 g     F .text	0000028c OSQPend
0004a8ac g     F .text	00000104 OSTimeDly
00050a48 g     O .bss	00000004 _alt_nticks
00042f40 g     F .text	00000104 read
0004ae28 g     F .text	00000064 alt_sys_init
0004cdf4 g     F .text	00000118 __register_exitproc
00050a11 g     O .bss	00000001 OSTaskCtr
0004a9b0 g     F .text	0000017c OSTimeDlyHMSM
0004b4e0 g     F .text	00000068 altera_avalon_jtag_uart_close
00042660 g     F .text	00000028 .hidden __mulsi3
0004d3c8 g       *ABS*	00000000 __ram_rwdata_start
0004d274 g       *ABS*	00000000 __ram_rodata_start
00050a4c g     O .bss	00000028 __malloc_current_mallinfo
0004ee4a g     O .rwdata	00000002 OSEventMax
00048e20 g     F .text	00000110 OSSemPost
0004405c g     F .text	000000dc OSSchedUnlock
0004ae8c g     F .text	00000060 altera_avalon_jtag_uart_read_fd
0004caf0 g     F .text	000000f4 alt_get_fd
00050a14 g     O .bss	00000004 OSMemFreeList
000441a8 g     F .text	000000b0 OSStatInit
000469e0 g     F .text	000000c4 OSFlagQuery
0004ee80 g     O .rwdata	00000002 OSTaskCreateExtEn
00042398 g     F .text	00000054 _close_r
0004cc30 g     F .text	0000007c memcmp
00044498 g     F .text	00000020 OS_Dummy
0004af4c g     F .text	00000050 altera_avalon_jtag_uart_close_fd
00055d98 g       *ABS*	00000000 __alt_stack_base
0004af9c g     F .text	00000054 altera_avalon_jtag_uart_ioctl_fd
00040950 g     F .text	00000154 __swsetup_r
00054314 g     O .bss	000001e0 OSQTbl
00040f7c g     F .text	00000118 __sfp
0004d7ec g     O .rwdata	00000408 __malloc_av_
000410c8 g     F .text	00000004 __sinit_lock_release
00050a18 g     O .bss	00000004 OSTCBHighRdy
000421fc g     F .text	00000054 __sread
00050a1c g     O .bss	00000004 OSQFreeList
0004c9e8 g     F .text	00000108 alt_find_file
0004be34 g     F .text	000000a4 alt_dev_llist_insert
000433d8 g     F .text	00000120 __malloc_lock
000430c8 g     F .text	000000b0 sbrk
000436e4 g     F .text	00000140 OSEventNameSet
00040cc0 g     F .text	0000005c _fflush_r
00050a20 g     O .bss	00000001 OSRdyGrp
000509b0 g       *ABS*	00000000 __bss_start
00042080 g     F .text	00000128 memset
00040530 g     F .text	000000c8 main
000509dc g     O .bss	00000004 alt_envp
000509bc g     O .bss	00000004 __malloc_max_total_mem
0004aeec g     F .text	00000060 altera_avalon_jtag_uart_write_fd
00040938 g     F .text	00000018 __swbuf
0004d294 g     O .rodata	00000100 OSUnMapTbl
0004ee7a g     O .rwdata	00000002 OSSemEn
0004664c g     F .text	00000394 OSFlagPost
00042330 g     F .text	00000008 __sclose
00065800 g       *ABS*	00000000 __alt_heap_limit
000424dc g     F .text	00000014 fclose
00044650 g     F .text	00000110 OS_EventTaskWait
00051a74 g     O .bss	00001000 task2_stk
00045238 g     F .text	000000cc OS_TaskStatStkChk
00049d04 g     F .text	00000150 OSTaskDelReq
00041874 g     F .text	0000080c _malloc_r
0004ee2c g     O .rwdata	00000004 alt_errno
00044138 g     F .text	00000070 OSStart
00043378 g     F .text	00000060 __env_unlock
00041530 g     F .text	000000c4 _fwalk
0004a1a0 g     F .text	000001d4 OSTaskResume
0004741c g     F .text	000000e8 OSMemQuery
0004ee8c g     O .rwdata	00000002 OSTaskStatEn
0004ee66 g     O .rwdata	00000002 OSMemMax
00048160 g     F .text	00000170 OSQPostFront
00040698 g     F .text	000000c8 putc
0004d08c g     F .text	00000084 .hidden __divsi3
00050a21 g     O .bss	00000003 OSRdyTbl
0004ee40 g     O .rwdata	00000002 OSDebugEn
000410fc g     F .text	00000124 _malloc_trim_r
0004d274 g       *ABS*	00000000 __CTOR_END__
0004ee58 g     O .rwdata	00000002 OSFlagNodeSize
0004eea0 g     O .rwdata	00000002 OSTmrCfgMax
0004771c g     F .text	000001ac OSQCreate
00049e54 g     F .text	00000198 OSTaskNameGet
0004d274 g       *ABS*	00000000 __flash_rodata_start
000482d0 g     F .text	0000020c OSQPostOpt
00044258 g     F .text	00000220 OSTimeTick
0004ee88 g     O .rwdata	00000002 OSTaskMax
0004d274 g       *ABS*	00000000 __DTOR_LIST__
00048790 g     F .text	000000d8 OSSemCreate
0004eeac g     O .rwdata	00000002 OSTmrWheelSize
0004ee82 g     O .rwdata	00000002 OSTaskDelEn
00048f30 g     F .text	00000110 OSSemQuery
000478c8 g     F .text	00000280 OSQDel
00047e8c g     F .text	0000016c OSQPendAbort
0004adf0 g     F .text	00000038 alt_irq_init
00043044 g     F .text	00000084 alt_release_fd
0004cbe4 g     F .text	00000014 atexit
00042338 g     F .text	00000060 _write_r
00043fd0 g     F .text	0000008c OSSchedLock
00045a70 g     F .text	00000108 OSFlagCreate
0004ee0c g     O .rwdata	00000004 _impure_ptr
000509d4 g     O .bss	00000004 alt_argc
00040aa4 g     F .text	0000021c __sflush_r
0004bf38 g     F .text	00000060 _do_dtors
0004ee52 g     O .rwdata	00000002 OSEventMultiEn
00045b78 g     F .text	00000248 OSFlagDel
00050a24 g     O .bss	00000004 OSEventFreeList
00040020 g       .exceptions	00000000 alt_irq_entry
00046034 g     F .text	000005b8 OSFlagPend
0004ee9e g     O .rwdata	00000002 OSTmrEn
000410e4 g     F .text	00000018 __fp_unlock_all
0004ee18 g     O .rwdata	00000008 alt_fs_list
00045048 g     F .text	00000074 OS_StrCopy
0004ee68 g     O .rwdata	00000002 OSMemNameSize
0004c8f4 g     F .text	00000020 OSInitHookEnd
00040020 g       *ABS*	00000000 __ram_exceptions_start
0004ee94 g     O .rwdata	00000002 OSTCBPrioTblMax
0004ee90 g     O .rwdata	00000002 OSTaskStatStkChkEn
000428bc g     F .text	00000050 alt_ic_isr_register
0004ee64 g     O .rwdata	00000002 OSMemEn
0004ee6e g     O .rwdata	00000002 OSMutexEn
0004eebc g       *ABS*	00000000 _edata
00055d98 g       *ABS*	00000000 _end
00050a28 g     O .bss	00000001 OSIntNesting
00040230 g       *ABS*	00000000 __ram_exceptions_end
0004b548 g     F .text	000000f0 altera_avalon_jtag_uart_ioctl
0004ab2c g     F .text	000001d4 OSTimeDlyResume
00045ee8 g     F .text	0000014c OSFlagNameSet
000509b8 g     O .bss	00000004 shared_jtag_sem
0004a374 g     F .text	000001c0 OSTaskStkChk
00042994 g     F .text	0000008c alt_ic_irq_disable
0004ee6a g     O .rwdata	00000002 OSMemSize
00042258 g     F .text	0000007c __swrite
0004ee14 g     O .rwdata	00000004 __malloc_trim_threshold
00050a2c g     O .bss	00000004 OSTCBCur
0004cbf8 g     F .text	00000038 exit
0004ee6c g     O .rwdata	00000002 OSMemTblSize
000415f4 g     F .text	000000c4 _fwalk_reent
0004d110 g     F .text	00000074 .hidden __modsi3
00065800 g       *ABS*	00000000 __alt_data_end
00040020 g     F .exceptions	00000000 alt_exception
000410c0 g     F .text	00000004 __sfp_lock_release
00043e34 g     F .text	00000058 OSInit
0004a718 g     F .text	00000124 OSTaskQuery
00048638 g     F .text	000000a8 OS_QInit
000450bc g     F .text	00000054 OS_StrLen
00047230 g     F .text	00000114 OSMemNameSet
0004ee86 g     O .rwdata	00000002 OSTaskProfileEn
00050a30 g     O .bss	00000004 OSTime
000544f4 g     O .bss	00000800 OSTaskIdleStk
0004d240 g     F .text	00000034 _exit
0004bcac g     F .text	0000012c alt_alarm_start
00045dc0 g     F .text	00000128 OSFlagNameGet
0004ad00 g     F .text	0000005c OSTimeGet
000416b8 g     F .text	000001bc __smakebuf_r
00040760 g     F .text	00000098 strlen
0004c874 g     F .text	00000020 OSTaskSwHook
0004c2dc g     F .text	0000015c open
00054cf4 g     O .bss	00000b40 OSEventTbl
00055834 g     O .bss	00000510 OSTCBTbl
00049040 g     F .text	00000100 OSSemSet
0004bf98 g     F .text	00000020 alt_icache_flush_all
0004ee30 g     O .rwdata	00000004 alt_priority_mask
00048868 g     F .text	00000240 OSSemDel
00050a34 g     O .bss	00000004 OSFlagFreeList
0004290c g     F .text	00000088 alt_ic_irq_enable
0004ee4c g     O .rwdata	00000002 OSEventNameSize
00050a38 g     O .bss	00000001 OSStatRdy
00055d44 g     O .bss	00000054 OSTCBPrioTbl
000432b4 g     F .text	000000c4 __env_lock
0004ee92 g     O .rwdata	00000002 OSTaskSwHookEn
0004eeb4 g     O .rwdata	00000008 alt_alarm_list
0004ee5a g     O .rwdata	00000002 OSFlagWidth
0004bed8 g     F .text	00000060 _do_ctors
000426c4 g     F .text	000000d8 close
000509e4 g     O .bss	00000004 alt_envsem
00050a3c g     O .bss	00000004 OSIdleCtrRun
00044478 g     F .text	00000020 OSVersion
0004eea4 g     O .rwdata	00000002 OSTmrCfgWheelSize
00042cac g     F .text	00000084 alt_load
0004a83c g     F .text	00000070 OS_TaskStkClr
0004ee7e g     O .rwdata	00000002 OSTaskCreateEn
00044a68 g     F .text	00000068 OS_EventWaitListInit
0004c914 g     F .text	00000020 OSTaskIdleHook
000410c4 g     F .text	00000004 __sinit_lock_acquire
0004a534 g     F .text	000001e4 OSTaskSuspend
00045110 g     F .text	0000005c OS_TaskIdle
0004eeaa g     O .rwdata	00000002 OSTmrTblSize
000484dc g     F .text	0000015c OSQQuery



Disassembly of section .entry:

00040000 <__reset>:
   40000:	00400134 	movhi	at,4
   40004:	08408c14 	ori	at,at,560
   40008:	0800683a 	jmp	at
	...

Disassembly of section .exceptions:

00040020 <alt_exception>:
   40020:	deffed04 	addi	sp,sp,-76
   40024:	dfc00015 	stw	ra,0(sp)
   40028:	d8400215 	stw	at,8(sp)
   4002c:	d8800315 	stw	r2,12(sp)
   40030:	d8c00415 	stw	r3,16(sp)
   40034:	d9000515 	stw	r4,20(sp)
   40038:	d9400615 	stw	r5,24(sp)
   4003c:	d9800715 	stw	r6,28(sp)
   40040:	d9c00815 	stw	r7,32(sp)
   40044:	000b307a 	rdctl	r5,estatus
   40048:	da000915 	stw	r8,36(sp)
   4004c:	da400a15 	stw	r9,40(sp)
   40050:	da800b15 	stw	r10,44(sp)
   40054:	dac00c15 	stw	r11,48(sp)
   40058:	db000d15 	stw	r12,52(sp)
   4005c:	db400e15 	stw	r13,56(sp)
   40060:	db800f15 	stw	r14,60(sp)
   40064:	dbc01015 	stw	r15,64(sp)
   40068:	d9401115 	stw	r5,68(sp)
   4006c:	ebffff04 	addi	r15,ea,-4
   40070:	dbc01215 	stw	r15,72(sp)
   40074:	0009313a 	rdctl	r4,ipending
   40078:	2880004c 	andi	r2,r5,1
   4007c:	10000326 	beq	r2,zero,4008c <alt_exception+0x6c>
   40080:	20000226 	beq	r4,zero,4008c <alt_exception+0x6c>
   40084:	00400fc0 	call	400fc <alt_irq_handler>
   40088:	00000706 	br	400a8 <alt_exception+0x88>
   4008c:	df401215 	stw	ea,72(sp)
   40090:	e8bfff17 	ldw	r2,-4(ea)
   40094:	e93fff04 	addi	r4,ea,-4
   40098:	00401d00 	call	401d0 <alt_instruction_exception_entry>
   4009c:	1000021e 	bne	r2,zero,400a8 <alt_exception+0x88>
   400a0:	ebffff04 	addi	r15,ea,-4
   400a4:	dbc01215 	stw	r15,72(sp)
   400a8:	d9401117 	ldw	r5,68(sp)
   400ac:	df401217 	ldw	ea,72(sp)
   400b0:	dfc00017 	ldw	ra,0(sp)
   400b4:	2801707a 	wrctl	estatus,r5
   400b8:	d8400217 	ldw	at,8(sp)
   400bc:	d8800317 	ldw	r2,12(sp)
   400c0:	d8c00417 	ldw	r3,16(sp)
   400c4:	d9000517 	ldw	r4,20(sp)
   400c8:	d9400617 	ldw	r5,24(sp)
   400cc:	d9800717 	ldw	r6,28(sp)
   400d0:	d9c00817 	ldw	r7,32(sp)
   400d4:	da000917 	ldw	r8,36(sp)
   400d8:	da400a17 	ldw	r9,40(sp)
   400dc:	da800b17 	ldw	r10,44(sp)
   400e0:	dac00c17 	ldw	r11,48(sp)
   400e4:	db000d17 	ldw	r12,52(sp)
   400e8:	db400e17 	ldw	r13,56(sp)
   400ec:	db800f17 	ldw	r14,60(sp)
   400f0:	dbc01017 	ldw	r15,64(sp)
   400f4:	dec01304 	addi	sp,sp,76
   400f8:	ef80083a 	eret

000400fc <alt_irq_handler>:
   400fc:	defff904 	addi	sp,sp,-28
   40100:	dfc00615 	stw	ra,24(sp)
   40104:	df000515 	stw	fp,20(sp)
   40108:	df000504 	addi	fp,sp,20
   4010c:	0043e8c0 	call	43e8c <OSIntEnter>
   40110:	0005313a 	rdctl	r2,ipending
   40114:	e0bffe15 	stw	r2,-8(fp)
   40118:	e0bffe17 	ldw	r2,-8(fp)
   4011c:	e0bffb15 	stw	r2,-20(fp)
   40120:	e03ffd15 	stw	zero,-12(fp)
   40124:	00800044 	movi	r2,1
   40128:	e0bffc15 	stw	r2,-16(fp)
   4012c:	e0fffb17 	ldw	r3,-20(fp)
   40130:	e0bffc17 	ldw	r2,-16(fp)
   40134:	1884703a 	and	r2,r3,r2
   40138:	10001426 	beq	r2,zero,4018c <alt_irq_handler+0x90>
   4013c:	00800174 	movhi	r2,5
   40140:	108a9d04 	addi	r2,r2,10868
   40144:	e0fffd17 	ldw	r3,-12(fp)
   40148:	180690fa 	slli	r3,r3,3
   4014c:	10c5883a 	add	r2,r2,r3
   40150:	10c00017 	ldw	r3,0(r2)
   40154:	00800174 	movhi	r2,5
   40158:	108a9d04 	addi	r2,r2,10868
   4015c:	e13ffd17 	ldw	r4,-12(fp)
   40160:	200890fa 	slli	r4,r4,3
   40164:	1105883a 	add	r2,r2,r4
   40168:	10800104 	addi	r2,r2,4
   4016c:	10800017 	ldw	r2,0(r2)
   40170:	1009883a 	mov	r4,r2
   40174:	183ee83a 	callr	r3
   40178:	0001883a 	nop
   4017c:	0005313a 	rdctl	r2,ipending
   40180:	e0bfff15 	stw	r2,-4(fp)
   40184:	e0bfff17 	ldw	r2,-4(fp)
   40188:	00000706 	br	401a8 <alt_irq_handler+0xac>
   4018c:	e0bffc17 	ldw	r2,-16(fp)
   40190:	1085883a 	add	r2,r2,r2
   40194:	e0bffc15 	stw	r2,-16(fp)
   40198:	e0bffd17 	ldw	r2,-12(fp)
   4019c:	10800044 	addi	r2,r2,1
   401a0:	e0bffd15 	stw	r2,-12(fp)
   401a4:	003fe106 	br	4012c <__alt_data_end+0xfffda92c>
   401a8:	e0bffb15 	stw	r2,-20(fp)
   401ac:	e0bffb17 	ldw	r2,-20(fp)
   401b0:	103fdb1e 	bne	r2,zero,40120 <__alt_data_end+0xfffda920>
   401b4:	0043ed80 	call	43ed8 <OSIntExit>
   401b8:	0001883a 	nop
   401bc:	e037883a 	mov	sp,fp
   401c0:	dfc00117 	ldw	ra,4(sp)
   401c4:	df000017 	ldw	fp,0(sp)
   401c8:	dec00204 	addi	sp,sp,8
   401cc:	f800283a 	ret

000401d0 <alt_instruction_exception_entry>:
   401d0:	defffb04 	addi	sp,sp,-20
   401d4:	dfc00415 	stw	ra,16(sp)
   401d8:	df000315 	stw	fp,12(sp)
   401dc:	df000304 	addi	fp,sp,12
   401e0:	e13fff15 	stw	r4,-4(fp)
   401e4:	00bfffc4 	movi	r2,-1
   401e8:	e0bffd15 	stw	r2,-12(fp)
   401ec:	e03ffe15 	stw	zero,-8(fp)
   401f0:	d0a70e17 	ldw	r2,-25544(gp)
   401f4:	10000726 	beq	r2,zero,40214 <alt_instruction_exception_entry+0x44>
   401f8:	d0a70e17 	ldw	r2,-25544(gp)
   401fc:	e0fffd17 	ldw	r3,-12(fp)
   40200:	e1bffe17 	ldw	r6,-8(fp)
   40204:	e17fff17 	ldw	r5,-4(fp)
   40208:	1809883a 	mov	r4,r3
   4020c:	103ee83a 	callr	r2
   40210:	00000206 	br	4021c <alt_instruction_exception_entry+0x4c>
   40214:	003da03a 	break	0
   40218:	0005883a 	mov	r2,zero
   4021c:	e037883a 	mov	sp,fp
   40220:	dfc00117 	ldw	ra,4(sp)
   40224:	df000017 	ldw	fp,0(sp)
   40228:	dec00204 	addi	sp,sp,8
   4022c:	f800283a 	ret

Disassembly of section .text:

00040230 <_start>:
   40230:	06c001b4 	movhi	sp,6
   40234:	ded60014 	ori	sp,sp,22528
   40238:	06800174 	movhi	gp,5
   4023c:	d69b8214 	ori	gp,gp,28168
   40240:	00800174 	movhi	r2,5
   40244:	10826c14 	ori	r2,r2,2480
   40248:	00c00174 	movhi	r3,5
   4024c:	18d76614 	ori	r3,r3,23960
   40250:	10c00326 	beq	r2,r3,40260 <_start+0x30>
   40254:	10000015 	stw	zero,0(r2)
   40258:	10800104 	addi	r2,r2,4
   4025c:	10fffd36 	bltu	r2,r3,40254 <__alt_data_end+0xfffdaa54>
   40260:	0042cac0 	call	42cac <alt_load>
   40264:	0042e480 	call	42e48 <alt_main>

00040268 <alt_after_alt_main>:
   40268:	003fff06 	br	40268 <__alt_data_end+0xfffdaa68>

0004026c <handle_interrupts>:
   4026c:	defffc04 	addi	sp,sp,-16
   40270:	dfc00315 	stw	ra,12(sp)
   40274:	df000215 	stw	fp,8(sp)
   40278:	df000204 	addi	fp,sp,8
   4027c:	e13fff15 	stw	r4,-4(fp)
   40280:	e0bfff17 	ldw	r2,-4(fp)
   40284:	e0bffe15 	stw	r2,-8(fp)
   40288:	00800234 	movhi	r2,8
   4028c:	10841704 	addi	r2,r2,4188
   40290:	10c00037 	ldwio	r3,0(r2)
   40294:	e0bffe17 	ldw	r2,-8(fp)
   40298:	10c00015 	stw	r3,0(r2)
   4029c:	0007883a 	mov	r3,zero
   402a0:	00800234 	movhi	r2,8
   402a4:	10841704 	addi	r2,r2,4188
   402a8:	10c00035 	stwio	r3,0(r2)
   402ac:	d0a6eb17 	ldw	r2,-25684(gp)
   402b0:	1009883a 	mov	r4,r2
   402b4:	0048e200 	call	48e20 <OSSemPost>
   402b8:	0001883a 	nop
   402bc:	e037883a 	mov	sp,fp
   402c0:	dfc00117 	ldw	ra,4(sp)
   402c4:	df000017 	ldw	fp,0(sp)
   402c8:	dec00204 	addi	sp,sp,8
   402cc:	f800283a 	ret

000402d0 <init_interrupt_pio>:
   402d0:	defffc04 	addi	sp,sp,-16
   402d4:	dfc00315 	stw	ra,12(sp)
   402d8:	df000215 	stw	fp,8(sp)
   402dc:	df000204 	addi	fp,sp,8
   402e0:	d0a6ea04 	addi	r2,gp,-25688
   402e4:	e0bfff15 	stw	r2,-4(fp)
   402e8:	00c00044 	movi	r3,1
   402ec:	00800234 	movhi	r2,8
   402f0:	10841604 	addi	r2,r2,4184
   402f4:	10c00035 	stwio	r3,0(r2)
   402f8:	0007883a 	mov	r3,zero
   402fc:	00800234 	movhi	r2,8
   40300:	10841704 	addi	r2,r2,4188
   40304:	10c00035 	stwio	r3,0(r2)
   40308:	d8000015 	stw	zero,0(sp)
   4030c:	e1ffff17 	ldw	r7,-4(fp)
   40310:	01800134 	movhi	r6,4
   40314:	31809b04 	addi	r6,r6,620
   40318:	01400144 	movi	r5,5
   4031c:	0009883a 	mov	r4,zero
   40320:	00428bc0 	call	428bc <alt_ic_isr_register>
   40324:	0001883a 	nop
   40328:	e037883a 	mov	sp,fp
   4032c:	dfc00117 	ldw	ra,4(sp)
   40330:	df000017 	ldw	fp,0(sp)
   40334:	dec00204 	addi	sp,sp,8
   40338:	f800283a 	ret

0004033c <task1>:
   4033c:	defff704 	addi	sp,sp,-36
   40340:	dfc00815 	stw	ra,32(sp)
   40344:	df000715 	stw	fp,28(sp)
   40348:	df000704 	addi	fp,sp,28
   4034c:	e13fff15 	stw	r4,-4(fp)
   40350:	009b1b34 	movhi	r2,27756
   40354:	10995204 	addi	r2,r2,25928
   40358:	e0bffa15 	stw	r2,-24(fp)
   4035c:	009c99b4 	movhi	r2,29286
   40360:	10881bc4 	addi	r2,r2,8303
   40364:	e0bffb15 	stw	r2,-20(fp)
   40368:	00950834 	movhi	r2,21536
   4036c:	109b5bc4 	addi	r2,r2,28015
   40370:	e0bffc15 	stw	r2,-16(fp)
   40374:	008c5af4 	movhi	r2,12651
   40378:	109cd844 	addi	r2,r2,29537
   4037c:	e0bffd15 	stw	r2,-12(fp)
   40380:	00800284 	movi	r2,10
   40384:	e0bffe0d 	sth	r2,-8(fp)
   40388:	e03ffe85 	stb	zero,-6(fp)
   4038c:	d0a6eb17 	ldw	r2,-25684(gp)
   40390:	e0fffe84 	addi	r3,fp,-6
   40394:	180d883a 	mov	r6,r3
   40398:	000b883a 	mov	r5,zero
   4039c:	1009883a 	mov	r4,r2
   403a0:	0048aa80 	call	48aa8 <OSSemPend>
   403a4:	d0a6ec17 	ldw	r2,-25680(gp)
   403a8:	e0fffe84 	addi	r3,fp,-6
   403ac:	180d883a 	mov	r6,r3
   403b0:	000b883a 	mov	r5,zero
   403b4:	1009883a 	mov	r4,r2
   403b8:	0048aa80 	call	48aa8 <OSSemPend>
   403bc:	e03ff915 	stw	zero,-28(fp)
   403c0:	00000f06 	br	40400 <task1+0xc4>
   403c4:	e0fffa04 	addi	r3,fp,-24
   403c8:	e0bff917 	ldw	r2,-28(fp)
   403cc:	1885883a 	add	r2,r3,r2
   403d0:	10800003 	ldbu	r2,0(r2)
   403d4:	10c03fcc 	andi	r3,r2,255
   403d8:	18c0201c 	xori	r3,r3,128
   403dc:	18ffe004 	addi	r3,r3,-128
   403e0:	d0a00117 	ldw	r2,-32764(gp)
   403e4:	10800217 	ldw	r2,8(r2)
   403e8:	100b883a 	mov	r5,r2
   403ec:	1809883a 	mov	r4,r3
   403f0:	00406980 	call	40698 <putc>
   403f4:	e0bff917 	ldw	r2,-28(fp)
   403f8:	10800044 	addi	r2,r2,1
   403fc:	e0bff915 	stw	r2,-28(fp)
   40400:	e0bffa04 	addi	r2,fp,-24
   40404:	1009883a 	mov	r4,r2
   40408:	00407600 	call	40760 <strlen>
   4040c:	1007883a 	mov	r3,r2
   40410:	e0bff917 	ldw	r2,-28(fp)
   40414:	10ffeb36 	bltu	r2,r3,403c4 <__alt_data_end+0xfffdabc4>
   40418:	d0a6ec17 	ldw	r2,-25680(gp)
   4041c:	1009883a 	mov	r4,r2
   40420:	0048e200 	call	48e20 <OSSemPost>
   40424:	d0a6eb17 	ldw	r2,-25684(gp)
   40428:	1009883a 	mov	r4,r2
   4042c:	0048e200 	call	48e20 <OSSemPost>
   40430:	01c00504 	movi	r7,20
   40434:	018000c4 	movi	r6,3
   40438:	000b883a 	mov	r5,zero
   4043c:	0009883a 	mov	r4,zero
   40440:	004a9b00 	call	4a9b0 <OSTimeDlyHMSM>
   40444:	003fd106 	br	4038c <__alt_data_end+0xfffdab8c>

00040448 <task2>:
   40448:	defff704 	addi	sp,sp,-36
   4044c:	dfc00815 	stw	ra,32(sp)
   40450:	df000715 	stw	fp,28(sp)
   40454:	df000704 	addi	fp,sp,28
   40458:	e13fff15 	stw	r4,-4(fp)
   4045c:	009b5bf4 	movhi	r2,28015
   40460:	109a1504 	addi	r2,r2,26708
   40464:	e0bffa15 	stw	r2,-24(fp)
   40468:	009cc834 	movhi	r2,29472
   4046c:	109cd844 	addi	r2,r2,29537
   40470:	e0bffb15 	stw	r2,-20(fp)
   40474:	009ad874 	movhi	r2,27489
   40478:	10995c04 	addi	r2,r2,25968
   4047c:	e0bffc15 	stw	r2,-16(fp)
   40480:	008859f4 	movhi	r2,8551
   40484:	109b9a44 	addi	r2,r2,28265
   40488:	e0bffd15 	stw	r2,-12(fp)
   4048c:	00800284 	movi	r2,10
   40490:	e0bffe0d 	sth	r2,-8(fp)
   40494:	e03ffe85 	stb	zero,-6(fp)
   40498:	d0a6ec17 	ldw	r2,-25680(gp)
   4049c:	e0fffe84 	addi	r3,fp,-6
   404a0:	180d883a 	mov	r6,r3
   404a4:	000b883a 	mov	r5,zero
   404a8:	1009883a 	mov	r4,r2
   404ac:	0048aa80 	call	48aa8 <OSSemPend>
   404b0:	e03ff915 	stw	zero,-28(fp)
   404b4:	00000f06 	br	404f4 <task2+0xac>
   404b8:	e0fffa04 	addi	r3,fp,-24
   404bc:	e0bff917 	ldw	r2,-28(fp)
   404c0:	1885883a 	add	r2,r3,r2
   404c4:	10800003 	ldbu	r2,0(r2)
   404c8:	10c03fcc 	andi	r3,r2,255
   404cc:	18c0201c 	xori	r3,r3,128
   404d0:	18ffe004 	addi	r3,r3,-128
   404d4:	d0a00117 	ldw	r2,-32764(gp)
   404d8:	10800217 	ldw	r2,8(r2)
   404dc:	100b883a 	mov	r5,r2
   404e0:	1809883a 	mov	r4,r3
   404e4:	00406980 	call	40698 <putc>
   404e8:	e0bff917 	ldw	r2,-28(fp)
   404ec:	10800044 	addi	r2,r2,1
   404f0:	e0bff915 	stw	r2,-28(fp)
   404f4:	e0bffa04 	addi	r2,fp,-24
   404f8:	1009883a 	mov	r4,r2
   404fc:	00407600 	call	40760 <strlen>
   40500:	1007883a 	mov	r3,r2
   40504:	e0bff917 	ldw	r2,-28(fp)
   40508:	10ffeb36 	bltu	r2,r3,404b8 <__alt_data_end+0xfffdacb8>
   4050c:	d0a6ec17 	ldw	r2,-25680(gp)
   40510:	1009883a 	mov	r4,r2
   40514:	0048e200 	call	48e20 <OSSemPost>
   40518:	01c00104 	movi	r7,4
   4051c:	018000c4 	movi	r6,3
   40520:	000b883a 	mov	r5,zero
   40524:	0009883a 	mov	r4,zero
   40528:	004a9b00 	call	4a9b0 <OSTimeDlyHMSM>
   4052c:	003fda06 	br	40498 <__alt_data_end+0xfffdac98>

00040530 <main>:
   40530:	defff904 	addi	sp,sp,-28
   40534:	dfc00615 	stw	ra,24(sp)
   40538:	df000515 	stw	fp,20(sp)
   4053c:	df000504 	addi	fp,sp,20
   40540:	01000044 	movi	r4,1
   40544:	00487900 	call	48790 <OSSemCreate>
   40548:	d0a6ec15 	stw	r2,-25680(gp)
   4054c:	0009883a 	mov	r4,zero
   40550:	00487900 	call	48790 <OSSemCreate>
   40554:	d0a6eb15 	stw	r2,-25684(gp)
   40558:	00402d00 	call	402d0 <init_interrupt_pio>
   4055c:	d8000415 	stw	zero,16(sp)
   40560:	d8000315 	stw	zero,12(sp)
   40564:	00810004 	movi	r2,1024
   40568:	d8800215 	stw	r2,8(sp)
   4056c:	00800174 	movhi	r2,5
   40570:	10829d04 	addi	r2,r2,2676
   40574:	d8800115 	stw	r2,4(sp)
   40578:	00800104 	movi	r2,4
   4057c:	d8800015 	stw	r2,0(sp)
   40580:	01c00104 	movi	r7,4
   40584:	01800174 	movhi	r6,5
   40588:	31869c04 	addi	r6,r6,6768
   4058c:	000b883a 	mov	r5,zero
   40590:	01000134 	movhi	r4,4
   40594:	2100cf04 	addi	r4,r4,828
   40598:	00497dc0 	call	497dc <OSTaskCreateExt>
   4059c:	d8000415 	stw	zero,16(sp)
   405a0:	d8000315 	stw	zero,12(sp)
   405a4:	00810004 	movi	r2,1024
   405a8:	d8800215 	stw	r2,8(sp)
   405ac:	00800174 	movhi	r2,5
   405b0:	10869d04 	addi	r2,r2,6772
   405b4:	d8800115 	stw	r2,4(sp)
   405b8:	00800144 	movi	r2,5
   405bc:	d8800015 	stw	r2,0(sp)
   405c0:	01c00144 	movi	r7,5
   405c4:	01800174 	movhi	r6,5
   405c8:	318a9c04 	addi	r6,r6,10864
   405cc:	000b883a 	mov	r5,zero
   405d0:	01000134 	movhi	r4,4
   405d4:	21011204 	addi	r4,r4,1096
   405d8:	00497dc0 	call	497dc <OSTaskCreateExt>
   405dc:	00441380 	call	44138 <OSStart>
   405e0:	0005883a 	mov	r2,zero
   405e4:	e037883a 	mov	sp,fp
   405e8:	dfc00117 	ldw	ra,4(sp)
   405ec:	df000017 	ldw	fp,0(sp)
   405f0:	dec00204 	addi	sp,sp,8
   405f4:	f800283a 	ret

000405f8 <_putc_r>:
   405f8:	defffc04 	addi	sp,sp,-16
   405fc:	dc000215 	stw	r16,8(sp)
   40600:	dfc00315 	stw	ra,12(sp)
   40604:	2021883a 	mov	r16,r4
   40608:	20000226 	beq	r4,zero,40614 <_putc_r+0x1c>
   4060c:	20800e17 	ldw	r2,56(r4)
   40610:	10001b26 	beq	r2,zero,40680 <_putc_r+0x88>
   40614:	30800217 	ldw	r2,8(r6)
   40618:	10bfffc4 	addi	r2,r2,-1
   4061c:	30800215 	stw	r2,8(r6)
   40620:	10000a16 	blt	r2,zero,4064c <_putc_r+0x54>
   40624:	30800017 	ldw	r2,0(r6)
   40628:	11400005 	stb	r5,0(r2)
   4062c:	30800017 	ldw	r2,0(r6)
   40630:	10c00044 	addi	r3,r2,1
   40634:	30c00015 	stw	r3,0(r6)
   40638:	10800003 	ldbu	r2,0(r2)
   4063c:	dfc00317 	ldw	ra,12(sp)
   40640:	dc000217 	ldw	r16,8(sp)
   40644:	dec00404 	addi	sp,sp,16
   40648:	f800283a 	ret
   4064c:	30c00617 	ldw	r3,24(r6)
   40650:	10c00616 	blt	r2,r3,4066c <_putc_r+0x74>
   40654:	30800017 	ldw	r2,0(r6)
   40658:	00c00284 	movi	r3,10
   4065c:	11400005 	stb	r5,0(r2)
   40660:	30800017 	ldw	r2,0(r6)
   40664:	11400003 	ldbu	r5,0(r2)
   40668:	28fff11e 	bne	r5,r3,40630 <__alt_data_end+0xfffdae30>
   4066c:	8009883a 	mov	r4,r16
   40670:	dfc00317 	ldw	ra,12(sp)
   40674:	dc000217 	ldw	r16,8(sp)
   40678:	dec00404 	addi	sp,sp,16
   4067c:	00407f81 	jmpi	407f8 <__swbuf_r>
   40680:	d9400015 	stw	r5,0(sp)
   40684:	d9800115 	stw	r6,4(sp)
   40688:	00410ac0 	call	410ac <__sinit>
   4068c:	d9800117 	ldw	r6,4(sp)
   40690:	d9400017 	ldw	r5,0(sp)
   40694:	003fdf06 	br	40614 <__alt_data_end+0xfffdae14>

00040698 <putc>:
   40698:	00800174 	movhi	r2,5
   4069c:	defffc04 	addi	sp,sp,-16
   406a0:	10bb8304 	addi	r2,r2,-4596
   406a4:	dc000115 	stw	r16,4(sp)
   406a8:	14000017 	ldw	r16,0(r2)
   406ac:	dc400215 	stw	r17,8(sp)
   406b0:	dfc00315 	stw	ra,12(sp)
   406b4:	2023883a 	mov	r17,r4
   406b8:	80000226 	beq	r16,zero,406c4 <putc+0x2c>
   406bc:	80800e17 	ldw	r2,56(r16)
   406c0:	10001a26 	beq	r2,zero,4072c <putc+0x94>
   406c4:	28800217 	ldw	r2,8(r5)
   406c8:	10bfffc4 	addi	r2,r2,-1
   406cc:	28800215 	stw	r2,8(r5)
   406d0:	10000b16 	blt	r2,zero,40700 <putc+0x68>
   406d4:	28800017 	ldw	r2,0(r5)
   406d8:	14400005 	stb	r17,0(r2)
   406dc:	28800017 	ldw	r2,0(r5)
   406e0:	10c00044 	addi	r3,r2,1
   406e4:	28c00015 	stw	r3,0(r5)
   406e8:	10800003 	ldbu	r2,0(r2)
   406ec:	dfc00317 	ldw	ra,12(sp)
   406f0:	dc400217 	ldw	r17,8(sp)
   406f4:	dc000117 	ldw	r16,4(sp)
   406f8:	dec00404 	addi	sp,sp,16
   406fc:	f800283a 	ret
   40700:	28c00617 	ldw	r3,24(r5)
   40704:	10c00e16 	blt	r2,r3,40740 <putc+0xa8>
   40708:	28800017 	ldw	r2,0(r5)
   4070c:	01000284 	movi	r4,10
   40710:	14400005 	stb	r17,0(r2)
   40714:	28800017 	ldw	r2,0(r5)
   40718:	10c00003 	ldbu	r3,0(r2)
   4071c:	193ff01e 	bne	r3,r4,406e0 <__alt_data_end+0xfffdaee0>
   40720:	280d883a 	mov	r6,r5
   40724:	180b883a 	mov	r5,r3
   40728:	00000706 	br	40748 <putc+0xb0>
   4072c:	8009883a 	mov	r4,r16
   40730:	d9400015 	stw	r5,0(sp)
   40734:	00410ac0 	call	410ac <__sinit>
   40738:	d9400017 	ldw	r5,0(sp)
   4073c:	003fe106 	br	406c4 <__alt_data_end+0xfffdaec4>
   40740:	280d883a 	mov	r6,r5
   40744:	880b883a 	mov	r5,r17
   40748:	8009883a 	mov	r4,r16
   4074c:	dfc00317 	ldw	ra,12(sp)
   40750:	dc400217 	ldw	r17,8(sp)
   40754:	dc000117 	ldw	r16,4(sp)
   40758:	dec00404 	addi	sp,sp,16
   4075c:	00407f81 	jmpi	407f8 <__swbuf_r>

00040760 <strlen>:
   40760:	208000cc 	andi	r2,r4,3
   40764:	10002026 	beq	r2,zero,407e8 <strlen+0x88>
   40768:	20800007 	ldb	r2,0(r4)
   4076c:	10002026 	beq	r2,zero,407f0 <strlen+0x90>
   40770:	2005883a 	mov	r2,r4
   40774:	00000206 	br	40780 <strlen+0x20>
   40778:	10c00007 	ldb	r3,0(r2)
   4077c:	18001826 	beq	r3,zero,407e0 <strlen+0x80>
   40780:	10800044 	addi	r2,r2,1
   40784:	10c000cc 	andi	r3,r2,3
   40788:	183ffb1e 	bne	r3,zero,40778 <__alt_data_end+0xfffdaf78>
   4078c:	10c00017 	ldw	r3,0(r2)
   40790:	01ffbff4 	movhi	r7,65279
   40794:	39ffbfc4 	addi	r7,r7,-257
   40798:	00ca303a 	nor	r5,zero,r3
   4079c:	01a02074 	movhi	r6,32897
   407a0:	19c7883a 	add	r3,r3,r7
   407a4:	31a02004 	addi	r6,r6,-32640
   407a8:	1946703a 	and	r3,r3,r5
   407ac:	1986703a 	and	r3,r3,r6
   407b0:	1800091e 	bne	r3,zero,407d8 <strlen+0x78>
   407b4:	10800104 	addi	r2,r2,4
   407b8:	10c00017 	ldw	r3,0(r2)
   407bc:	19cb883a 	add	r5,r3,r7
   407c0:	00c6303a 	nor	r3,zero,r3
   407c4:	28c6703a 	and	r3,r5,r3
   407c8:	1986703a 	and	r3,r3,r6
   407cc:	183ff926 	beq	r3,zero,407b4 <__alt_data_end+0xfffdafb4>
   407d0:	00000106 	br	407d8 <strlen+0x78>
   407d4:	10800044 	addi	r2,r2,1
   407d8:	10c00007 	ldb	r3,0(r2)
   407dc:	183ffd1e 	bne	r3,zero,407d4 <__alt_data_end+0xfffdafd4>
   407e0:	1105c83a 	sub	r2,r2,r4
   407e4:	f800283a 	ret
   407e8:	2005883a 	mov	r2,r4
   407ec:	003fe706 	br	4078c <__alt_data_end+0xfffdaf8c>
   407f0:	0005883a 	mov	r2,zero
   407f4:	f800283a 	ret

000407f8 <__swbuf_r>:
   407f8:	defffb04 	addi	sp,sp,-20
   407fc:	dcc00315 	stw	r19,12(sp)
   40800:	dc800215 	stw	r18,8(sp)
   40804:	dc000015 	stw	r16,0(sp)
   40808:	dfc00415 	stw	ra,16(sp)
   4080c:	dc400115 	stw	r17,4(sp)
   40810:	2025883a 	mov	r18,r4
   40814:	2827883a 	mov	r19,r5
   40818:	3021883a 	mov	r16,r6
   4081c:	20000226 	beq	r4,zero,40828 <__swbuf_r+0x30>
   40820:	20800e17 	ldw	r2,56(r4)
   40824:	10004226 	beq	r2,zero,40930 <__swbuf_r+0x138>
   40828:	80800617 	ldw	r2,24(r16)
   4082c:	8100030b 	ldhu	r4,12(r16)
   40830:	80800215 	stw	r2,8(r16)
   40834:	2080020c 	andi	r2,r4,8
   40838:	10003626 	beq	r2,zero,40914 <__swbuf_r+0x11c>
   4083c:	80c00417 	ldw	r3,16(r16)
   40840:	18003426 	beq	r3,zero,40914 <__swbuf_r+0x11c>
   40844:	2088000c 	andi	r2,r4,8192
   40848:	9c403fcc 	andi	r17,r19,255
   4084c:	10001a26 	beq	r2,zero,408b8 <__swbuf_r+0xc0>
   40850:	80800017 	ldw	r2,0(r16)
   40854:	81000517 	ldw	r4,20(r16)
   40858:	10c7c83a 	sub	r3,r2,r3
   4085c:	1900200e 	bge	r3,r4,408e0 <__swbuf_r+0xe8>
   40860:	18c00044 	addi	r3,r3,1
   40864:	81000217 	ldw	r4,8(r16)
   40868:	11400044 	addi	r5,r2,1
   4086c:	81400015 	stw	r5,0(r16)
   40870:	213fffc4 	addi	r4,r4,-1
   40874:	81000215 	stw	r4,8(r16)
   40878:	14c00005 	stb	r19,0(r2)
   4087c:	80800517 	ldw	r2,20(r16)
   40880:	10c01e26 	beq	r2,r3,408fc <__swbuf_r+0x104>
   40884:	8080030b 	ldhu	r2,12(r16)
   40888:	1080004c 	andi	r2,r2,1
   4088c:	10000226 	beq	r2,zero,40898 <__swbuf_r+0xa0>
   40890:	00800284 	movi	r2,10
   40894:	88801926 	beq	r17,r2,408fc <__swbuf_r+0x104>
   40898:	8805883a 	mov	r2,r17
   4089c:	dfc00417 	ldw	ra,16(sp)
   408a0:	dcc00317 	ldw	r19,12(sp)
   408a4:	dc800217 	ldw	r18,8(sp)
   408a8:	dc400117 	ldw	r17,4(sp)
   408ac:	dc000017 	ldw	r16,0(sp)
   408b0:	dec00504 	addi	sp,sp,20
   408b4:	f800283a 	ret
   408b8:	81401917 	ldw	r5,100(r16)
   408bc:	00b7ffc4 	movi	r2,-8193
   408c0:	21080014 	ori	r4,r4,8192
   408c4:	2884703a 	and	r2,r5,r2
   408c8:	80801915 	stw	r2,100(r16)
   408cc:	80800017 	ldw	r2,0(r16)
   408d0:	8100030d 	sth	r4,12(r16)
   408d4:	81000517 	ldw	r4,20(r16)
   408d8:	10c7c83a 	sub	r3,r2,r3
   408dc:	193fe016 	blt	r3,r4,40860 <__alt_data_end+0xfffdb060>
   408e0:	800b883a 	mov	r5,r16
   408e4:	9009883a 	mov	r4,r18
   408e8:	0040cc00 	call	40cc0 <_fflush_r>
   408ec:	1000071e 	bne	r2,zero,4090c <__swbuf_r+0x114>
   408f0:	80800017 	ldw	r2,0(r16)
   408f4:	00c00044 	movi	r3,1
   408f8:	003fda06 	br	40864 <__alt_data_end+0xfffdb064>
   408fc:	800b883a 	mov	r5,r16
   40900:	9009883a 	mov	r4,r18
   40904:	0040cc00 	call	40cc0 <_fflush_r>
   40908:	103fe326 	beq	r2,zero,40898 <__alt_data_end+0xfffdb098>
   4090c:	00bfffc4 	movi	r2,-1
   40910:	003fe206 	br	4089c <__alt_data_end+0xfffdb09c>
   40914:	800b883a 	mov	r5,r16
   40918:	9009883a 	mov	r4,r18
   4091c:	00409500 	call	40950 <__swsetup_r>
   40920:	103ffa1e 	bne	r2,zero,4090c <__alt_data_end+0xfffdb10c>
   40924:	8100030b 	ldhu	r4,12(r16)
   40928:	80c00417 	ldw	r3,16(r16)
   4092c:	003fc506 	br	40844 <__alt_data_end+0xfffdb044>
   40930:	00410ac0 	call	410ac <__sinit>
   40934:	003fbc06 	br	40828 <__alt_data_end+0xfffdb028>

00040938 <__swbuf>:
   40938:	00800174 	movhi	r2,5
   4093c:	10bb8304 	addi	r2,r2,-4596
   40940:	280d883a 	mov	r6,r5
   40944:	200b883a 	mov	r5,r4
   40948:	11000017 	ldw	r4,0(r2)
   4094c:	00407f81 	jmpi	407f8 <__swbuf_r>

00040950 <__swsetup_r>:
   40950:	00800174 	movhi	r2,5
   40954:	defffd04 	addi	sp,sp,-12
   40958:	10bb8304 	addi	r2,r2,-4596
   4095c:	dc400115 	stw	r17,4(sp)
   40960:	2023883a 	mov	r17,r4
   40964:	11000017 	ldw	r4,0(r2)
   40968:	dc000015 	stw	r16,0(sp)
   4096c:	dfc00215 	stw	ra,8(sp)
   40970:	2821883a 	mov	r16,r5
   40974:	20000226 	beq	r4,zero,40980 <__swsetup_r+0x30>
   40978:	20800e17 	ldw	r2,56(r4)
   4097c:	10003126 	beq	r2,zero,40a44 <__swsetup_r+0xf4>
   40980:	8080030b 	ldhu	r2,12(r16)
   40984:	10c0020c 	andi	r3,r2,8
   40988:	1009883a 	mov	r4,r2
   4098c:	18000f26 	beq	r3,zero,409cc <__swsetup_r+0x7c>
   40990:	80c00417 	ldw	r3,16(r16)
   40994:	18001526 	beq	r3,zero,409ec <__swsetup_r+0x9c>
   40998:	1100004c 	andi	r4,r2,1
   4099c:	20001c1e 	bne	r4,zero,40a10 <__swsetup_r+0xc0>
   409a0:	1080008c 	andi	r2,r2,2
   409a4:	1000291e 	bne	r2,zero,40a4c <__swsetup_r+0xfc>
   409a8:	80800517 	ldw	r2,20(r16)
   409ac:	80800215 	stw	r2,8(r16)
   409b0:	18001c26 	beq	r3,zero,40a24 <__swsetup_r+0xd4>
   409b4:	0005883a 	mov	r2,zero
   409b8:	dfc00217 	ldw	ra,8(sp)
   409bc:	dc400117 	ldw	r17,4(sp)
   409c0:	dc000017 	ldw	r16,0(sp)
   409c4:	dec00304 	addi	sp,sp,12
   409c8:	f800283a 	ret
   409cc:	2080040c 	andi	r2,r4,16
   409d0:	10002e26 	beq	r2,zero,40a8c <__swsetup_r+0x13c>
   409d4:	2080010c 	andi	r2,r4,4
   409d8:	10001e1e 	bne	r2,zero,40a54 <__swsetup_r+0x104>
   409dc:	80c00417 	ldw	r3,16(r16)
   409e0:	20800214 	ori	r2,r4,8
   409e4:	8080030d 	sth	r2,12(r16)
   409e8:	183feb1e 	bne	r3,zero,40998 <__alt_data_end+0xfffdb198>
   409ec:	1100a00c 	andi	r4,r2,640
   409f0:	01408004 	movi	r5,512
   409f4:	217fe826 	beq	r4,r5,40998 <__alt_data_end+0xfffdb198>
   409f8:	800b883a 	mov	r5,r16
   409fc:	8809883a 	mov	r4,r17
   40a00:	00416b80 	call	416b8 <__smakebuf_r>
   40a04:	8080030b 	ldhu	r2,12(r16)
   40a08:	80c00417 	ldw	r3,16(r16)
   40a0c:	003fe206 	br	40998 <__alt_data_end+0xfffdb198>
   40a10:	80800517 	ldw	r2,20(r16)
   40a14:	80000215 	stw	zero,8(r16)
   40a18:	0085c83a 	sub	r2,zero,r2
   40a1c:	80800615 	stw	r2,24(r16)
   40a20:	183fe41e 	bne	r3,zero,409b4 <__alt_data_end+0xfffdb1b4>
   40a24:	80c0030b 	ldhu	r3,12(r16)
   40a28:	0005883a 	mov	r2,zero
   40a2c:	1900200c 	andi	r4,r3,128
   40a30:	203fe126 	beq	r4,zero,409b8 <__alt_data_end+0xfffdb1b8>
   40a34:	18c01014 	ori	r3,r3,64
   40a38:	80c0030d 	sth	r3,12(r16)
   40a3c:	00bfffc4 	movi	r2,-1
   40a40:	003fdd06 	br	409b8 <__alt_data_end+0xfffdb1b8>
   40a44:	00410ac0 	call	410ac <__sinit>
   40a48:	003fcd06 	br	40980 <__alt_data_end+0xfffdb180>
   40a4c:	0005883a 	mov	r2,zero
   40a50:	003fd606 	br	409ac <__alt_data_end+0xfffdb1ac>
   40a54:	81400c17 	ldw	r5,48(r16)
   40a58:	28000626 	beq	r5,zero,40a74 <__swsetup_r+0x124>
   40a5c:	80801004 	addi	r2,r16,64
   40a60:	28800326 	beq	r5,r2,40a70 <__swsetup_r+0x120>
   40a64:	8809883a 	mov	r4,r17
   40a68:	00412200 	call	41220 <_free_r>
   40a6c:	8100030b 	ldhu	r4,12(r16)
   40a70:	80000c15 	stw	zero,48(r16)
   40a74:	80c00417 	ldw	r3,16(r16)
   40a78:	00bff6c4 	movi	r2,-37
   40a7c:	1108703a 	and	r4,r2,r4
   40a80:	80000115 	stw	zero,4(r16)
   40a84:	80c00015 	stw	r3,0(r16)
   40a88:	003fd506 	br	409e0 <__alt_data_end+0xfffdb1e0>
   40a8c:	00800244 	movi	r2,9
   40a90:	88800015 	stw	r2,0(r17)
   40a94:	20801014 	ori	r2,r4,64
   40a98:	8080030d 	sth	r2,12(r16)
   40a9c:	00bfffc4 	movi	r2,-1
   40aa0:	003fc506 	br	409b8 <__alt_data_end+0xfffdb1b8>

00040aa4 <__sflush_r>:
   40aa4:	2880030b 	ldhu	r2,12(r5)
   40aa8:	defffb04 	addi	sp,sp,-20
   40aac:	dcc00315 	stw	r19,12(sp)
   40ab0:	dc400115 	stw	r17,4(sp)
   40ab4:	dfc00415 	stw	ra,16(sp)
   40ab8:	dc800215 	stw	r18,8(sp)
   40abc:	dc000015 	stw	r16,0(sp)
   40ac0:	10c0020c 	andi	r3,r2,8
   40ac4:	2823883a 	mov	r17,r5
   40ac8:	2027883a 	mov	r19,r4
   40acc:	1800311e 	bne	r3,zero,40b94 <__sflush_r+0xf0>
   40ad0:	28c00117 	ldw	r3,4(r5)
   40ad4:	10820014 	ori	r2,r2,2048
   40ad8:	2880030d 	sth	r2,12(r5)
   40adc:	00c04b0e 	bge	zero,r3,40c0c <__sflush_r+0x168>
   40ae0:	8a000a17 	ldw	r8,40(r17)
   40ae4:	40002326 	beq	r8,zero,40b74 <__sflush_r+0xd0>
   40ae8:	9c000017 	ldw	r16,0(r19)
   40aec:	10c4000c 	andi	r3,r2,4096
   40af0:	98000015 	stw	zero,0(r19)
   40af4:	18004826 	beq	r3,zero,40c18 <__sflush_r+0x174>
   40af8:	89801417 	ldw	r6,80(r17)
   40afc:	10c0010c 	andi	r3,r2,4
   40b00:	18000626 	beq	r3,zero,40b1c <__sflush_r+0x78>
   40b04:	88c00117 	ldw	r3,4(r17)
   40b08:	88800c17 	ldw	r2,48(r17)
   40b0c:	30cdc83a 	sub	r6,r6,r3
   40b10:	10000226 	beq	r2,zero,40b1c <__sflush_r+0x78>
   40b14:	88800f17 	ldw	r2,60(r17)
   40b18:	308dc83a 	sub	r6,r6,r2
   40b1c:	89400717 	ldw	r5,28(r17)
   40b20:	000f883a 	mov	r7,zero
   40b24:	9809883a 	mov	r4,r19
   40b28:	403ee83a 	callr	r8
   40b2c:	00ffffc4 	movi	r3,-1
   40b30:	10c04426 	beq	r2,r3,40c44 <__sflush_r+0x1a0>
   40b34:	88c0030b 	ldhu	r3,12(r17)
   40b38:	89000417 	ldw	r4,16(r17)
   40b3c:	88000115 	stw	zero,4(r17)
   40b40:	197dffcc 	andi	r5,r3,63487
   40b44:	8940030d 	sth	r5,12(r17)
   40b48:	89000015 	stw	r4,0(r17)
   40b4c:	18c4000c 	andi	r3,r3,4096
   40b50:	18002c1e 	bne	r3,zero,40c04 <__sflush_r+0x160>
   40b54:	89400c17 	ldw	r5,48(r17)
   40b58:	9c000015 	stw	r16,0(r19)
   40b5c:	28000526 	beq	r5,zero,40b74 <__sflush_r+0xd0>
   40b60:	88801004 	addi	r2,r17,64
   40b64:	28800226 	beq	r5,r2,40b70 <__sflush_r+0xcc>
   40b68:	9809883a 	mov	r4,r19
   40b6c:	00412200 	call	41220 <_free_r>
   40b70:	88000c15 	stw	zero,48(r17)
   40b74:	0005883a 	mov	r2,zero
   40b78:	dfc00417 	ldw	ra,16(sp)
   40b7c:	dcc00317 	ldw	r19,12(sp)
   40b80:	dc800217 	ldw	r18,8(sp)
   40b84:	dc400117 	ldw	r17,4(sp)
   40b88:	dc000017 	ldw	r16,0(sp)
   40b8c:	dec00504 	addi	sp,sp,20
   40b90:	f800283a 	ret
   40b94:	2c800417 	ldw	r18,16(r5)
   40b98:	903ff626 	beq	r18,zero,40b74 <__alt_data_end+0xfffdb374>
   40b9c:	2c000017 	ldw	r16,0(r5)
   40ba0:	108000cc 	andi	r2,r2,3
   40ba4:	2c800015 	stw	r18,0(r5)
   40ba8:	84a1c83a 	sub	r16,r16,r18
   40bac:	1000131e 	bne	r2,zero,40bfc <__sflush_r+0x158>
   40bb0:	28800517 	ldw	r2,20(r5)
   40bb4:	88800215 	stw	r2,8(r17)
   40bb8:	04000316 	blt	zero,r16,40bc8 <__sflush_r+0x124>
   40bbc:	003fed06 	br	40b74 <__alt_data_end+0xfffdb374>
   40bc0:	90a5883a 	add	r18,r18,r2
   40bc4:	043feb0e 	bge	zero,r16,40b74 <__alt_data_end+0xfffdb374>
   40bc8:	88800917 	ldw	r2,36(r17)
   40bcc:	89400717 	ldw	r5,28(r17)
   40bd0:	800f883a 	mov	r7,r16
   40bd4:	900d883a 	mov	r6,r18
   40bd8:	9809883a 	mov	r4,r19
   40bdc:	103ee83a 	callr	r2
   40be0:	80a1c83a 	sub	r16,r16,r2
   40be4:	00bff616 	blt	zero,r2,40bc0 <__alt_data_end+0xfffdb3c0>
   40be8:	88c0030b 	ldhu	r3,12(r17)
   40bec:	00bfffc4 	movi	r2,-1
   40bf0:	18c01014 	ori	r3,r3,64
   40bf4:	88c0030d 	sth	r3,12(r17)
   40bf8:	003fdf06 	br	40b78 <__alt_data_end+0xfffdb378>
   40bfc:	0005883a 	mov	r2,zero
   40c00:	003fec06 	br	40bb4 <__alt_data_end+0xfffdb3b4>
   40c04:	88801415 	stw	r2,80(r17)
   40c08:	003fd206 	br	40b54 <__alt_data_end+0xfffdb354>
   40c0c:	28c00f17 	ldw	r3,60(r5)
   40c10:	00ffb316 	blt	zero,r3,40ae0 <__alt_data_end+0xfffdb2e0>
   40c14:	003fd706 	br	40b74 <__alt_data_end+0xfffdb374>
   40c18:	89400717 	ldw	r5,28(r17)
   40c1c:	000d883a 	mov	r6,zero
   40c20:	01c00044 	movi	r7,1
   40c24:	9809883a 	mov	r4,r19
   40c28:	403ee83a 	callr	r8
   40c2c:	100d883a 	mov	r6,r2
   40c30:	00bfffc4 	movi	r2,-1
   40c34:	30801426 	beq	r6,r2,40c88 <__sflush_r+0x1e4>
   40c38:	8880030b 	ldhu	r2,12(r17)
   40c3c:	8a000a17 	ldw	r8,40(r17)
   40c40:	003fae06 	br	40afc <__alt_data_end+0xfffdb2fc>
   40c44:	98c00017 	ldw	r3,0(r19)
   40c48:	183fba26 	beq	r3,zero,40b34 <__alt_data_end+0xfffdb334>
   40c4c:	01000744 	movi	r4,29
   40c50:	19000626 	beq	r3,r4,40c6c <__sflush_r+0x1c8>
   40c54:	01000584 	movi	r4,22
   40c58:	19000426 	beq	r3,r4,40c6c <__sflush_r+0x1c8>
   40c5c:	88c0030b 	ldhu	r3,12(r17)
   40c60:	18c01014 	ori	r3,r3,64
   40c64:	88c0030d 	sth	r3,12(r17)
   40c68:	003fc306 	br	40b78 <__alt_data_end+0xfffdb378>
   40c6c:	8880030b 	ldhu	r2,12(r17)
   40c70:	88c00417 	ldw	r3,16(r17)
   40c74:	88000115 	stw	zero,4(r17)
   40c78:	10bdffcc 	andi	r2,r2,63487
   40c7c:	8880030d 	sth	r2,12(r17)
   40c80:	88c00015 	stw	r3,0(r17)
   40c84:	003fb306 	br	40b54 <__alt_data_end+0xfffdb354>
   40c88:	98800017 	ldw	r2,0(r19)
   40c8c:	103fea26 	beq	r2,zero,40c38 <__alt_data_end+0xfffdb438>
   40c90:	00c00744 	movi	r3,29
   40c94:	10c00226 	beq	r2,r3,40ca0 <__sflush_r+0x1fc>
   40c98:	00c00584 	movi	r3,22
   40c9c:	10c0031e 	bne	r2,r3,40cac <__sflush_r+0x208>
   40ca0:	9c000015 	stw	r16,0(r19)
   40ca4:	0005883a 	mov	r2,zero
   40ca8:	003fb306 	br	40b78 <__alt_data_end+0xfffdb378>
   40cac:	88c0030b 	ldhu	r3,12(r17)
   40cb0:	3005883a 	mov	r2,r6
   40cb4:	18c01014 	ori	r3,r3,64
   40cb8:	88c0030d 	sth	r3,12(r17)
   40cbc:	003fae06 	br	40b78 <__alt_data_end+0xfffdb378>

00040cc0 <_fflush_r>:
   40cc0:	defffd04 	addi	sp,sp,-12
   40cc4:	dc000115 	stw	r16,4(sp)
   40cc8:	dfc00215 	stw	ra,8(sp)
   40ccc:	2021883a 	mov	r16,r4
   40cd0:	20000226 	beq	r4,zero,40cdc <_fflush_r+0x1c>
   40cd4:	20800e17 	ldw	r2,56(r4)
   40cd8:	10000c26 	beq	r2,zero,40d0c <_fflush_r+0x4c>
   40cdc:	2880030f 	ldh	r2,12(r5)
   40ce0:	1000051e 	bne	r2,zero,40cf8 <_fflush_r+0x38>
   40ce4:	0005883a 	mov	r2,zero
   40ce8:	dfc00217 	ldw	ra,8(sp)
   40cec:	dc000117 	ldw	r16,4(sp)
   40cf0:	dec00304 	addi	sp,sp,12
   40cf4:	f800283a 	ret
   40cf8:	8009883a 	mov	r4,r16
   40cfc:	dfc00217 	ldw	ra,8(sp)
   40d00:	dc000117 	ldw	r16,4(sp)
   40d04:	dec00304 	addi	sp,sp,12
   40d08:	0040aa41 	jmpi	40aa4 <__sflush_r>
   40d0c:	d9400015 	stw	r5,0(sp)
   40d10:	00410ac0 	call	410ac <__sinit>
   40d14:	d9400017 	ldw	r5,0(sp)
   40d18:	003ff006 	br	40cdc <__alt_data_end+0xfffdb4dc>

00040d1c <fflush>:
   40d1c:	20000526 	beq	r4,zero,40d34 <fflush+0x18>
   40d20:	00800174 	movhi	r2,5
   40d24:	10bb8304 	addi	r2,r2,-4596
   40d28:	200b883a 	mov	r5,r4
   40d2c:	11000017 	ldw	r4,0(r2)
   40d30:	0040cc01 	jmpi	40cc0 <_fflush_r>
   40d34:	00800174 	movhi	r2,5
   40d38:	10bb8204 	addi	r2,r2,-4600
   40d3c:	11000017 	ldw	r4,0(r2)
   40d40:	01400134 	movhi	r5,4
   40d44:	29433004 	addi	r5,r5,3264
   40d48:	00415f41 	jmpi	415f4 <_fwalk_reent>

00040d4c <__fp_unlock>:
   40d4c:	0005883a 	mov	r2,zero
   40d50:	f800283a 	ret

00040d54 <_cleanup_r>:
   40d54:	01400134 	movhi	r5,4
   40d58:	2948fb04 	addi	r5,r5,9196
   40d5c:	00415f41 	jmpi	415f4 <_fwalk_reent>

00040d60 <__sinit.part.1>:
   40d60:	defff704 	addi	sp,sp,-36
   40d64:	00c00134 	movhi	r3,4
   40d68:	dfc00815 	stw	ra,32(sp)
   40d6c:	ddc00715 	stw	r23,28(sp)
   40d70:	dd800615 	stw	r22,24(sp)
   40d74:	dd400515 	stw	r21,20(sp)
   40d78:	dd000415 	stw	r20,16(sp)
   40d7c:	dcc00315 	stw	r19,12(sp)
   40d80:	dc800215 	stw	r18,8(sp)
   40d84:	dc400115 	stw	r17,4(sp)
   40d88:	dc000015 	stw	r16,0(sp)
   40d8c:	18c35504 	addi	r3,r3,3412
   40d90:	24000117 	ldw	r16,4(r4)
   40d94:	20c00f15 	stw	r3,60(r4)
   40d98:	2080bb04 	addi	r2,r4,748
   40d9c:	00c000c4 	movi	r3,3
   40da0:	20c0b915 	stw	r3,740(r4)
   40da4:	2080ba15 	stw	r2,744(r4)
   40da8:	2000b815 	stw	zero,736(r4)
   40dac:	05c00204 	movi	r23,8
   40db0:	00800104 	movi	r2,4
   40db4:	2025883a 	mov	r18,r4
   40db8:	b80d883a 	mov	r6,r23
   40dbc:	81001704 	addi	r4,r16,92
   40dc0:	000b883a 	mov	r5,zero
   40dc4:	80000015 	stw	zero,0(r16)
   40dc8:	80000115 	stw	zero,4(r16)
   40dcc:	80000215 	stw	zero,8(r16)
   40dd0:	8080030d 	sth	r2,12(r16)
   40dd4:	80001915 	stw	zero,100(r16)
   40dd8:	8000038d 	sth	zero,14(r16)
   40ddc:	80000415 	stw	zero,16(r16)
   40de0:	80000515 	stw	zero,20(r16)
   40de4:	80000615 	stw	zero,24(r16)
   40de8:	00420800 	call	42080 <memset>
   40dec:	05800134 	movhi	r22,4
   40df0:	94400217 	ldw	r17,8(r18)
   40df4:	05400134 	movhi	r21,4
   40df8:	05000134 	movhi	r20,4
   40dfc:	04c00134 	movhi	r19,4
   40e00:	b5887f04 	addi	r22,r22,8700
   40e04:	ad489604 	addi	r21,r21,8792
   40e08:	a508b504 	addi	r20,r20,8916
   40e0c:	9cc8cc04 	addi	r19,r19,9008
   40e10:	85800815 	stw	r22,32(r16)
   40e14:	85400915 	stw	r21,36(r16)
   40e18:	85000a15 	stw	r20,40(r16)
   40e1c:	84c00b15 	stw	r19,44(r16)
   40e20:	84000715 	stw	r16,28(r16)
   40e24:	00800284 	movi	r2,10
   40e28:	8880030d 	sth	r2,12(r17)
   40e2c:	00800044 	movi	r2,1
   40e30:	b80d883a 	mov	r6,r23
   40e34:	89001704 	addi	r4,r17,92
   40e38:	000b883a 	mov	r5,zero
   40e3c:	88000015 	stw	zero,0(r17)
   40e40:	88000115 	stw	zero,4(r17)
   40e44:	88000215 	stw	zero,8(r17)
   40e48:	88001915 	stw	zero,100(r17)
   40e4c:	8880038d 	sth	r2,14(r17)
   40e50:	88000415 	stw	zero,16(r17)
   40e54:	88000515 	stw	zero,20(r17)
   40e58:	88000615 	stw	zero,24(r17)
   40e5c:	00420800 	call	42080 <memset>
   40e60:	94000317 	ldw	r16,12(r18)
   40e64:	00800484 	movi	r2,18
   40e68:	8c400715 	stw	r17,28(r17)
   40e6c:	8d800815 	stw	r22,32(r17)
   40e70:	8d400915 	stw	r21,36(r17)
   40e74:	8d000a15 	stw	r20,40(r17)
   40e78:	8cc00b15 	stw	r19,44(r17)
   40e7c:	8080030d 	sth	r2,12(r16)
   40e80:	00800084 	movi	r2,2
   40e84:	80000015 	stw	zero,0(r16)
   40e88:	80000115 	stw	zero,4(r16)
   40e8c:	80000215 	stw	zero,8(r16)
   40e90:	80001915 	stw	zero,100(r16)
   40e94:	8080038d 	sth	r2,14(r16)
   40e98:	80000415 	stw	zero,16(r16)
   40e9c:	80000515 	stw	zero,20(r16)
   40ea0:	80000615 	stw	zero,24(r16)
   40ea4:	b80d883a 	mov	r6,r23
   40ea8:	000b883a 	mov	r5,zero
   40eac:	81001704 	addi	r4,r16,92
   40eb0:	00420800 	call	42080 <memset>
   40eb4:	00800044 	movi	r2,1
   40eb8:	84000715 	stw	r16,28(r16)
   40ebc:	85800815 	stw	r22,32(r16)
   40ec0:	85400915 	stw	r21,36(r16)
   40ec4:	85000a15 	stw	r20,40(r16)
   40ec8:	84c00b15 	stw	r19,44(r16)
   40ecc:	90800e15 	stw	r2,56(r18)
   40ed0:	dfc00817 	ldw	ra,32(sp)
   40ed4:	ddc00717 	ldw	r23,28(sp)
   40ed8:	dd800617 	ldw	r22,24(sp)
   40edc:	dd400517 	ldw	r21,20(sp)
   40ee0:	dd000417 	ldw	r20,16(sp)
   40ee4:	dcc00317 	ldw	r19,12(sp)
   40ee8:	dc800217 	ldw	r18,8(sp)
   40eec:	dc400117 	ldw	r17,4(sp)
   40ef0:	dc000017 	ldw	r16,0(sp)
   40ef4:	dec00904 	addi	sp,sp,36
   40ef8:	f800283a 	ret

00040efc <__fp_lock>:
   40efc:	0005883a 	mov	r2,zero
   40f00:	f800283a 	ret

00040f04 <__sfmoreglue>:
   40f04:	defffc04 	addi	sp,sp,-16
   40f08:	dc800215 	stw	r18,8(sp)
   40f0c:	2825883a 	mov	r18,r5
   40f10:	dc000015 	stw	r16,0(sp)
   40f14:	01401a04 	movi	r5,104
   40f18:	2021883a 	mov	r16,r4
   40f1c:	913fffc4 	addi	r4,r18,-1
   40f20:	dfc00315 	stw	ra,12(sp)
   40f24:	dc400115 	stw	r17,4(sp)
   40f28:	00426600 	call	42660 <__mulsi3>
   40f2c:	8009883a 	mov	r4,r16
   40f30:	11401d04 	addi	r5,r2,116
   40f34:	1023883a 	mov	r17,r2
   40f38:	00418740 	call	41874 <_malloc_r>
   40f3c:	1021883a 	mov	r16,r2
   40f40:	10000726 	beq	r2,zero,40f60 <__sfmoreglue+0x5c>
   40f44:	11000304 	addi	r4,r2,12
   40f48:	10000015 	stw	zero,0(r2)
   40f4c:	14800115 	stw	r18,4(r2)
   40f50:	11000215 	stw	r4,8(r2)
   40f54:	89801a04 	addi	r6,r17,104
   40f58:	000b883a 	mov	r5,zero
   40f5c:	00420800 	call	42080 <memset>
   40f60:	8005883a 	mov	r2,r16
   40f64:	dfc00317 	ldw	ra,12(sp)
   40f68:	dc800217 	ldw	r18,8(sp)
   40f6c:	dc400117 	ldw	r17,4(sp)
   40f70:	dc000017 	ldw	r16,0(sp)
   40f74:	dec00404 	addi	sp,sp,16
   40f78:	f800283a 	ret

00040f7c <__sfp>:
   40f7c:	defffb04 	addi	sp,sp,-20
   40f80:	dc000015 	stw	r16,0(sp)
   40f84:	04000174 	movhi	r16,5
   40f88:	843b8204 	addi	r16,r16,-4600
   40f8c:	dcc00315 	stw	r19,12(sp)
   40f90:	2027883a 	mov	r19,r4
   40f94:	81000017 	ldw	r4,0(r16)
   40f98:	dfc00415 	stw	ra,16(sp)
   40f9c:	dc800215 	stw	r18,8(sp)
   40fa0:	20800e17 	ldw	r2,56(r4)
   40fa4:	dc400115 	stw	r17,4(sp)
   40fa8:	1000021e 	bne	r2,zero,40fb4 <__sfp+0x38>
   40fac:	0040d600 	call	40d60 <__sinit.part.1>
   40fb0:	81000017 	ldw	r4,0(r16)
   40fb4:	2480b804 	addi	r18,r4,736
   40fb8:	047fffc4 	movi	r17,-1
   40fbc:	91000117 	ldw	r4,4(r18)
   40fc0:	94000217 	ldw	r16,8(r18)
   40fc4:	213fffc4 	addi	r4,r4,-1
   40fc8:	20000a16 	blt	r4,zero,40ff4 <__sfp+0x78>
   40fcc:	8080030f 	ldh	r2,12(r16)
   40fd0:	10000c26 	beq	r2,zero,41004 <__sfp+0x88>
   40fd4:	80c01d04 	addi	r3,r16,116
   40fd8:	00000206 	br	40fe4 <__sfp+0x68>
   40fdc:	18bfe60f 	ldh	r2,-104(r3)
   40fe0:	10000826 	beq	r2,zero,41004 <__sfp+0x88>
   40fe4:	213fffc4 	addi	r4,r4,-1
   40fe8:	1c3ffd04 	addi	r16,r3,-12
   40fec:	18c01a04 	addi	r3,r3,104
   40ff0:	247ffa1e 	bne	r4,r17,40fdc <__alt_data_end+0xfffdb7dc>
   40ff4:	90800017 	ldw	r2,0(r18)
   40ff8:	10001d26 	beq	r2,zero,41070 <__sfp+0xf4>
   40ffc:	1025883a 	mov	r18,r2
   41000:	003fee06 	br	40fbc <__alt_data_end+0xfffdb7bc>
   41004:	00bfffc4 	movi	r2,-1
   41008:	8080038d 	sth	r2,14(r16)
   4100c:	00800044 	movi	r2,1
   41010:	8080030d 	sth	r2,12(r16)
   41014:	80001915 	stw	zero,100(r16)
   41018:	80000015 	stw	zero,0(r16)
   4101c:	80000215 	stw	zero,8(r16)
   41020:	80000115 	stw	zero,4(r16)
   41024:	80000415 	stw	zero,16(r16)
   41028:	80000515 	stw	zero,20(r16)
   4102c:	80000615 	stw	zero,24(r16)
   41030:	01800204 	movi	r6,8
   41034:	000b883a 	mov	r5,zero
   41038:	81001704 	addi	r4,r16,92
   4103c:	00420800 	call	42080 <memset>
   41040:	8005883a 	mov	r2,r16
   41044:	80000c15 	stw	zero,48(r16)
   41048:	80000d15 	stw	zero,52(r16)
   4104c:	80001115 	stw	zero,68(r16)
   41050:	80001215 	stw	zero,72(r16)
   41054:	dfc00417 	ldw	ra,16(sp)
   41058:	dcc00317 	ldw	r19,12(sp)
   4105c:	dc800217 	ldw	r18,8(sp)
   41060:	dc400117 	ldw	r17,4(sp)
   41064:	dc000017 	ldw	r16,0(sp)
   41068:	dec00504 	addi	sp,sp,20
   4106c:	f800283a 	ret
   41070:	01400104 	movi	r5,4
   41074:	9809883a 	mov	r4,r19
   41078:	0040f040 	call	40f04 <__sfmoreglue>
   4107c:	90800015 	stw	r2,0(r18)
   41080:	103fde1e 	bne	r2,zero,40ffc <__alt_data_end+0xfffdb7fc>
   41084:	00800304 	movi	r2,12
   41088:	98800015 	stw	r2,0(r19)
   4108c:	0005883a 	mov	r2,zero
   41090:	003ff006 	br	41054 <__alt_data_end+0xfffdb854>

00041094 <_cleanup>:
   41094:	00800174 	movhi	r2,5
   41098:	10bb8204 	addi	r2,r2,-4600
   4109c:	11000017 	ldw	r4,0(r2)
   410a0:	01400134 	movhi	r5,4
   410a4:	2948fb04 	addi	r5,r5,9196
   410a8:	00415f41 	jmpi	415f4 <_fwalk_reent>

000410ac <__sinit>:
   410ac:	20800e17 	ldw	r2,56(r4)
   410b0:	10000126 	beq	r2,zero,410b8 <__sinit+0xc>
   410b4:	f800283a 	ret
   410b8:	0040d601 	jmpi	40d60 <__sinit.part.1>

000410bc <__sfp_lock_acquire>:
   410bc:	f800283a 	ret

000410c0 <__sfp_lock_release>:
   410c0:	f800283a 	ret

000410c4 <__sinit_lock_acquire>:
   410c4:	f800283a 	ret

000410c8 <__sinit_lock_release>:
   410c8:	f800283a 	ret

000410cc <__fp_lock_all>:
   410cc:	00800174 	movhi	r2,5
   410d0:	10bb8304 	addi	r2,r2,-4596
   410d4:	11000017 	ldw	r4,0(r2)
   410d8:	01400134 	movhi	r5,4
   410dc:	2943bf04 	addi	r5,r5,3836
   410e0:	00415301 	jmpi	41530 <_fwalk>

000410e4 <__fp_unlock_all>:
   410e4:	00800174 	movhi	r2,5
   410e8:	10bb8304 	addi	r2,r2,-4596
   410ec:	11000017 	ldw	r4,0(r2)
   410f0:	01400134 	movhi	r5,4
   410f4:	29435304 	addi	r5,r5,3404
   410f8:	00415301 	jmpi	41530 <_fwalk>

000410fc <_malloc_trim_r>:
   410fc:	defffb04 	addi	sp,sp,-20
   41100:	dcc00315 	stw	r19,12(sp)
   41104:	04c00174 	movhi	r19,5
   41108:	dc800215 	stw	r18,8(sp)
   4110c:	dc400115 	stw	r17,4(sp)
   41110:	dc000015 	stw	r16,0(sp)
   41114:	dfc00415 	stw	ra,16(sp)
   41118:	2821883a 	mov	r16,r5
   4111c:	9cf5fb04 	addi	r19,r19,-10260
   41120:	2025883a 	mov	r18,r4
   41124:	00433d80 	call	433d8 <__malloc_lock>
   41128:	98800217 	ldw	r2,8(r19)
   4112c:	14400117 	ldw	r17,4(r2)
   41130:	00bfff04 	movi	r2,-4
   41134:	88a2703a 	and	r17,r17,r2
   41138:	8c21c83a 	sub	r16,r17,r16
   4113c:	8403fbc4 	addi	r16,r16,4079
   41140:	8020d33a 	srli	r16,r16,12
   41144:	0083ffc4 	movi	r2,4095
   41148:	843fffc4 	addi	r16,r16,-1
   4114c:	8020933a 	slli	r16,r16,12
   41150:	1400060e 	bge	r2,r16,4116c <_malloc_trim_r+0x70>
   41154:	000b883a 	mov	r5,zero
   41158:	9009883a 	mov	r4,r18
   4115c:	00421a80 	call	421a8 <_sbrk_r>
   41160:	98c00217 	ldw	r3,8(r19)
   41164:	1c47883a 	add	r3,r3,r17
   41168:	10c00a26 	beq	r2,r3,41194 <_malloc_trim_r+0x98>
   4116c:	9009883a 	mov	r4,r18
   41170:	00434f80 	call	434f8 <__malloc_unlock>
   41174:	0005883a 	mov	r2,zero
   41178:	dfc00417 	ldw	ra,16(sp)
   4117c:	dcc00317 	ldw	r19,12(sp)
   41180:	dc800217 	ldw	r18,8(sp)
   41184:	dc400117 	ldw	r17,4(sp)
   41188:	dc000017 	ldw	r16,0(sp)
   4118c:	dec00504 	addi	sp,sp,20
   41190:	f800283a 	ret
   41194:	040bc83a 	sub	r5,zero,r16
   41198:	9009883a 	mov	r4,r18
   4119c:	00421a80 	call	421a8 <_sbrk_r>
   411a0:	00ffffc4 	movi	r3,-1
   411a4:	10c00d26 	beq	r2,r3,411dc <_malloc_trim_r+0xe0>
   411a8:	00c00174 	movhi	r3,5
   411ac:	18c29304 	addi	r3,r3,2636
   411b0:	18800017 	ldw	r2,0(r3)
   411b4:	99000217 	ldw	r4,8(r19)
   411b8:	8c23c83a 	sub	r17,r17,r16
   411bc:	8c400054 	ori	r17,r17,1
   411c0:	1421c83a 	sub	r16,r2,r16
   411c4:	24400115 	stw	r17,4(r4)
   411c8:	9009883a 	mov	r4,r18
   411cc:	1c000015 	stw	r16,0(r3)
   411d0:	00434f80 	call	434f8 <__malloc_unlock>
   411d4:	00800044 	movi	r2,1
   411d8:	003fe706 	br	41178 <__alt_data_end+0xfffdb978>
   411dc:	000b883a 	mov	r5,zero
   411e0:	9009883a 	mov	r4,r18
   411e4:	00421a80 	call	421a8 <_sbrk_r>
   411e8:	99000217 	ldw	r4,8(r19)
   411ec:	014003c4 	movi	r5,15
   411f0:	1107c83a 	sub	r3,r2,r4
   411f4:	28ffdd0e 	bge	r5,r3,4116c <__alt_data_end+0xfffdb96c>
   411f8:	01400174 	movhi	r5,5
   411fc:	297b8404 	addi	r5,r5,-4592
   41200:	29400017 	ldw	r5,0(r5)
   41204:	18c00054 	ori	r3,r3,1
   41208:	20c00115 	stw	r3,4(r4)
   4120c:	00c00174 	movhi	r3,5
   41210:	1145c83a 	sub	r2,r2,r5
   41214:	18c29304 	addi	r3,r3,2636
   41218:	18800015 	stw	r2,0(r3)
   4121c:	003fd306 	br	4116c <__alt_data_end+0xfffdb96c>

00041220 <_free_r>:
   41220:	28004126 	beq	r5,zero,41328 <_free_r+0x108>
   41224:	defffd04 	addi	sp,sp,-12
   41228:	dc400115 	stw	r17,4(sp)
   4122c:	dc000015 	stw	r16,0(sp)
   41230:	2023883a 	mov	r17,r4
   41234:	2821883a 	mov	r16,r5
   41238:	dfc00215 	stw	ra,8(sp)
   4123c:	00433d80 	call	433d8 <__malloc_lock>
   41240:	81ffff17 	ldw	r7,-4(r16)
   41244:	00bfff84 	movi	r2,-2
   41248:	01000174 	movhi	r4,5
   4124c:	81bffe04 	addi	r6,r16,-8
   41250:	3884703a 	and	r2,r7,r2
   41254:	2135fb04 	addi	r4,r4,-10260
   41258:	308b883a 	add	r5,r6,r2
   4125c:	2a400117 	ldw	r9,4(r5)
   41260:	22000217 	ldw	r8,8(r4)
   41264:	00ffff04 	movi	r3,-4
   41268:	48c6703a 	and	r3,r9,r3
   4126c:	2a005726 	beq	r5,r8,413cc <_free_r+0x1ac>
   41270:	28c00115 	stw	r3,4(r5)
   41274:	39c0004c 	andi	r7,r7,1
   41278:	3800091e 	bne	r7,zero,412a0 <_free_r+0x80>
   4127c:	823ffe17 	ldw	r8,-8(r16)
   41280:	22400204 	addi	r9,r4,8
   41284:	320dc83a 	sub	r6,r6,r8
   41288:	31c00217 	ldw	r7,8(r6)
   4128c:	1205883a 	add	r2,r2,r8
   41290:	3a406526 	beq	r7,r9,41428 <_free_r+0x208>
   41294:	32000317 	ldw	r8,12(r6)
   41298:	3a000315 	stw	r8,12(r7)
   4129c:	41c00215 	stw	r7,8(r8)
   412a0:	28cf883a 	add	r7,r5,r3
   412a4:	39c00117 	ldw	r7,4(r7)
   412a8:	39c0004c 	andi	r7,r7,1
   412ac:	38003a26 	beq	r7,zero,41398 <_free_r+0x178>
   412b0:	10c00054 	ori	r3,r2,1
   412b4:	30c00115 	stw	r3,4(r6)
   412b8:	3087883a 	add	r3,r6,r2
   412bc:	18800015 	stw	r2,0(r3)
   412c0:	00c07fc4 	movi	r3,511
   412c4:	18801936 	bltu	r3,r2,4132c <_free_r+0x10c>
   412c8:	1004d0fa 	srli	r2,r2,3
   412cc:	01c00044 	movi	r7,1
   412d0:	21400117 	ldw	r5,4(r4)
   412d4:	10c00044 	addi	r3,r2,1
   412d8:	18c7883a 	add	r3,r3,r3
   412dc:	1005d0ba 	srai	r2,r2,2
   412e0:	18c7883a 	add	r3,r3,r3
   412e4:	18c7883a 	add	r3,r3,r3
   412e8:	1907883a 	add	r3,r3,r4
   412ec:	3884983a 	sll	r2,r7,r2
   412f0:	19c00017 	ldw	r7,0(r3)
   412f4:	1a3ffe04 	addi	r8,r3,-8
   412f8:	1144b03a 	or	r2,r2,r5
   412fc:	32000315 	stw	r8,12(r6)
   41300:	31c00215 	stw	r7,8(r6)
   41304:	20800115 	stw	r2,4(r4)
   41308:	19800015 	stw	r6,0(r3)
   4130c:	39800315 	stw	r6,12(r7)
   41310:	8809883a 	mov	r4,r17
   41314:	dfc00217 	ldw	ra,8(sp)
   41318:	dc400117 	ldw	r17,4(sp)
   4131c:	dc000017 	ldw	r16,0(sp)
   41320:	dec00304 	addi	sp,sp,12
   41324:	00434f81 	jmpi	434f8 <__malloc_unlock>
   41328:	f800283a 	ret
   4132c:	100ad27a 	srli	r5,r2,9
   41330:	00c00104 	movi	r3,4
   41334:	19404a36 	bltu	r3,r5,41460 <_free_r+0x240>
   41338:	100ad1ba 	srli	r5,r2,6
   4133c:	28c00e44 	addi	r3,r5,57
   41340:	18c7883a 	add	r3,r3,r3
   41344:	29400e04 	addi	r5,r5,56
   41348:	18c7883a 	add	r3,r3,r3
   4134c:	18c7883a 	add	r3,r3,r3
   41350:	1909883a 	add	r4,r3,r4
   41354:	20c00017 	ldw	r3,0(r4)
   41358:	01c00174 	movhi	r7,5
   4135c:	213ffe04 	addi	r4,r4,-8
   41360:	39f5fb04 	addi	r7,r7,-10260
   41364:	20c04426 	beq	r4,r3,41478 <_free_r+0x258>
   41368:	01ffff04 	movi	r7,-4
   4136c:	19400117 	ldw	r5,4(r3)
   41370:	29ca703a 	and	r5,r5,r7
   41374:	1140022e 	bgeu	r2,r5,41380 <_free_r+0x160>
   41378:	18c00217 	ldw	r3,8(r3)
   4137c:	20fffb1e 	bne	r4,r3,4136c <__alt_data_end+0xfffdbb6c>
   41380:	19000317 	ldw	r4,12(r3)
   41384:	31000315 	stw	r4,12(r6)
   41388:	30c00215 	stw	r3,8(r6)
   4138c:	21800215 	stw	r6,8(r4)
   41390:	19800315 	stw	r6,12(r3)
   41394:	003fde06 	br	41310 <__alt_data_end+0xfffdbb10>
   41398:	29c00217 	ldw	r7,8(r5)
   4139c:	10c5883a 	add	r2,r2,r3
   413a0:	00c00174 	movhi	r3,5
   413a4:	18f5fd04 	addi	r3,r3,-10252
   413a8:	38c03b26 	beq	r7,r3,41498 <_free_r+0x278>
   413ac:	2a000317 	ldw	r8,12(r5)
   413b0:	11400054 	ori	r5,r2,1
   413b4:	3087883a 	add	r3,r6,r2
   413b8:	3a000315 	stw	r8,12(r7)
   413bc:	41c00215 	stw	r7,8(r8)
   413c0:	31400115 	stw	r5,4(r6)
   413c4:	18800015 	stw	r2,0(r3)
   413c8:	003fbd06 	br	412c0 <__alt_data_end+0xfffdbac0>
   413cc:	39c0004c 	andi	r7,r7,1
   413d0:	10c5883a 	add	r2,r2,r3
   413d4:	3800071e 	bne	r7,zero,413f4 <_free_r+0x1d4>
   413d8:	81fffe17 	ldw	r7,-8(r16)
   413dc:	31cdc83a 	sub	r6,r6,r7
   413e0:	30c00317 	ldw	r3,12(r6)
   413e4:	31400217 	ldw	r5,8(r6)
   413e8:	11c5883a 	add	r2,r2,r7
   413ec:	28c00315 	stw	r3,12(r5)
   413f0:	19400215 	stw	r5,8(r3)
   413f4:	10c00054 	ori	r3,r2,1
   413f8:	30c00115 	stw	r3,4(r6)
   413fc:	00c00174 	movhi	r3,5
   41400:	18fb8504 	addi	r3,r3,-4588
   41404:	18c00017 	ldw	r3,0(r3)
   41408:	21800215 	stw	r6,8(r4)
   4140c:	10ffc036 	bltu	r2,r3,41310 <__alt_data_end+0xfffdbb10>
   41410:	00800174 	movhi	r2,5
   41414:	10827104 	addi	r2,r2,2500
   41418:	11400017 	ldw	r5,0(r2)
   4141c:	8809883a 	mov	r4,r17
   41420:	00410fc0 	call	410fc <_malloc_trim_r>
   41424:	003fba06 	br	41310 <__alt_data_end+0xfffdbb10>
   41428:	28c9883a 	add	r4,r5,r3
   4142c:	21000117 	ldw	r4,4(r4)
   41430:	2100004c 	andi	r4,r4,1
   41434:	2000391e 	bne	r4,zero,4151c <_free_r+0x2fc>
   41438:	29c00217 	ldw	r7,8(r5)
   4143c:	29000317 	ldw	r4,12(r5)
   41440:	1885883a 	add	r2,r3,r2
   41444:	10c00054 	ori	r3,r2,1
   41448:	39000315 	stw	r4,12(r7)
   4144c:	21c00215 	stw	r7,8(r4)
   41450:	30c00115 	stw	r3,4(r6)
   41454:	308d883a 	add	r6,r6,r2
   41458:	30800015 	stw	r2,0(r6)
   4145c:	003fac06 	br	41310 <__alt_data_end+0xfffdbb10>
   41460:	00c00504 	movi	r3,20
   41464:	19401536 	bltu	r3,r5,414bc <_free_r+0x29c>
   41468:	28c01704 	addi	r3,r5,92
   4146c:	18c7883a 	add	r3,r3,r3
   41470:	294016c4 	addi	r5,r5,91
   41474:	003fb406 	br	41348 <__alt_data_end+0xfffdbb48>
   41478:	280bd0ba 	srai	r5,r5,2
   4147c:	00c00044 	movi	r3,1
   41480:	38800117 	ldw	r2,4(r7)
   41484:	194a983a 	sll	r5,r3,r5
   41488:	2007883a 	mov	r3,r4
   4148c:	2884b03a 	or	r2,r5,r2
   41490:	38800115 	stw	r2,4(r7)
   41494:	003fbb06 	br	41384 <__alt_data_end+0xfffdbb84>
   41498:	21800515 	stw	r6,20(r4)
   4149c:	21800415 	stw	r6,16(r4)
   414a0:	10c00054 	ori	r3,r2,1
   414a4:	31c00315 	stw	r7,12(r6)
   414a8:	31c00215 	stw	r7,8(r6)
   414ac:	30c00115 	stw	r3,4(r6)
   414b0:	308d883a 	add	r6,r6,r2
   414b4:	30800015 	stw	r2,0(r6)
   414b8:	003f9506 	br	41310 <__alt_data_end+0xfffdbb10>
   414bc:	00c01504 	movi	r3,84
   414c0:	19400536 	bltu	r3,r5,414d8 <_free_r+0x2b8>
   414c4:	100ad33a 	srli	r5,r2,12
   414c8:	28c01bc4 	addi	r3,r5,111
   414cc:	18c7883a 	add	r3,r3,r3
   414d0:	29401b84 	addi	r5,r5,110
   414d4:	003f9c06 	br	41348 <__alt_data_end+0xfffdbb48>
   414d8:	00c05504 	movi	r3,340
   414dc:	19400536 	bltu	r3,r5,414f4 <_free_r+0x2d4>
   414e0:	100ad3fa 	srli	r5,r2,15
   414e4:	28c01e04 	addi	r3,r5,120
   414e8:	18c7883a 	add	r3,r3,r3
   414ec:	29401dc4 	addi	r5,r5,119
   414f0:	003f9506 	br	41348 <__alt_data_end+0xfffdbb48>
   414f4:	00c15504 	movi	r3,1364
   414f8:	19400536 	bltu	r3,r5,41510 <_free_r+0x2f0>
   414fc:	100ad4ba 	srli	r5,r2,18
   41500:	28c01f44 	addi	r3,r5,125
   41504:	18c7883a 	add	r3,r3,r3
   41508:	29401f04 	addi	r5,r5,124
   4150c:	003f8e06 	br	41348 <__alt_data_end+0xfffdbb48>
   41510:	00c03f84 	movi	r3,254
   41514:	01401f84 	movi	r5,126
   41518:	003f8b06 	br	41348 <__alt_data_end+0xfffdbb48>
   4151c:	10c00054 	ori	r3,r2,1
   41520:	30c00115 	stw	r3,4(r6)
   41524:	308d883a 	add	r6,r6,r2
   41528:	30800015 	stw	r2,0(r6)
   4152c:	003f7806 	br	41310 <__alt_data_end+0xfffdbb10>

00041530 <_fwalk>:
   41530:	defff704 	addi	sp,sp,-36
   41534:	dd000415 	stw	r20,16(sp)
   41538:	dfc00815 	stw	ra,32(sp)
   4153c:	ddc00715 	stw	r23,28(sp)
   41540:	dd800615 	stw	r22,24(sp)
   41544:	dd400515 	stw	r21,20(sp)
   41548:	dcc00315 	stw	r19,12(sp)
   4154c:	dc800215 	stw	r18,8(sp)
   41550:	dc400115 	stw	r17,4(sp)
   41554:	dc000015 	stw	r16,0(sp)
   41558:	2500b804 	addi	r20,r4,736
   4155c:	a0002326 	beq	r20,zero,415ec <_fwalk+0xbc>
   41560:	282b883a 	mov	r21,r5
   41564:	002f883a 	mov	r23,zero
   41568:	05800044 	movi	r22,1
   4156c:	04ffffc4 	movi	r19,-1
   41570:	a4400117 	ldw	r17,4(r20)
   41574:	a4800217 	ldw	r18,8(r20)
   41578:	8c7fffc4 	addi	r17,r17,-1
   4157c:	88000d16 	blt	r17,zero,415b4 <_fwalk+0x84>
   41580:	94000304 	addi	r16,r18,12
   41584:	94800384 	addi	r18,r18,14
   41588:	8080000b 	ldhu	r2,0(r16)
   4158c:	8c7fffc4 	addi	r17,r17,-1
   41590:	813ffd04 	addi	r4,r16,-12
   41594:	b080042e 	bgeu	r22,r2,415a8 <_fwalk+0x78>
   41598:	9080000f 	ldh	r2,0(r18)
   4159c:	14c00226 	beq	r2,r19,415a8 <_fwalk+0x78>
   415a0:	a83ee83a 	callr	r21
   415a4:	b8aeb03a 	or	r23,r23,r2
   415a8:	84001a04 	addi	r16,r16,104
   415ac:	94801a04 	addi	r18,r18,104
   415b0:	8cfff51e 	bne	r17,r19,41588 <__alt_data_end+0xfffdbd88>
   415b4:	a5000017 	ldw	r20,0(r20)
   415b8:	a03fed1e 	bne	r20,zero,41570 <__alt_data_end+0xfffdbd70>
   415bc:	b805883a 	mov	r2,r23
   415c0:	dfc00817 	ldw	ra,32(sp)
   415c4:	ddc00717 	ldw	r23,28(sp)
   415c8:	dd800617 	ldw	r22,24(sp)
   415cc:	dd400517 	ldw	r21,20(sp)
   415d0:	dd000417 	ldw	r20,16(sp)
   415d4:	dcc00317 	ldw	r19,12(sp)
   415d8:	dc800217 	ldw	r18,8(sp)
   415dc:	dc400117 	ldw	r17,4(sp)
   415e0:	dc000017 	ldw	r16,0(sp)
   415e4:	dec00904 	addi	sp,sp,36
   415e8:	f800283a 	ret
   415ec:	002f883a 	mov	r23,zero
   415f0:	003ff206 	br	415bc <__alt_data_end+0xfffdbdbc>

000415f4 <_fwalk_reent>:
   415f4:	defff704 	addi	sp,sp,-36
   415f8:	dd000415 	stw	r20,16(sp)
   415fc:	dfc00815 	stw	ra,32(sp)
   41600:	ddc00715 	stw	r23,28(sp)
   41604:	dd800615 	stw	r22,24(sp)
   41608:	dd400515 	stw	r21,20(sp)
   4160c:	dcc00315 	stw	r19,12(sp)
   41610:	dc800215 	stw	r18,8(sp)
   41614:	dc400115 	stw	r17,4(sp)
   41618:	dc000015 	stw	r16,0(sp)
   4161c:	2500b804 	addi	r20,r4,736
   41620:	a0002326 	beq	r20,zero,416b0 <_fwalk_reent+0xbc>
   41624:	282b883a 	mov	r21,r5
   41628:	2027883a 	mov	r19,r4
   4162c:	002f883a 	mov	r23,zero
   41630:	05800044 	movi	r22,1
   41634:	04bfffc4 	movi	r18,-1
   41638:	a4400117 	ldw	r17,4(r20)
   4163c:	a4000217 	ldw	r16,8(r20)
   41640:	8c7fffc4 	addi	r17,r17,-1
   41644:	88000c16 	blt	r17,zero,41678 <_fwalk_reent+0x84>
   41648:	84000304 	addi	r16,r16,12
   4164c:	8080000b 	ldhu	r2,0(r16)
   41650:	8c7fffc4 	addi	r17,r17,-1
   41654:	817ffd04 	addi	r5,r16,-12
   41658:	b080052e 	bgeu	r22,r2,41670 <_fwalk_reent+0x7c>
   4165c:	8080008f 	ldh	r2,2(r16)
   41660:	9809883a 	mov	r4,r19
   41664:	14800226 	beq	r2,r18,41670 <_fwalk_reent+0x7c>
   41668:	a83ee83a 	callr	r21
   4166c:	b8aeb03a 	or	r23,r23,r2
   41670:	84001a04 	addi	r16,r16,104
   41674:	8cbff51e 	bne	r17,r18,4164c <__alt_data_end+0xfffdbe4c>
   41678:	a5000017 	ldw	r20,0(r20)
   4167c:	a03fee1e 	bne	r20,zero,41638 <__alt_data_end+0xfffdbe38>
   41680:	b805883a 	mov	r2,r23
   41684:	dfc00817 	ldw	ra,32(sp)
   41688:	ddc00717 	ldw	r23,28(sp)
   4168c:	dd800617 	ldw	r22,24(sp)
   41690:	dd400517 	ldw	r21,20(sp)
   41694:	dd000417 	ldw	r20,16(sp)
   41698:	dcc00317 	ldw	r19,12(sp)
   4169c:	dc800217 	ldw	r18,8(sp)
   416a0:	dc400117 	ldw	r17,4(sp)
   416a4:	dc000017 	ldw	r16,0(sp)
   416a8:	dec00904 	addi	sp,sp,36
   416ac:	f800283a 	ret
   416b0:	002f883a 	mov	r23,zero
   416b4:	003ff206 	br	41680 <__alt_data_end+0xfffdbe80>

000416b8 <__smakebuf_r>:
   416b8:	2880030b 	ldhu	r2,12(r5)
   416bc:	10c0008c 	andi	r3,r2,2
   416c0:	1800411e 	bne	r3,zero,417c8 <__smakebuf_r+0x110>
   416c4:	deffec04 	addi	sp,sp,-80
   416c8:	dc000f15 	stw	r16,60(sp)
   416cc:	2821883a 	mov	r16,r5
   416d0:	2940038f 	ldh	r5,14(r5)
   416d4:	dc401015 	stw	r17,64(sp)
   416d8:	dfc01315 	stw	ra,76(sp)
   416dc:	dcc01215 	stw	r19,72(sp)
   416e0:	dc801115 	stw	r18,68(sp)
   416e4:	2023883a 	mov	r17,r4
   416e8:	28001c16 	blt	r5,zero,4175c <__smakebuf_r+0xa4>
   416ec:	d80d883a 	mov	r6,sp
   416f0:	00424f00 	call	424f0 <_fstat_r>
   416f4:	10001816 	blt	r2,zero,41758 <__smakebuf_r+0xa0>
   416f8:	d8800117 	ldw	r2,4(sp)
   416fc:	00e00014 	movui	r3,32768
   41700:	10bc000c 	andi	r2,r2,61440
   41704:	14c80020 	cmpeqi	r19,r2,8192
   41708:	10c03726 	beq	r2,r3,417e8 <__smakebuf_r+0x130>
   4170c:	80c0030b 	ldhu	r3,12(r16)
   41710:	18c20014 	ori	r3,r3,2048
   41714:	80c0030d 	sth	r3,12(r16)
   41718:	00c80004 	movi	r3,8192
   4171c:	10c0521e 	bne	r2,r3,41868 <__smakebuf_r+0x1b0>
   41720:	8140038f 	ldh	r5,14(r16)
   41724:	8809883a 	mov	r4,r17
   41728:	004254c0 	call	4254c <_isatty_r>
   4172c:	10004c26 	beq	r2,zero,41860 <__smakebuf_r+0x1a8>
   41730:	8080030b 	ldhu	r2,12(r16)
   41734:	80c010c4 	addi	r3,r16,67
   41738:	80c00015 	stw	r3,0(r16)
   4173c:	10800054 	ori	r2,r2,1
   41740:	8080030d 	sth	r2,12(r16)
   41744:	00800044 	movi	r2,1
   41748:	80c00415 	stw	r3,16(r16)
   4174c:	80800515 	stw	r2,20(r16)
   41750:	04810004 	movi	r18,1024
   41754:	00000706 	br	41774 <__smakebuf_r+0xbc>
   41758:	8080030b 	ldhu	r2,12(r16)
   4175c:	10c0200c 	andi	r3,r2,128
   41760:	18001f1e 	bne	r3,zero,417e0 <__smakebuf_r+0x128>
   41764:	04810004 	movi	r18,1024
   41768:	10820014 	ori	r2,r2,2048
   4176c:	8080030d 	sth	r2,12(r16)
   41770:	0027883a 	mov	r19,zero
   41774:	900b883a 	mov	r5,r18
   41778:	8809883a 	mov	r4,r17
   4177c:	00418740 	call	41874 <_malloc_r>
   41780:	10002c26 	beq	r2,zero,41834 <__smakebuf_r+0x17c>
   41784:	80c0030b 	ldhu	r3,12(r16)
   41788:	01000134 	movhi	r4,4
   4178c:	21035504 	addi	r4,r4,3412
   41790:	89000f15 	stw	r4,60(r17)
   41794:	18c02014 	ori	r3,r3,128
   41798:	80c0030d 	sth	r3,12(r16)
   4179c:	80800015 	stw	r2,0(r16)
   417a0:	80800415 	stw	r2,16(r16)
   417a4:	84800515 	stw	r18,20(r16)
   417a8:	98001a1e 	bne	r19,zero,41814 <__smakebuf_r+0x15c>
   417ac:	dfc01317 	ldw	ra,76(sp)
   417b0:	dcc01217 	ldw	r19,72(sp)
   417b4:	dc801117 	ldw	r18,68(sp)
   417b8:	dc401017 	ldw	r17,64(sp)
   417bc:	dc000f17 	ldw	r16,60(sp)
   417c0:	dec01404 	addi	sp,sp,80
   417c4:	f800283a 	ret
   417c8:	288010c4 	addi	r2,r5,67
   417cc:	28800015 	stw	r2,0(r5)
   417d0:	28800415 	stw	r2,16(r5)
   417d4:	00800044 	movi	r2,1
   417d8:	28800515 	stw	r2,20(r5)
   417dc:	f800283a 	ret
   417e0:	04801004 	movi	r18,64
   417e4:	003fe006 	br	41768 <__alt_data_end+0xfffdbf68>
   417e8:	81000a17 	ldw	r4,40(r16)
   417ec:	00c00134 	movhi	r3,4
   417f0:	18c8b504 	addi	r3,r3,8916
   417f4:	20ffc51e 	bne	r4,r3,4170c <__alt_data_end+0xfffdbf0c>
   417f8:	8080030b 	ldhu	r2,12(r16)
   417fc:	04810004 	movi	r18,1024
   41800:	84801315 	stw	r18,76(r16)
   41804:	1484b03a 	or	r2,r2,r18
   41808:	8080030d 	sth	r2,12(r16)
   4180c:	0027883a 	mov	r19,zero
   41810:	003fd806 	br	41774 <__alt_data_end+0xfffdbf74>
   41814:	8140038f 	ldh	r5,14(r16)
   41818:	8809883a 	mov	r4,r17
   4181c:	004254c0 	call	4254c <_isatty_r>
   41820:	103fe226 	beq	r2,zero,417ac <__alt_data_end+0xfffdbfac>
   41824:	8080030b 	ldhu	r2,12(r16)
   41828:	10800054 	ori	r2,r2,1
   4182c:	8080030d 	sth	r2,12(r16)
   41830:	003fde06 	br	417ac <__alt_data_end+0xfffdbfac>
   41834:	8080030b 	ldhu	r2,12(r16)
   41838:	10c0800c 	andi	r3,r2,512
   4183c:	183fdb1e 	bne	r3,zero,417ac <__alt_data_end+0xfffdbfac>
   41840:	10800094 	ori	r2,r2,2
   41844:	80c010c4 	addi	r3,r16,67
   41848:	8080030d 	sth	r2,12(r16)
   4184c:	00800044 	movi	r2,1
   41850:	80c00015 	stw	r3,0(r16)
   41854:	80c00415 	stw	r3,16(r16)
   41858:	80800515 	stw	r2,20(r16)
   4185c:	003fd306 	br	417ac <__alt_data_end+0xfffdbfac>
   41860:	04810004 	movi	r18,1024
   41864:	003fc306 	br	41774 <__alt_data_end+0xfffdbf74>
   41868:	0027883a 	mov	r19,zero
   4186c:	04810004 	movi	r18,1024
   41870:	003fc006 	br	41774 <__alt_data_end+0xfffdbf74>

00041874 <_malloc_r>:
   41874:	defff504 	addi	sp,sp,-44
   41878:	dc800315 	stw	r18,12(sp)
   4187c:	dfc00a15 	stw	ra,40(sp)
   41880:	df000915 	stw	fp,36(sp)
   41884:	ddc00815 	stw	r23,32(sp)
   41888:	dd800715 	stw	r22,28(sp)
   4188c:	dd400615 	stw	r21,24(sp)
   41890:	dd000515 	stw	r20,20(sp)
   41894:	dcc00415 	stw	r19,16(sp)
   41898:	dc400215 	stw	r17,8(sp)
   4189c:	dc000115 	stw	r16,4(sp)
   418a0:	288002c4 	addi	r2,r5,11
   418a4:	00c00584 	movi	r3,22
   418a8:	2025883a 	mov	r18,r4
   418ac:	18807f2e 	bgeu	r3,r2,41aac <_malloc_r+0x238>
   418b0:	047ffe04 	movi	r17,-8
   418b4:	1462703a 	and	r17,r2,r17
   418b8:	8800a316 	blt	r17,zero,41b48 <_malloc_r+0x2d4>
   418bc:	8940a236 	bltu	r17,r5,41b48 <_malloc_r+0x2d4>
   418c0:	00433d80 	call	433d8 <__malloc_lock>
   418c4:	00807dc4 	movi	r2,503
   418c8:	1441e92e 	bgeu	r2,r17,42070 <_malloc_r+0x7fc>
   418cc:	8804d27a 	srli	r2,r17,9
   418d0:	1000a126 	beq	r2,zero,41b58 <_malloc_r+0x2e4>
   418d4:	00c00104 	movi	r3,4
   418d8:	18811e36 	bltu	r3,r2,41d54 <_malloc_r+0x4e0>
   418dc:	8804d1ba 	srli	r2,r17,6
   418e0:	12000e44 	addi	r8,r2,57
   418e4:	11c00e04 	addi	r7,r2,56
   418e8:	4209883a 	add	r4,r8,r8
   418ec:	04c00174 	movhi	r19,5
   418f0:	2109883a 	add	r4,r4,r4
   418f4:	9cf5fb04 	addi	r19,r19,-10260
   418f8:	2109883a 	add	r4,r4,r4
   418fc:	9909883a 	add	r4,r19,r4
   41900:	24000117 	ldw	r16,4(r4)
   41904:	213ffe04 	addi	r4,r4,-8
   41908:	24009726 	beq	r4,r16,41b68 <_malloc_r+0x2f4>
   4190c:	80800117 	ldw	r2,4(r16)
   41910:	01bfff04 	movi	r6,-4
   41914:	014003c4 	movi	r5,15
   41918:	1184703a 	and	r2,r2,r6
   4191c:	1447c83a 	sub	r3,r2,r17
   41920:	28c00716 	blt	r5,r3,41940 <_malloc_r+0xcc>
   41924:	1800920e 	bge	r3,zero,41b70 <_malloc_r+0x2fc>
   41928:	84000317 	ldw	r16,12(r16)
   4192c:	24008e26 	beq	r4,r16,41b68 <_malloc_r+0x2f4>
   41930:	80800117 	ldw	r2,4(r16)
   41934:	1184703a 	and	r2,r2,r6
   41938:	1447c83a 	sub	r3,r2,r17
   4193c:	28fff90e 	bge	r5,r3,41924 <__alt_data_end+0xfffdc124>
   41940:	3809883a 	mov	r4,r7
   41944:	01800174 	movhi	r6,5
   41948:	9c000417 	ldw	r16,16(r19)
   4194c:	31b5fb04 	addi	r6,r6,-10260
   41950:	32000204 	addi	r8,r6,8
   41954:	82013426 	beq	r16,r8,41e28 <_malloc_r+0x5b4>
   41958:	80c00117 	ldw	r3,4(r16)
   4195c:	00bfff04 	movi	r2,-4
   41960:	188e703a 	and	r7,r3,r2
   41964:	3c45c83a 	sub	r2,r7,r17
   41968:	00c003c4 	movi	r3,15
   4196c:	18811f16 	blt	r3,r2,41dec <_malloc_r+0x578>
   41970:	32000515 	stw	r8,20(r6)
   41974:	32000415 	stw	r8,16(r6)
   41978:	10007f0e 	bge	r2,zero,41b78 <_malloc_r+0x304>
   4197c:	00807fc4 	movi	r2,511
   41980:	11c0fd36 	bltu	r2,r7,41d78 <_malloc_r+0x504>
   41984:	3806d0fa 	srli	r3,r7,3
   41988:	01c00044 	movi	r7,1
   4198c:	30800117 	ldw	r2,4(r6)
   41990:	19400044 	addi	r5,r3,1
   41994:	294b883a 	add	r5,r5,r5
   41998:	1807d0ba 	srai	r3,r3,2
   4199c:	294b883a 	add	r5,r5,r5
   419a0:	294b883a 	add	r5,r5,r5
   419a4:	298b883a 	add	r5,r5,r6
   419a8:	38c6983a 	sll	r3,r7,r3
   419ac:	29c00017 	ldw	r7,0(r5)
   419b0:	2a7ffe04 	addi	r9,r5,-8
   419b4:	1886b03a 	or	r3,r3,r2
   419b8:	82400315 	stw	r9,12(r16)
   419bc:	81c00215 	stw	r7,8(r16)
   419c0:	30c00115 	stw	r3,4(r6)
   419c4:	2c000015 	stw	r16,0(r5)
   419c8:	3c000315 	stw	r16,12(r7)
   419cc:	2005d0ba 	srai	r2,r4,2
   419d0:	01400044 	movi	r5,1
   419d4:	288a983a 	sll	r5,r5,r2
   419d8:	19406f36 	bltu	r3,r5,41b98 <_malloc_r+0x324>
   419dc:	28c4703a 	and	r2,r5,r3
   419e0:	10000a1e 	bne	r2,zero,41a0c <_malloc_r+0x198>
   419e4:	00bfff04 	movi	r2,-4
   419e8:	294b883a 	add	r5,r5,r5
   419ec:	2088703a 	and	r4,r4,r2
   419f0:	28c4703a 	and	r2,r5,r3
   419f4:	21000104 	addi	r4,r4,4
   419f8:	1000041e 	bne	r2,zero,41a0c <_malloc_r+0x198>
   419fc:	294b883a 	add	r5,r5,r5
   41a00:	28c4703a 	and	r2,r5,r3
   41a04:	21000104 	addi	r4,r4,4
   41a08:	103ffc26 	beq	r2,zero,419fc <__alt_data_end+0xfffdc1fc>
   41a0c:	02bfff04 	movi	r10,-4
   41a10:	024003c4 	movi	r9,15
   41a14:	21800044 	addi	r6,r4,1
   41a18:	318d883a 	add	r6,r6,r6
   41a1c:	318d883a 	add	r6,r6,r6
   41a20:	318d883a 	add	r6,r6,r6
   41a24:	998d883a 	add	r6,r19,r6
   41a28:	333ffe04 	addi	r12,r6,-8
   41a2c:	2017883a 	mov	r11,r4
   41a30:	31800104 	addi	r6,r6,4
   41a34:	34000017 	ldw	r16,0(r6)
   41a38:	31fffd04 	addi	r7,r6,-12
   41a3c:	81c0041e 	bne	r16,r7,41a50 <_malloc_r+0x1dc>
   41a40:	0000fb06 	br	41e30 <_malloc_r+0x5bc>
   41a44:	1801030e 	bge	r3,zero,41e54 <_malloc_r+0x5e0>
   41a48:	84000317 	ldw	r16,12(r16)
   41a4c:	81c0f826 	beq	r16,r7,41e30 <_malloc_r+0x5bc>
   41a50:	80800117 	ldw	r2,4(r16)
   41a54:	1284703a 	and	r2,r2,r10
   41a58:	1447c83a 	sub	r3,r2,r17
   41a5c:	48fff90e 	bge	r9,r3,41a44 <__alt_data_end+0xfffdc244>
   41a60:	80800317 	ldw	r2,12(r16)
   41a64:	81000217 	ldw	r4,8(r16)
   41a68:	89400054 	ori	r5,r17,1
   41a6c:	81400115 	stw	r5,4(r16)
   41a70:	20800315 	stw	r2,12(r4)
   41a74:	11000215 	stw	r4,8(r2)
   41a78:	8463883a 	add	r17,r16,r17
   41a7c:	9c400515 	stw	r17,20(r19)
   41a80:	9c400415 	stw	r17,16(r19)
   41a84:	18800054 	ori	r2,r3,1
   41a88:	88800115 	stw	r2,4(r17)
   41a8c:	8a000315 	stw	r8,12(r17)
   41a90:	8a000215 	stw	r8,8(r17)
   41a94:	88e3883a 	add	r17,r17,r3
   41a98:	88c00015 	stw	r3,0(r17)
   41a9c:	9009883a 	mov	r4,r18
   41aa0:	00434f80 	call	434f8 <__malloc_unlock>
   41aa4:	80800204 	addi	r2,r16,8
   41aa8:	00001b06 	br	41b18 <_malloc_r+0x2a4>
   41aac:	04400404 	movi	r17,16
   41ab0:	89402536 	bltu	r17,r5,41b48 <_malloc_r+0x2d4>
   41ab4:	00433d80 	call	433d8 <__malloc_lock>
   41ab8:	00800184 	movi	r2,6
   41abc:	01000084 	movi	r4,2
   41ac0:	04c00174 	movhi	r19,5
   41ac4:	1085883a 	add	r2,r2,r2
   41ac8:	9cf5fb04 	addi	r19,r19,-10260
   41acc:	1085883a 	add	r2,r2,r2
   41ad0:	9885883a 	add	r2,r19,r2
   41ad4:	14000117 	ldw	r16,4(r2)
   41ad8:	10fffe04 	addi	r3,r2,-8
   41adc:	80c0d926 	beq	r16,r3,41e44 <_malloc_r+0x5d0>
   41ae0:	80c00117 	ldw	r3,4(r16)
   41ae4:	81000317 	ldw	r4,12(r16)
   41ae8:	00bfff04 	movi	r2,-4
   41aec:	1884703a 	and	r2,r3,r2
   41af0:	81400217 	ldw	r5,8(r16)
   41af4:	8085883a 	add	r2,r16,r2
   41af8:	10c00117 	ldw	r3,4(r2)
   41afc:	29000315 	stw	r4,12(r5)
   41b00:	21400215 	stw	r5,8(r4)
   41b04:	18c00054 	ori	r3,r3,1
   41b08:	10c00115 	stw	r3,4(r2)
   41b0c:	9009883a 	mov	r4,r18
   41b10:	00434f80 	call	434f8 <__malloc_unlock>
   41b14:	80800204 	addi	r2,r16,8
   41b18:	dfc00a17 	ldw	ra,40(sp)
   41b1c:	df000917 	ldw	fp,36(sp)
   41b20:	ddc00817 	ldw	r23,32(sp)
   41b24:	dd800717 	ldw	r22,28(sp)
   41b28:	dd400617 	ldw	r21,24(sp)
   41b2c:	dd000517 	ldw	r20,20(sp)
   41b30:	dcc00417 	ldw	r19,16(sp)
   41b34:	dc800317 	ldw	r18,12(sp)
   41b38:	dc400217 	ldw	r17,8(sp)
   41b3c:	dc000117 	ldw	r16,4(sp)
   41b40:	dec00b04 	addi	sp,sp,44
   41b44:	f800283a 	ret
   41b48:	00800304 	movi	r2,12
   41b4c:	90800015 	stw	r2,0(r18)
   41b50:	0005883a 	mov	r2,zero
   41b54:	003ff006 	br	41b18 <__alt_data_end+0xfffdc318>
   41b58:	01002004 	movi	r4,128
   41b5c:	02001004 	movi	r8,64
   41b60:	01c00fc4 	movi	r7,63
   41b64:	003f6106 	br	418ec <__alt_data_end+0xfffdc0ec>
   41b68:	4009883a 	mov	r4,r8
   41b6c:	003f7506 	br	41944 <__alt_data_end+0xfffdc144>
   41b70:	81000317 	ldw	r4,12(r16)
   41b74:	003fde06 	br	41af0 <__alt_data_end+0xfffdc2f0>
   41b78:	81c5883a 	add	r2,r16,r7
   41b7c:	11400117 	ldw	r5,4(r2)
   41b80:	9009883a 	mov	r4,r18
   41b84:	29400054 	ori	r5,r5,1
   41b88:	11400115 	stw	r5,4(r2)
   41b8c:	00434f80 	call	434f8 <__malloc_unlock>
   41b90:	80800204 	addi	r2,r16,8
   41b94:	003fe006 	br	41b18 <__alt_data_end+0xfffdc318>
   41b98:	9c000217 	ldw	r16,8(r19)
   41b9c:	00bfff04 	movi	r2,-4
   41ba0:	85800117 	ldw	r22,4(r16)
   41ba4:	b0ac703a 	and	r22,r22,r2
   41ba8:	b4400336 	bltu	r22,r17,41bb8 <_malloc_r+0x344>
   41bac:	b445c83a 	sub	r2,r22,r17
   41bb0:	00c003c4 	movi	r3,15
   41bb4:	18805d16 	blt	r3,r2,41d2c <_malloc_r+0x4b8>
   41bb8:	05c00174 	movhi	r23,5
   41bbc:	00800174 	movhi	r2,5
   41bc0:	10827104 	addi	r2,r2,2500
   41bc4:	bdfb8404 	addi	r23,r23,-4592
   41bc8:	15400017 	ldw	r21,0(r2)
   41bcc:	b8c00017 	ldw	r3,0(r23)
   41bd0:	00bfffc4 	movi	r2,-1
   41bd4:	858d883a 	add	r6,r16,r22
   41bd8:	8d6b883a 	add	r21,r17,r21
   41bdc:	1880ea26 	beq	r3,r2,41f88 <_malloc_r+0x714>
   41be0:	ad4403c4 	addi	r21,r21,4111
   41be4:	00bc0004 	movi	r2,-4096
   41be8:	a8aa703a 	and	r21,r21,r2
   41bec:	a80b883a 	mov	r5,r21
   41bf0:	9009883a 	mov	r4,r18
   41bf4:	d9800015 	stw	r6,0(sp)
   41bf8:	00421a80 	call	421a8 <_sbrk_r>
   41bfc:	1029883a 	mov	r20,r2
   41c00:	00bfffc4 	movi	r2,-1
   41c04:	d9800017 	ldw	r6,0(sp)
   41c08:	a080e826 	beq	r20,r2,41fac <_malloc_r+0x738>
   41c0c:	a180a636 	bltu	r20,r6,41ea8 <_malloc_r+0x634>
   41c10:	07000174 	movhi	fp,5
   41c14:	e7029304 	addi	fp,fp,2636
   41c18:	e0800017 	ldw	r2,0(fp)
   41c1c:	a887883a 	add	r3,r21,r2
   41c20:	e0c00015 	stw	r3,0(fp)
   41c24:	3500e626 	beq	r6,r20,41fc0 <_malloc_r+0x74c>
   41c28:	b9000017 	ldw	r4,0(r23)
   41c2c:	00bfffc4 	movi	r2,-1
   41c30:	2080ee26 	beq	r4,r2,41fec <_malloc_r+0x778>
   41c34:	a185c83a 	sub	r2,r20,r6
   41c38:	10c5883a 	add	r2,r2,r3
   41c3c:	e0800015 	stw	r2,0(fp)
   41c40:	a0c001cc 	andi	r3,r20,7
   41c44:	1800bc26 	beq	r3,zero,41f38 <_malloc_r+0x6c4>
   41c48:	a0e9c83a 	sub	r20,r20,r3
   41c4c:	00840204 	movi	r2,4104
   41c50:	a5000204 	addi	r20,r20,8
   41c54:	10c7c83a 	sub	r3,r2,r3
   41c58:	a545883a 	add	r2,r20,r21
   41c5c:	1083ffcc 	andi	r2,r2,4095
   41c60:	18abc83a 	sub	r21,r3,r2
   41c64:	a80b883a 	mov	r5,r21
   41c68:	9009883a 	mov	r4,r18
   41c6c:	00421a80 	call	421a8 <_sbrk_r>
   41c70:	00ffffc4 	movi	r3,-1
   41c74:	10c0e126 	beq	r2,r3,41ffc <_malloc_r+0x788>
   41c78:	1505c83a 	sub	r2,r2,r20
   41c7c:	1545883a 	add	r2,r2,r21
   41c80:	10800054 	ori	r2,r2,1
   41c84:	e0c00017 	ldw	r3,0(fp)
   41c88:	9d000215 	stw	r20,8(r19)
   41c8c:	a0800115 	stw	r2,4(r20)
   41c90:	a8c7883a 	add	r3,r21,r3
   41c94:	e0c00015 	stw	r3,0(fp)
   41c98:	84c00e26 	beq	r16,r19,41cd4 <_malloc_r+0x460>
   41c9c:	018003c4 	movi	r6,15
   41ca0:	3580a72e 	bgeu	r6,r22,41f40 <_malloc_r+0x6cc>
   41ca4:	81400117 	ldw	r5,4(r16)
   41ca8:	013ffe04 	movi	r4,-8
   41cac:	b0bffd04 	addi	r2,r22,-12
   41cb0:	1104703a 	and	r2,r2,r4
   41cb4:	2900004c 	andi	r4,r5,1
   41cb8:	2088b03a 	or	r4,r4,r2
   41cbc:	81000115 	stw	r4,4(r16)
   41cc0:	01400144 	movi	r5,5
   41cc4:	8089883a 	add	r4,r16,r2
   41cc8:	21400115 	stw	r5,4(r4)
   41ccc:	21400215 	stw	r5,8(r4)
   41cd0:	3080cd36 	bltu	r6,r2,42008 <_malloc_r+0x794>
   41cd4:	00800174 	movhi	r2,5
   41cd8:	10827004 	addi	r2,r2,2496
   41cdc:	11000017 	ldw	r4,0(r2)
   41ce0:	20c0012e 	bgeu	r4,r3,41ce8 <_malloc_r+0x474>
   41ce4:	10c00015 	stw	r3,0(r2)
   41ce8:	00800174 	movhi	r2,5
   41cec:	10826f04 	addi	r2,r2,2492
   41cf0:	11000017 	ldw	r4,0(r2)
   41cf4:	9c000217 	ldw	r16,8(r19)
   41cf8:	20c0012e 	bgeu	r4,r3,41d00 <_malloc_r+0x48c>
   41cfc:	10c00015 	stw	r3,0(r2)
   41d00:	80c00117 	ldw	r3,4(r16)
   41d04:	00bfff04 	movi	r2,-4
   41d08:	1886703a 	and	r3,r3,r2
   41d0c:	1c45c83a 	sub	r2,r3,r17
   41d10:	1c400236 	bltu	r3,r17,41d1c <_malloc_r+0x4a8>
   41d14:	00c003c4 	movi	r3,15
   41d18:	18800416 	blt	r3,r2,41d2c <_malloc_r+0x4b8>
   41d1c:	9009883a 	mov	r4,r18
   41d20:	00434f80 	call	434f8 <__malloc_unlock>
   41d24:	0005883a 	mov	r2,zero
   41d28:	003f7b06 	br	41b18 <__alt_data_end+0xfffdc318>
   41d2c:	88c00054 	ori	r3,r17,1
   41d30:	80c00115 	stw	r3,4(r16)
   41d34:	8463883a 	add	r17,r16,r17
   41d38:	10800054 	ori	r2,r2,1
   41d3c:	9c400215 	stw	r17,8(r19)
   41d40:	88800115 	stw	r2,4(r17)
   41d44:	9009883a 	mov	r4,r18
   41d48:	00434f80 	call	434f8 <__malloc_unlock>
   41d4c:	80800204 	addi	r2,r16,8
   41d50:	003f7106 	br	41b18 <__alt_data_end+0xfffdc318>
   41d54:	00c00504 	movi	r3,20
   41d58:	18804a2e 	bgeu	r3,r2,41e84 <_malloc_r+0x610>
   41d5c:	00c01504 	movi	r3,84
   41d60:	18806e36 	bltu	r3,r2,41f1c <_malloc_r+0x6a8>
   41d64:	8804d33a 	srli	r2,r17,12
   41d68:	12001bc4 	addi	r8,r2,111
   41d6c:	11c01b84 	addi	r7,r2,110
   41d70:	4209883a 	add	r4,r8,r8
   41d74:	003edd06 	br	418ec <__alt_data_end+0xfffdc0ec>
   41d78:	3804d27a 	srli	r2,r7,9
   41d7c:	00c00104 	movi	r3,4
   41d80:	1880442e 	bgeu	r3,r2,41e94 <_malloc_r+0x620>
   41d84:	00c00504 	movi	r3,20
   41d88:	18808136 	bltu	r3,r2,41f90 <_malloc_r+0x71c>
   41d8c:	11401704 	addi	r5,r2,92
   41d90:	10c016c4 	addi	r3,r2,91
   41d94:	294b883a 	add	r5,r5,r5
   41d98:	294b883a 	add	r5,r5,r5
   41d9c:	294b883a 	add	r5,r5,r5
   41da0:	994b883a 	add	r5,r19,r5
   41da4:	28800017 	ldw	r2,0(r5)
   41da8:	01800174 	movhi	r6,5
   41dac:	297ffe04 	addi	r5,r5,-8
   41db0:	31b5fb04 	addi	r6,r6,-10260
   41db4:	28806526 	beq	r5,r2,41f4c <_malloc_r+0x6d8>
   41db8:	01bfff04 	movi	r6,-4
   41dbc:	10c00117 	ldw	r3,4(r2)
   41dc0:	1986703a 	and	r3,r3,r6
   41dc4:	38c0022e 	bgeu	r7,r3,41dd0 <_malloc_r+0x55c>
   41dc8:	10800217 	ldw	r2,8(r2)
   41dcc:	28bffb1e 	bne	r5,r2,41dbc <__alt_data_end+0xfffdc5bc>
   41dd0:	11400317 	ldw	r5,12(r2)
   41dd4:	98c00117 	ldw	r3,4(r19)
   41dd8:	81400315 	stw	r5,12(r16)
   41ddc:	80800215 	stw	r2,8(r16)
   41de0:	2c000215 	stw	r16,8(r5)
   41de4:	14000315 	stw	r16,12(r2)
   41de8:	003ef806 	br	419cc <__alt_data_end+0xfffdc1cc>
   41dec:	88c00054 	ori	r3,r17,1
   41df0:	80c00115 	stw	r3,4(r16)
   41df4:	8463883a 	add	r17,r16,r17
   41df8:	34400515 	stw	r17,20(r6)
   41dfc:	34400415 	stw	r17,16(r6)
   41e00:	10c00054 	ori	r3,r2,1
   41e04:	8a000315 	stw	r8,12(r17)
   41e08:	8a000215 	stw	r8,8(r17)
   41e0c:	88c00115 	stw	r3,4(r17)
   41e10:	88a3883a 	add	r17,r17,r2
   41e14:	88800015 	stw	r2,0(r17)
   41e18:	9009883a 	mov	r4,r18
   41e1c:	00434f80 	call	434f8 <__malloc_unlock>
   41e20:	80800204 	addi	r2,r16,8
   41e24:	003f3c06 	br	41b18 <__alt_data_end+0xfffdc318>
   41e28:	30c00117 	ldw	r3,4(r6)
   41e2c:	003ee706 	br	419cc <__alt_data_end+0xfffdc1cc>
   41e30:	5ac00044 	addi	r11,r11,1
   41e34:	588000cc 	andi	r2,r11,3
   41e38:	31800204 	addi	r6,r6,8
   41e3c:	103efd1e 	bne	r2,zero,41a34 <__alt_data_end+0xfffdc234>
   41e40:	00002406 	br	41ed4 <_malloc_r+0x660>
   41e44:	14000317 	ldw	r16,12(r2)
   41e48:	143f251e 	bne	r2,r16,41ae0 <__alt_data_end+0xfffdc2e0>
   41e4c:	21000084 	addi	r4,r4,2
   41e50:	003ebc06 	br	41944 <__alt_data_end+0xfffdc144>
   41e54:	8085883a 	add	r2,r16,r2
   41e58:	10c00117 	ldw	r3,4(r2)
   41e5c:	81000317 	ldw	r4,12(r16)
   41e60:	81400217 	ldw	r5,8(r16)
   41e64:	18c00054 	ori	r3,r3,1
   41e68:	10c00115 	stw	r3,4(r2)
   41e6c:	29000315 	stw	r4,12(r5)
   41e70:	21400215 	stw	r5,8(r4)
   41e74:	9009883a 	mov	r4,r18
   41e78:	00434f80 	call	434f8 <__malloc_unlock>
   41e7c:	80800204 	addi	r2,r16,8
   41e80:	003f2506 	br	41b18 <__alt_data_end+0xfffdc318>
   41e84:	12001704 	addi	r8,r2,92
   41e88:	11c016c4 	addi	r7,r2,91
   41e8c:	4209883a 	add	r4,r8,r8
   41e90:	003e9606 	br	418ec <__alt_data_end+0xfffdc0ec>
   41e94:	3804d1ba 	srli	r2,r7,6
   41e98:	11400e44 	addi	r5,r2,57
   41e9c:	10c00e04 	addi	r3,r2,56
   41ea0:	294b883a 	add	r5,r5,r5
   41ea4:	003fbc06 	br	41d98 <__alt_data_end+0xfffdc598>
   41ea8:	84ff5926 	beq	r16,r19,41c10 <__alt_data_end+0xfffdc410>
   41eac:	00800174 	movhi	r2,5
   41eb0:	10b5fb04 	addi	r2,r2,-10260
   41eb4:	14000217 	ldw	r16,8(r2)
   41eb8:	00bfff04 	movi	r2,-4
   41ebc:	80c00117 	ldw	r3,4(r16)
   41ec0:	1886703a 	and	r3,r3,r2
   41ec4:	003f9106 	br	41d0c <__alt_data_end+0xfffdc50c>
   41ec8:	60800217 	ldw	r2,8(r12)
   41ecc:	213fffc4 	addi	r4,r4,-1
   41ed0:	1300651e 	bne	r2,r12,42068 <_malloc_r+0x7f4>
   41ed4:	208000cc 	andi	r2,r4,3
   41ed8:	633ffe04 	addi	r12,r12,-8
   41edc:	103ffa1e 	bne	r2,zero,41ec8 <__alt_data_end+0xfffdc6c8>
   41ee0:	98800117 	ldw	r2,4(r19)
   41ee4:	0146303a 	nor	r3,zero,r5
   41ee8:	1884703a 	and	r2,r3,r2
   41eec:	98800115 	stw	r2,4(r19)
   41ef0:	294b883a 	add	r5,r5,r5
   41ef4:	117f2836 	bltu	r2,r5,41b98 <__alt_data_end+0xfffdc398>
   41ef8:	283f2726 	beq	r5,zero,41b98 <__alt_data_end+0xfffdc398>
   41efc:	2886703a 	and	r3,r5,r2
   41f00:	5809883a 	mov	r4,r11
   41f04:	183ec31e 	bne	r3,zero,41a14 <__alt_data_end+0xfffdc214>
   41f08:	294b883a 	add	r5,r5,r5
   41f0c:	2886703a 	and	r3,r5,r2
   41f10:	21000104 	addi	r4,r4,4
   41f14:	183ffc26 	beq	r3,zero,41f08 <__alt_data_end+0xfffdc708>
   41f18:	003ebe06 	br	41a14 <__alt_data_end+0xfffdc214>
   41f1c:	00c05504 	movi	r3,340
   41f20:	18801236 	bltu	r3,r2,41f6c <_malloc_r+0x6f8>
   41f24:	8804d3fa 	srli	r2,r17,15
   41f28:	12001e04 	addi	r8,r2,120
   41f2c:	11c01dc4 	addi	r7,r2,119
   41f30:	4209883a 	add	r4,r8,r8
   41f34:	003e6d06 	br	418ec <__alt_data_end+0xfffdc0ec>
   41f38:	00c40004 	movi	r3,4096
   41f3c:	003f4606 	br	41c58 <__alt_data_end+0xfffdc458>
   41f40:	00800044 	movi	r2,1
   41f44:	a0800115 	stw	r2,4(r20)
   41f48:	003f7406 	br	41d1c <__alt_data_end+0xfffdc51c>
   41f4c:	1805d0ba 	srai	r2,r3,2
   41f50:	01c00044 	movi	r7,1
   41f54:	30c00117 	ldw	r3,4(r6)
   41f58:	388e983a 	sll	r7,r7,r2
   41f5c:	2805883a 	mov	r2,r5
   41f60:	38c6b03a 	or	r3,r7,r3
   41f64:	30c00115 	stw	r3,4(r6)
   41f68:	003f9b06 	br	41dd8 <__alt_data_end+0xfffdc5d8>
   41f6c:	00c15504 	movi	r3,1364
   41f70:	18801a36 	bltu	r3,r2,41fdc <_malloc_r+0x768>
   41f74:	8804d4ba 	srli	r2,r17,18
   41f78:	12001f44 	addi	r8,r2,125
   41f7c:	11c01f04 	addi	r7,r2,124
   41f80:	4209883a 	add	r4,r8,r8
   41f84:	003e5906 	br	418ec <__alt_data_end+0xfffdc0ec>
   41f88:	ad400404 	addi	r21,r21,16
   41f8c:	003f1706 	br	41bec <__alt_data_end+0xfffdc3ec>
   41f90:	00c01504 	movi	r3,84
   41f94:	18802336 	bltu	r3,r2,42024 <_malloc_r+0x7b0>
   41f98:	3804d33a 	srli	r2,r7,12
   41f9c:	11401bc4 	addi	r5,r2,111
   41fa0:	10c01b84 	addi	r3,r2,110
   41fa4:	294b883a 	add	r5,r5,r5
   41fa8:	003f7b06 	br	41d98 <__alt_data_end+0xfffdc598>
   41fac:	9c000217 	ldw	r16,8(r19)
   41fb0:	00bfff04 	movi	r2,-4
   41fb4:	80c00117 	ldw	r3,4(r16)
   41fb8:	1886703a 	and	r3,r3,r2
   41fbc:	003f5306 	br	41d0c <__alt_data_end+0xfffdc50c>
   41fc0:	3083ffcc 	andi	r2,r6,4095
   41fc4:	103f181e 	bne	r2,zero,41c28 <__alt_data_end+0xfffdc428>
   41fc8:	99000217 	ldw	r4,8(r19)
   41fcc:	b545883a 	add	r2,r22,r21
   41fd0:	10800054 	ori	r2,r2,1
   41fd4:	20800115 	stw	r2,4(r4)
   41fd8:	003f3e06 	br	41cd4 <__alt_data_end+0xfffdc4d4>
   41fdc:	01003f84 	movi	r4,254
   41fe0:	02001fc4 	movi	r8,127
   41fe4:	01c01f84 	movi	r7,126
   41fe8:	003e4006 	br	418ec <__alt_data_end+0xfffdc0ec>
   41fec:	00800174 	movhi	r2,5
   41ff0:	10bb8404 	addi	r2,r2,-4592
   41ff4:	15000015 	stw	r20,0(r2)
   41ff8:	003f1106 	br	41c40 <__alt_data_end+0xfffdc440>
   41ffc:	00800044 	movi	r2,1
   42000:	002b883a 	mov	r21,zero
   42004:	003f1f06 	br	41c84 <__alt_data_end+0xfffdc484>
   42008:	81400204 	addi	r5,r16,8
   4200c:	9009883a 	mov	r4,r18
   42010:	00412200 	call	41220 <_free_r>
   42014:	00800174 	movhi	r2,5
   42018:	10829304 	addi	r2,r2,2636
   4201c:	10c00017 	ldw	r3,0(r2)
   42020:	003f2c06 	br	41cd4 <__alt_data_end+0xfffdc4d4>
   42024:	00c05504 	movi	r3,340
   42028:	18800536 	bltu	r3,r2,42040 <_malloc_r+0x7cc>
   4202c:	3804d3fa 	srli	r2,r7,15
   42030:	11401e04 	addi	r5,r2,120
   42034:	10c01dc4 	addi	r3,r2,119
   42038:	294b883a 	add	r5,r5,r5
   4203c:	003f5606 	br	41d98 <__alt_data_end+0xfffdc598>
   42040:	00c15504 	movi	r3,1364
   42044:	18800536 	bltu	r3,r2,4205c <_malloc_r+0x7e8>
   42048:	3804d4ba 	srli	r2,r7,18
   4204c:	11401f44 	addi	r5,r2,125
   42050:	10c01f04 	addi	r3,r2,124
   42054:	294b883a 	add	r5,r5,r5
   42058:	003f4f06 	br	41d98 <__alt_data_end+0xfffdc598>
   4205c:	01403f84 	movi	r5,254
   42060:	00c01f84 	movi	r3,126
   42064:	003f4c06 	br	41d98 <__alt_data_end+0xfffdc598>
   42068:	98800117 	ldw	r2,4(r19)
   4206c:	003fa006 	br	41ef0 <__alt_data_end+0xfffdc6f0>
   42070:	8808d0fa 	srli	r4,r17,3
   42074:	20800044 	addi	r2,r4,1
   42078:	1085883a 	add	r2,r2,r2
   4207c:	003e9006 	br	41ac0 <__alt_data_end+0xfffdc2c0>

00042080 <memset>:
   42080:	20c000cc 	andi	r3,r4,3
   42084:	2005883a 	mov	r2,r4
   42088:	18004426 	beq	r3,zero,4219c <memset+0x11c>
   4208c:	31ffffc4 	addi	r7,r6,-1
   42090:	30004026 	beq	r6,zero,42194 <memset+0x114>
   42094:	2813883a 	mov	r9,r5
   42098:	200d883a 	mov	r6,r4
   4209c:	2007883a 	mov	r3,r4
   420a0:	00000406 	br	420b4 <memset+0x34>
   420a4:	3a3fffc4 	addi	r8,r7,-1
   420a8:	31800044 	addi	r6,r6,1
   420ac:	38003926 	beq	r7,zero,42194 <memset+0x114>
   420b0:	400f883a 	mov	r7,r8
   420b4:	18c00044 	addi	r3,r3,1
   420b8:	32400005 	stb	r9,0(r6)
   420bc:	1a0000cc 	andi	r8,r3,3
   420c0:	403ff81e 	bne	r8,zero,420a4 <__alt_data_end+0xfffdc8a4>
   420c4:	010000c4 	movi	r4,3
   420c8:	21c02d2e 	bgeu	r4,r7,42180 <memset+0x100>
   420cc:	29003fcc 	andi	r4,r5,255
   420d0:	200c923a 	slli	r6,r4,8
   420d4:	3108b03a 	or	r4,r6,r4
   420d8:	200c943a 	slli	r6,r4,16
   420dc:	218cb03a 	or	r6,r4,r6
   420e0:	010003c4 	movi	r4,15
   420e4:	21c0182e 	bgeu	r4,r7,42148 <memset+0xc8>
   420e8:	3b3ffc04 	addi	r12,r7,-16
   420ec:	6018d13a 	srli	r12,r12,4
   420f0:	1a000104 	addi	r8,r3,4
   420f4:	1ac00204 	addi	r11,r3,8
   420f8:	6008913a 	slli	r4,r12,4
   420fc:	1a800304 	addi	r10,r3,12
   42100:	1813883a 	mov	r9,r3
   42104:	21000504 	addi	r4,r4,20
   42108:	1909883a 	add	r4,r3,r4
   4210c:	49800015 	stw	r6,0(r9)
   42110:	41800015 	stw	r6,0(r8)
   42114:	59800015 	stw	r6,0(r11)
   42118:	51800015 	stw	r6,0(r10)
   4211c:	42000404 	addi	r8,r8,16
   42120:	4a400404 	addi	r9,r9,16
   42124:	5ac00404 	addi	r11,r11,16
   42128:	52800404 	addi	r10,r10,16
   4212c:	413ff71e 	bne	r8,r4,4210c <__alt_data_end+0xfffdc90c>
   42130:	63000044 	addi	r12,r12,1
   42134:	6018913a 	slli	r12,r12,4
   42138:	39c003cc 	andi	r7,r7,15
   4213c:	010000c4 	movi	r4,3
   42140:	1b07883a 	add	r3,r3,r12
   42144:	21c00e2e 	bgeu	r4,r7,42180 <memset+0x100>
   42148:	1813883a 	mov	r9,r3
   4214c:	3811883a 	mov	r8,r7
   42150:	010000c4 	movi	r4,3
   42154:	49800015 	stw	r6,0(r9)
   42158:	423fff04 	addi	r8,r8,-4
   4215c:	4a400104 	addi	r9,r9,4
   42160:	223ffc36 	bltu	r4,r8,42154 <__alt_data_end+0xfffdc954>
   42164:	393fff04 	addi	r4,r7,-4
   42168:	2008d0ba 	srli	r4,r4,2
   4216c:	39c000cc 	andi	r7,r7,3
   42170:	21000044 	addi	r4,r4,1
   42174:	2109883a 	add	r4,r4,r4
   42178:	2109883a 	add	r4,r4,r4
   4217c:	1907883a 	add	r3,r3,r4
   42180:	38000526 	beq	r7,zero,42198 <memset+0x118>
   42184:	19cf883a 	add	r7,r3,r7
   42188:	19400005 	stb	r5,0(r3)
   4218c:	18c00044 	addi	r3,r3,1
   42190:	38fffd1e 	bne	r7,r3,42188 <__alt_data_end+0xfffdc988>
   42194:	f800283a 	ret
   42198:	f800283a 	ret
   4219c:	2007883a 	mov	r3,r4
   421a0:	300f883a 	mov	r7,r6
   421a4:	003fc706 	br	420c4 <__alt_data_end+0xfffdc8c4>

000421a8 <_sbrk_r>:
   421a8:	defffd04 	addi	sp,sp,-12
   421ac:	dc000015 	stw	r16,0(sp)
   421b0:	04000174 	movhi	r16,5
   421b4:	dc400115 	stw	r17,4(sp)
   421b8:	84027204 	addi	r16,r16,2504
   421bc:	2023883a 	mov	r17,r4
   421c0:	2809883a 	mov	r4,r5
   421c4:	dfc00215 	stw	ra,8(sp)
   421c8:	80000015 	stw	zero,0(r16)
   421cc:	00430c80 	call	430c8 <sbrk>
   421d0:	00ffffc4 	movi	r3,-1
   421d4:	10c00526 	beq	r2,r3,421ec <_sbrk_r+0x44>
   421d8:	dfc00217 	ldw	ra,8(sp)
   421dc:	dc400117 	ldw	r17,4(sp)
   421e0:	dc000017 	ldw	r16,0(sp)
   421e4:	dec00304 	addi	sp,sp,12
   421e8:	f800283a 	ret
   421ec:	80c00017 	ldw	r3,0(r16)
   421f0:	183ff926 	beq	r3,zero,421d8 <__alt_data_end+0xfffdc9d8>
   421f4:	88c00015 	stw	r3,0(r17)
   421f8:	003ff706 	br	421d8 <__alt_data_end+0xfffdc9d8>

000421fc <__sread>:
   421fc:	defffe04 	addi	sp,sp,-8
   42200:	dc000015 	stw	r16,0(sp)
   42204:	2821883a 	mov	r16,r5
   42208:	2940038f 	ldh	r5,14(r5)
   4220c:	dfc00115 	stw	ra,4(sp)
   42210:	00426000 	call	42600 <_read_r>
   42214:	10000716 	blt	r2,zero,42234 <__sread+0x38>
   42218:	80c01417 	ldw	r3,80(r16)
   4221c:	1887883a 	add	r3,r3,r2
   42220:	80c01415 	stw	r3,80(r16)
   42224:	dfc00117 	ldw	ra,4(sp)
   42228:	dc000017 	ldw	r16,0(sp)
   4222c:	dec00204 	addi	sp,sp,8
   42230:	f800283a 	ret
   42234:	80c0030b 	ldhu	r3,12(r16)
   42238:	18fbffcc 	andi	r3,r3,61439
   4223c:	80c0030d 	sth	r3,12(r16)
   42240:	dfc00117 	ldw	ra,4(sp)
   42244:	dc000017 	ldw	r16,0(sp)
   42248:	dec00204 	addi	sp,sp,8
   4224c:	f800283a 	ret

00042250 <__seofread>:
   42250:	0005883a 	mov	r2,zero
   42254:	f800283a 	ret

00042258 <__swrite>:
   42258:	2880030b 	ldhu	r2,12(r5)
   4225c:	defffb04 	addi	sp,sp,-20
   42260:	dcc00315 	stw	r19,12(sp)
   42264:	dc800215 	stw	r18,8(sp)
   42268:	dc400115 	stw	r17,4(sp)
   4226c:	dc000015 	stw	r16,0(sp)
   42270:	dfc00415 	stw	ra,16(sp)
   42274:	10c0400c 	andi	r3,r2,256
   42278:	2821883a 	mov	r16,r5
   4227c:	2023883a 	mov	r17,r4
   42280:	3025883a 	mov	r18,r6
   42284:	3827883a 	mov	r19,r7
   42288:	18000526 	beq	r3,zero,422a0 <__swrite+0x48>
   4228c:	2940038f 	ldh	r5,14(r5)
   42290:	01c00084 	movi	r7,2
   42294:	000d883a 	mov	r6,zero
   42298:	00425a00 	call	425a0 <_lseek_r>
   4229c:	8080030b 	ldhu	r2,12(r16)
   422a0:	8140038f 	ldh	r5,14(r16)
   422a4:	10bbffcc 	andi	r2,r2,61439
   422a8:	980f883a 	mov	r7,r19
   422ac:	900d883a 	mov	r6,r18
   422b0:	8809883a 	mov	r4,r17
   422b4:	8080030d 	sth	r2,12(r16)
   422b8:	dfc00417 	ldw	ra,16(sp)
   422bc:	dcc00317 	ldw	r19,12(sp)
   422c0:	dc800217 	ldw	r18,8(sp)
   422c4:	dc400117 	ldw	r17,4(sp)
   422c8:	dc000017 	ldw	r16,0(sp)
   422cc:	dec00504 	addi	sp,sp,20
   422d0:	00423381 	jmpi	42338 <_write_r>

000422d4 <__sseek>:
   422d4:	defffe04 	addi	sp,sp,-8
   422d8:	dc000015 	stw	r16,0(sp)
   422dc:	2821883a 	mov	r16,r5
   422e0:	2940038f 	ldh	r5,14(r5)
   422e4:	dfc00115 	stw	ra,4(sp)
   422e8:	00425a00 	call	425a0 <_lseek_r>
   422ec:	00ffffc4 	movi	r3,-1
   422f0:	10c00826 	beq	r2,r3,42314 <__sseek+0x40>
   422f4:	80c0030b 	ldhu	r3,12(r16)
   422f8:	80801415 	stw	r2,80(r16)
   422fc:	18c40014 	ori	r3,r3,4096
   42300:	80c0030d 	sth	r3,12(r16)
   42304:	dfc00117 	ldw	ra,4(sp)
   42308:	dc000017 	ldw	r16,0(sp)
   4230c:	dec00204 	addi	sp,sp,8
   42310:	f800283a 	ret
   42314:	80c0030b 	ldhu	r3,12(r16)
   42318:	18fbffcc 	andi	r3,r3,61439
   4231c:	80c0030d 	sth	r3,12(r16)
   42320:	dfc00117 	ldw	ra,4(sp)
   42324:	dc000017 	ldw	r16,0(sp)
   42328:	dec00204 	addi	sp,sp,8
   4232c:	f800283a 	ret

00042330 <__sclose>:
   42330:	2940038f 	ldh	r5,14(r5)
   42334:	00423981 	jmpi	42398 <_close_r>

00042338 <_write_r>:
   42338:	defffd04 	addi	sp,sp,-12
   4233c:	2805883a 	mov	r2,r5
   42340:	dc000015 	stw	r16,0(sp)
   42344:	04000174 	movhi	r16,5
   42348:	dc400115 	stw	r17,4(sp)
   4234c:	300b883a 	mov	r5,r6
   42350:	84027204 	addi	r16,r16,2504
   42354:	2023883a 	mov	r17,r4
   42358:	380d883a 	mov	r6,r7
   4235c:	1009883a 	mov	r4,r2
   42360:	dfc00215 	stw	ra,8(sp)
   42364:	80000015 	stw	zero,0(r16)
   42368:	00431b40 	call	431b4 <write>
   4236c:	00ffffc4 	movi	r3,-1
   42370:	10c00526 	beq	r2,r3,42388 <_write_r+0x50>
   42374:	dfc00217 	ldw	ra,8(sp)
   42378:	dc400117 	ldw	r17,4(sp)
   4237c:	dc000017 	ldw	r16,0(sp)
   42380:	dec00304 	addi	sp,sp,12
   42384:	f800283a 	ret
   42388:	80c00017 	ldw	r3,0(r16)
   4238c:	183ff926 	beq	r3,zero,42374 <__alt_data_end+0xfffdcb74>
   42390:	88c00015 	stw	r3,0(r17)
   42394:	003ff706 	br	42374 <__alt_data_end+0xfffdcb74>

00042398 <_close_r>:
   42398:	defffd04 	addi	sp,sp,-12
   4239c:	dc000015 	stw	r16,0(sp)
   423a0:	04000174 	movhi	r16,5
   423a4:	dc400115 	stw	r17,4(sp)
   423a8:	84027204 	addi	r16,r16,2504
   423ac:	2023883a 	mov	r17,r4
   423b0:	2809883a 	mov	r4,r5
   423b4:	dfc00215 	stw	ra,8(sp)
   423b8:	80000015 	stw	zero,0(r16)
   423bc:	00426c40 	call	426c4 <close>
   423c0:	00ffffc4 	movi	r3,-1
   423c4:	10c00526 	beq	r2,r3,423dc <_close_r+0x44>
   423c8:	dfc00217 	ldw	ra,8(sp)
   423cc:	dc400117 	ldw	r17,4(sp)
   423d0:	dc000017 	ldw	r16,0(sp)
   423d4:	dec00304 	addi	sp,sp,12
   423d8:	f800283a 	ret
   423dc:	80c00017 	ldw	r3,0(r16)
   423e0:	183ff926 	beq	r3,zero,423c8 <__alt_data_end+0xfffdcbc8>
   423e4:	88c00015 	stw	r3,0(r17)
   423e8:	003ff706 	br	423c8 <__alt_data_end+0xfffdcbc8>

000423ec <_fclose_r>:
   423ec:	28003926 	beq	r5,zero,424d4 <_fclose_r+0xe8>
   423f0:	defffc04 	addi	sp,sp,-16
   423f4:	dc400115 	stw	r17,4(sp)
   423f8:	dc000015 	stw	r16,0(sp)
   423fc:	dfc00315 	stw	ra,12(sp)
   42400:	dc800215 	stw	r18,8(sp)
   42404:	2023883a 	mov	r17,r4
   42408:	2821883a 	mov	r16,r5
   4240c:	20000226 	beq	r4,zero,42418 <_fclose_r+0x2c>
   42410:	20800e17 	ldw	r2,56(r4)
   42414:	10002726 	beq	r2,zero,424b4 <_fclose_r+0xc8>
   42418:	8080030f 	ldh	r2,12(r16)
   4241c:	1000071e 	bne	r2,zero,4243c <_fclose_r+0x50>
   42420:	0005883a 	mov	r2,zero
   42424:	dfc00317 	ldw	ra,12(sp)
   42428:	dc800217 	ldw	r18,8(sp)
   4242c:	dc400117 	ldw	r17,4(sp)
   42430:	dc000017 	ldw	r16,0(sp)
   42434:	dec00404 	addi	sp,sp,16
   42438:	f800283a 	ret
   4243c:	800b883a 	mov	r5,r16
   42440:	8809883a 	mov	r4,r17
   42444:	0040aa40 	call	40aa4 <__sflush_r>
   42448:	1025883a 	mov	r18,r2
   4244c:	80800b17 	ldw	r2,44(r16)
   42450:	10000426 	beq	r2,zero,42464 <_fclose_r+0x78>
   42454:	81400717 	ldw	r5,28(r16)
   42458:	8809883a 	mov	r4,r17
   4245c:	103ee83a 	callr	r2
   42460:	10001616 	blt	r2,zero,424bc <_fclose_r+0xd0>
   42464:	8080030b 	ldhu	r2,12(r16)
   42468:	1080200c 	andi	r2,r2,128
   4246c:	1000151e 	bne	r2,zero,424c4 <_fclose_r+0xd8>
   42470:	81400c17 	ldw	r5,48(r16)
   42474:	28000526 	beq	r5,zero,4248c <_fclose_r+0xa0>
   42478:	80801004 	addi	r2,r16,64
   4247c:	28800226 	beq	r5,r2,42488 <_fclose_r+0x9c>
   42480:	8809883a 	mov	r4,r17
   42484:	00412200 	call	41220 <_free_r>
   42488:	80000c15 	stw	zero,48(r16)
   4248c:	81401117 	ldw	r5,68(r16)
   42490:	28000326 	beq	r5,zero,424a0 <_fclose_r+0xb4>
   42494:	8809883a 	mov	r4,r17
   42498:	00412200 	call	41220 <_free_r>
   4249c:	80001115 	stw	zero,68(r16)
   424a0:	00410bc0 	call	410bc <__sfp_lock_acquire>
   424a4:	8000030d 	sth	zero,12(r16)
   424a8:	00410c00 	call	410c0 <__sfp_lock_release>
   424ac:	9005883a 	mov	r2,r18
   424b0:	003fdc06 	br	42424 <__alt_data_end+0xfffdcc24>
   424b4:	00410ac0 	call	410ac <__sinit>
   424b8:	003fd706 	br	42418 <__alt_data_end+0xfffdcc18>
   424bc:	04bfffc4 	movi	r18,-1
   424c0:	003fe806 	br	42464 <__alt_data_end+0xfffdcc64>
   424c4:	81400417 	ldw	r5,16(r16)
   424c8:	8809883a 	mov	r4,r17
   424cc:	00412200 	call	41220 <_free_r>
   424d0:	003fe706 	br	42470 <__alt_data_end+0xfffdcc70>
   424d4:	0005883a 	mov	r2,zero
   424d8:	f800283a 	ret

000424dc <fclose>:
   424dc:	00800174 	movhi	r2,5
   424e0:	10bb8304 	addi	r2,r2,-4596
   424e4:	200b883a 	mov	r5,r4
   424e8:	11000017 	ldw	r4,0(r2)
   424ec:	00423ec1 	jmpi	423ec <_fclose_r>

000424f0 <_fstat_r>:
   424f0:	defffd04 	addi	sp,sp,-12
   424f4:	2805883a 	mov	r2,r5
   424f8:	dc000015 	stw	r16,0(sp)
   424fc:	04000174 	movhi	r16,5
   42500:	dc400115 	stw	r17,4(sp)
   42504:	84027204 	addi	r16,r16,2504
   42508:	2023883a 	mov	r17,r4
   4250c:	300b883a 	mov	r5,r6
   42510:	1009883a 	mov	r4,r2
   42514:	dfc00215 	stw	ra,8(sp)
   42518:	80000015 	stw	zero,0(r16)
   4251c:	00428040 	call	42804 <fstat>
   42520:	00ffffc4 	movi	r3,-1
   42524:	10c00526 	beq	r2,r3,4253c <_fstat_r+0x4c>
   42528:	dfc00217 	ldw	ra,8(sp)
   4252c:	dc400117 	ldw	r17,4(sp)
   42530:	dc000017 	ldw	r16,0(sp)
   42534:	dec00304 	addi	sp,sp,12
   42538:	f800283a 	ret
   4253c:	80c00017 	ldw	r3,0(r16)
   42540:	183ff926 	beq	r3,zero,42528 <__alt_data_end+0xfffdcd28>
   42544:	88c00015 	stw	r3,0(r17)
   42548:	003ff706 	br	42528 <__alt_data_end+0xfffdcd28>

0004254c <_isatty_r>:
   4254c:	defffd04 	addi	sp,sp,-12
   42550:	dc000015 	stw	r16,0(sp)
   42554:	04000174 	movhi	r16,5
   42558:	dc400115 	stw	r17,4(sp)
   4255c:	84027204 	addi	r16,r16,2504
   42560:	2023883a 	mov	r17,r4
   42564:	2809883a 	mov	r4,r5
   42568:	dfc00215 	stw	ra,8(sp)
   4256c:	80000015 	stw	zero,0(r16)
   42570:	0042b980 	call	42b98 <isatty>
   42574:	00ffffc4 	movi	r3,-1
   42578:	10c00526 	beq	r2,r3,42590 <_isatty_r+0x44>
   4257c:	dfc00217 	ldw	ra,8(sp)
   42580:	dc400117 	ldw	r17,4(sp)
   42584:	dc000017 	ldw	r16,0(sp)
   42588:	dec00304 	addi	sp,sp,12
   4258c:	f800283a 	ret
   42590:	80c00017 	ldw	r3,0(r16)
   42594:	183ff926 	beq	r3,zero,4257c <__alt_data_end+0xfffdcd7c>
   42598:	88c00015 	stw	r3,0(r17)
   4259c:	003ff706 	br	4257c <__alt_data_end+0xfffdcd7c>

000425a0 <_lseek_r>:
   425a0:	defffd04 	addi	sp,sp,-12
   425a4:	2805883a 	mov	r2,r5
   425a8:	dc000015 	stw	r16,0(sp)
   425ac:	04000174 	movhi	r16,5
   425b0:	dc400115 	stw	r17,4(sp)
   425b4:	300b883a 	mov	r5,r6
   425b8:	84027204 	addi	r16,r16,2504
   425bc:	2023883a 	mov	r17,r4
   425c0:	380d883a 	mov	r6,r7
   425c4:	1009883a 	mov	r4,r2
   425c8:	dfc00215 	stw	ra,8(sp)
   425cc:	80000015 	stw	zero,0(r16)
   425d0:	0042d6c0 	call	42d6c <lseek>
   425d4:	00ffffc4 	movi	r3,-1
   425d8:	10c00526 	beq	r2,r3,425f0 <_lseek_r+0x50>
   425dc:	dfc00217 	ldw	ra,8(sp)
   425e0:	dc400117 	ldw	r17,4(sp)
   425e4:	dc000017 	ldw	r16,0(sp)
   425e8:	dec00304 	addi	sp,sp,12
   425ec:	f800283a 	ret
   425f0:	80c00017 	ldw	r3,0(r16)
   425f4:	183ff926 	beq	r3,zero,425dc <__alt_data_end+0xfffdcddc>
   425f8:	88c00015 	stw	r3,0(r17)
   425fc:	003ff706 	br	425dc <__alt_data_end+0xfffdcddc>

00042600 <_read_r>:
   42600:	defffd04 	addi	sp,sp,-12
   42604:	2805883a 	mov	r2,r5
   42608:	dc000015 	stw	r16,0(sp)
   4260c:	04000174 	movhi	r16,5
   42610:	dc400115 	stw	r17,4(sp)
   42614:	300b883a 	mov	r5,r6
   42618:	84027204 	addi	r16,r16,2504
   4261c:	2023883a 	mov	r17,r4
   42620:	380d883a 	mov	r6,r7
   42624:	1009883a 	mov	r4,r2
   42628:	dfc00215 	stw	ra,8(sp)
   4262c:	80000015 	stw	zero,0(r16)
   42630:	0042f400 	call	42f40 <read>
   42634:	00ffffc4 	movi	r3,-1
   42638:	10c00526 	beq	r2,r3,42650 <_read_r+0x50>
   4263c:	dfc00217 	ldw	ra,8(sp)
   42640:	dc400117 	ldw	r17,4(sp)
   42644:	dc000017 	ldw	r16,0(sp)
   42648:	dec00304 	addi	sp,sp,12
   4264c:	f800283a 	ret
   42650:	80c00017 	ldw	r3,0(r16)
   42654:	183ff926 	beq	r3,zero,4263c <__alt_data_end+0xfffdce3c>
   42658:	88c00015 	stw	r3,0(r17)
   4265c:	003ff706 	br	4263c <__alt_data_end+0xfffdce3c>

00042660 <__mulsi3>:
   42660:	0005883a 	mov	r2,zero
   42664:	20000726 	beq	r4,zero,42684 <__mulsi3+0x24>
   42668:	20c0004c 	andi	r3,r4,1
   4266c:	2008d07a 	srli	r4,r4,1
   42670:	18000126 	beq	r3,zero,42678 <__mulsi3+0x18>
   42674:	1145883a 	add	r2,r2,r5
   42678:	294b883a 	add	r5,r5,r5
   4267c:	203ffa1e 	bne	r4,zero,42668 <__alt_data_end+0xfffdce68>
   42680:	f800283a 	ret
   42684:	f800283a 	ret

00042688 <alt_get_errno>:
   42688:	defffe04 	addi	sp,sp,-8
   4268c:	dfc00115 	stw	ra,4(sp)
   42690:	df000015 	stw	fp,0(sp)
   42694:	d839883a 	mov	fp,sp
   42698:	d0a00917 	ldw	r2,-32732(gp)
   4269c:	10000326 	beq	r2,zero,426ac <alt_get_errno+0x24>
   426a0:	d0a00917 	ldw	r2,-32732(gp)
   426a4:	103ee83a 	callr	r2
   426a8:	00000106 	br	426b0 <alt_get_errno+0x28>
   426ac:	d0a6f004 	addi	r2,gp,-25664
   426b0:	e037883a 	mov	sp,fp
   426b4:	dfc00117 	ldw	ra,4(sp)
   426b8:	df000017 	ldw	fp,0(sp)
   426bc:	dec00204 	addi	sp,sp,8
   426c0:	f800283a 	ret

000426c4 <close>:
   426c4:	defffb04 	addi	sp,sp,-20
   426c8:	dfc00415 	stw	ra,16(sp)
   426cc:	df000315 	stw	fp,12(sp)
   426d0:	df000304 	addi	fp,sp,12
   426d4:	e13fff15 	stw	r4,-4(fp)
   426d8:	e0bfff17 	ldw	r2,-4(fp)
   426dc:	10000816 	blt	r2,zero,42700 <close+0x3c>
   426e0:	01400304 	movi	r5,12
   426e4:	e13fff17 	ldw	r4,-4(fp)
   426e8:	00426600 	call	42660 <__mulsi3>
   426ec:	1007883a 	mov	r3,r2
   426f0:	00800174 	movhi	r2,5
   426f4:	10b70704 	addi	r2,r2,-9188
   426f8:	1885883a 	add	r2,r3,r2
   426fc:	00000106 	br	42704 <close+0x40>
   42700:	0005883a 	mov	r2,zero
   42704:	e0bffd15 	stw	r2,-12(fp)
   42708:	e0bffd17 	ldw	r2,-12(fp)
   4270c:	10001926 	beq	r2,zero,42774 <close+0xb0>
   42710:	e0bffd17 	ldw	r2,-12(fp)
   42714:	10800017 	ldw	r2,0(r2)
   42718:	10800417 	ldw	r2,16(r2)
   4271c:	10000626 	beq	r2,zero,42738 <close+0x74>
   42720:	e0bffd17 	ldw	r2,-12(fp)
   42724:	10800017 	ldw	r2,0(r2)
   42728:	10800417 	ldw	r2,16(r2)
   4272c:	e13ffd17 	ldw	r4,-12(fp)
   42730:	103ee83a 	callr	r2
   42734:	00000106 	br	4273c <close+0x78>
   42738:	0005883a 	mov	r2,zero
   4273c:	e0bffe15 	stw	r2,-8(fp)
   42740:	e13fff17 	ldw	r4,-4(fp)
   42744:	00430440 	call	43044 <alt_release_fd>
   42748:	e0bffe17 	ldw	r2,-8(fp)
   4274c:	1000070e 	bge	r2,zero,4276c <close+0xa8>
   42750:	00426880 	call	42688 <alt_get_errno>
   42754:	1007883a 	mov	r3,r2
   42758:	e0bffe17 	ldw	r2,-8(fp)
   4275c:	0085c83a 	sub	r2,zero,r2
   42760:	18800015 	stw	r2,0(r3)
   42764:	00bfffc4 	movi	r2,-1
   42768:	00000706 	br	42788 <close+0xc4>
   4276c:	0005883a 	mov	r2,zero
   42770:	00000506 	br	42788 <close+0xc4>
   42774:	00426880 	call	42688 <alt_get_errno>
   42778:	1007883a 	mov	r3,r2
   4277c:	00801444 	movi	r2,81
   42780:	18800015 	stw	r2,0(r3)
   42784:	00bfffc4 	movi	r2,-1
   42788:	e037883a 	mov	sp,fp
   4278c:	dfc00117 	ldw	ra,4(sp)
   42790:	df000017 	ldw	fp,0(sp)
   42794:	dec00204 	addi	sp,sp,8
   42798:	f800283a 	ret

0004279c <alt_dev_null_write>:
   4279c:	defffc04 	addi	sp,sp,-16
   427a0:	df000315 	stw	fp,12(sp)
   427a4:	df000304 	addi	fp,sp,12
   427a8:	e13ffd15 	stw	r4,-12(fp)
   427ac:	e17ffe15 	stw	r5,-8(fp)
   427b0:	e1bfff15 	stw	r6,-4(fp)
   427b4:	e0bfff17 	ldw	r2,-4(fp)
   427b8:	e037883a 	mov	sp,fp
   427bc:	df000017 	ldw	fp,0(sp)
   427c0:	dec00104 	addi	sp,sp,4
   427c4:	f800283a 	ret

000427c8 <alt_get_errno>:
   427c8:	defffe04 	addi	sp,sp,-8
   427cc:	dfc00115 	stw	ra,4(sp)
   427d0:	df000015 	stw	fp,0(sp)
   427d4:	d839883a 	mov	fp,sp
   427d8:	d0a00917 	ldw	r2,-32732(gp)
   427dc:	10000326 	beq	r2,zero,427ec <alt_get_errno+0x24>
   427e0:	d0a00917 	ldw	r2,-32732(gp)
   427e4:	103ee83a 	callr	r2
   427e8:	00000106 	br	427f0 <alt_get_errno+0x28>
   427ec:	d0a6f004 	addi	r2,gp,-25664
   427f0:	e037883a 	mov	sp,fp
   427f4:	dfc00117 	ldw	ra,4(sp)
   427f8:	df000017 	ldw	fp,0(sp)
   427fc:	dec00204 	addi	sp,sp,8
   42800:	f800283a 	ret

00042804 <fstat>:
   42804:	defffb04 	addi	sp,sp,-20
   42808:	dfc00415 	stw	ra,16(sp)
   4280c:	df000315 	stw	fp,12(sp)
   42810:	df000304 	addi	fp,sp,12
   42814:	e13ffe15 	stw	r4,-8(fp)
   42818:	e17fff15 	stw	r5,-4(fp)
   4281c:	e0bffe17 	ldw	r2,-8(fp)
   42820:	10000816 	blt	r2,zero,42844 <fstat+0x40>
   42824:	01400304 	movi	r5,12
   42828:	e13ffe17 	ldw	r4,-8(fp)
   4282c:	00426600 	call	42660 <__mulsi3>
   42830:	1007883a 	mov	r3,r2
   42834:	00800174 	movhi	r2,5
   42838:	10b70704 	addi	r2,r2,-9188
   4283c:	1885883a 	add	r2,r3,r2
   42840:	00000106 	br	42848 <fstat+0x44>
   42844:	0005883a 	mov	r2,zero
   42848:	e0bffd15 	stw	r2,-12(fp)
   4284c:	e0bffd17 	ldw	r2,-12(fp)
   42850:	10001026 	beq	r2,zero,42894 <fstat+0x90>
   42854:	e0bffd17 	ldw	r2,-12(fp)
   42858:	10800017 	ldw	r2,0(r2)
   4285c:	10800817 	ldw	r2,32(r2)
   42860:	10000726 	beq	r2,zero,42880 <fstat+0x7c>
   42864:	e0bffd17 	ldw	r2,-12(fp)
   42868:	10800017 	ldw	r2,0(r2)
   4286c:	10800817 	ldw	r2,32(r2)
   42870:	e17fff17 	ldw	r5,-4(fp)
   42874:	e13ffd17 	ldw	r4,-12(fp)
   42878:	103ee83a 	callr	r2
   4287c:	00000a06 	br	428a8 <fstat+0xa4>
   42880:	e0bfff17 	ldw	r2,-4(fp)
   42884:	00c80004 	movi	r3,8192
   42888:	10c00115 	stw	r3,4(r2)
   4288c:	0005883a 	mov	r2,zero
   42890:	00000506 	br	428a8 <fstat+0xa4>
   42894:	00427c80 	call	427c8 <alt_get_errno>
   42898:	1007883a 	mov	r3,r2
   4289c:	00801444 	movi	r2,81
   428a0:	18800015 	stw	r2,0(r3)
   428a4:	00bfffc4 	movi	r2,-1
   428a8:	e037883a 	mov	sp,fp
   428ac:	dfc00117 	ldw	ra,4(sp)
   428b0:	df000017 	ldw	fp,0(sp)
   428b4:	dec00204 	addi	sp,sp,8
   428b8:	f800283a 	ret

000428bc <alt_ic_isr_register>:
   428bc:	defff904 	addi	sp,sp,-28
   428c0:	dfc00615 	stw	ra,24(sp)
   428c4:	df000515 	stw	fp,20(sp)
   428c8:	df000504 	addi	fp,sp,20
   428cc:	e13ffc15 	stw	r4,-16(fp)
   428d0:	e17ffd15 	stw	r5,-12(fp)
   428d4:	e1bffe15 	stw	r6,-8(fp)
   428d8:	e1ffff15 	stw	r7,-4(fp)
   428dc:	e0800217 	ldw	r2,8(fp)
   428e0:	d8800015 	stw	r2,0(sp)
   428e4:	e1ffff17 	ldw	r7,-4(fp)
   428e8:	e1bffe17 	ldw	r6,-8(fp)
   428ec:	e17ffd17 	ldw	r5,-12(fp)
   428f0:	e13ffc17 	ldw	r4,-16(fp)
   428f4:	0042a6c0 	call	42a6c <alt_iic_isr_register>
   428f8:	e037883a 	mov	sp,fp
   428fc:	dfc00117 	ldw	ra,4(sp)
   42900:	df000017 	ldw	fp,0(sp)
   42904:	dec00204 	addi	sp,sp,8
   42908:	f800283a 	ret

0004290c <alt_ic_irq_enable>:
   4290c:	defff904 	addi	sp,sp,-28
   42910:	df000615 	stw	fp,24(sp)
   42914:	df000604 	addi	fp,sp,24
   42918:	e13ffe15 	stw	r4,-8(fp)
   4291c:	e17fff15 	stw	r5,-4(fp)
   42920:	e0bfff17 	ldw	r2,-4(fp)
   42924:	e0bffa15 	stw	r2,-24(fp)
   42928:	0005303a 	rdctl	r2,status
   4292c:	e0bffb15 	stw	r2,-20(fp)
   42930:	e0fffb17 	ldw	r3,-20(fp)
   42934:	00bfff84 	movi	r2,-2
   42938:	1884703a 	and	r2,r3,r2
   4293c:	1001703a 	wrctl	status,r2
   42940:	e0bffb17 	ldw	r2,-20(fp)
   42944:	e0bffc15 	stw	r2,-16(fp)
   42948:	00c00044 	movi	r3,1
   4294c:	e0bffa17 	ldw	r2,-24(fp)
   42950:	1884983a 	sll	r2,r3,r2
   42954:	1007883a 	mov	r3,r2
   42958:	d0a6f217 	ldw	r2,-25656(gp)
   4295c:	1884b03a 	or	r2,r3,r2
   42960:	d0a6f215 	stw	r2,-25656(gp)
   42964:	d0a6f217 	ldw	r2,-25656(gp)
   42968:	100170fa 	wrctl	ienable,r2
   4296c:	e0bffc17 	ldw	r2,-16(fp)
   42970:	e0bffd15 	stw	r2,-12(fp)
   42974:	e0bffd17 	ldw	r2,-12(fp)
   42978:	1001703a 	wrctl	status,r2
   4297c:	0005883a 	mov	r2,zero
   42980:	0001883a 	nop
   42984:	e037883a 	mov	sp,fp
   42988:	df000017 	ldw	fp,0(sp)
   4298c:	dec00104 	addi	sp,sp,4
   42990:	f800283a 	ret

00042994 <alt_ic_irq_disable>:
   42994:	defff904 	addi	sp,sp,-28
   42998:	df000615 	stw	fp,24(sp)
   4299c:	df000604 	addi	fp,sp,24
   429a0:	e13ffe15 	stw	r4,-8(fp)
   429a4:	e17fff15 	stw	r5,-4(fp)
   429a8:	e0bfff17 	ldw	r2,-4(fp)
   429ac:	e0bffa15 	stw	r2,-24(fp)
   429b0:	0005303a 	rdctl	r2,status
   429b4:	e0bffb15 	stw	r2,-20(fp)
   429b8:	e0fffb17 	ldw	r3,-20(fp)
   429bc:	00bfff84 	movi	r2,-2
   429c0:	1884703a 	and	r2,r3,r2
   429c4:	1001703a 	wrctl	status,r2
   429c8:	e0bffb17 	ldw	r2,-20(fp)
   429cc:	e0bffc15 	stw	r2,-16(fp)
   429d0:	00c00044 	movi	r3,1
   429d4:	e0bffa17 	ldw	r2,-24(fp)
   429d8:	1884983a 	sll	r2,r3,r2
   429dc:	0084303a 	nor	r2,zero,r2
   429e0:	1007883a 	mov	r3,r2
   429e4:	d0a6f217 	ldw	r2,-25656(gp)
   429e8:	1884703a 	and	r2,r3,r2
   429ec:	d0a6f215 	stw	r2,-25656(gp)
   429f0:	d0a6f217 	ldw	r2,-25656(gp)
   429f4:	100170fa 	wrctl	ienable,r2
   429f8:	e0bffc17 	ldw	r2,-16(fp)
   429fc:	e0bffd15 	stw	r2,-12(fp)
   42a00:	e0bffd17 	ldw	r2,-12(fp)
   42a04:	1001703a 	wrctl	status,r2
   42a08:	0005883a 	mov	r2,zero
   42a0c:	0001883a 	nop
   42a10:	e037883a 	mov	sp,fp
   42a14:	df000017 	ldw	fp,0(sp)
   42a18:	dec00104 	addi	sp,sp,4
   42a1c:	f800283a 	ret

00042a20 <alt_ic_irq_enabled>:
   42a20:	defffc04 	addi	sp,sp,-16
   42a24:	df000315 	stw	fp,12(sp)
   42a28:	df000304 	addi	fp,sp,12
   42a2c:	e13ffe15 	stw	r4,-8(fp)
   42a30:	e17fff15 	stw	r5,-4(fp)
   42a34:	000530fa 	rdctl	r2,ienable
   42a38:	e0bffd15 	stw	r2,-12(fp)
   42a3c:	00c00044 	movi	r3,1
   42a40:	e0bfff17 	ldw	r2,-4(fp)
   42a44:	1884983a 	sll	r2,r3,r2
   42a48:	1007883a 	mov	r3,r2
   42a4c:	e0bffd17 	ldw	r2,-12(fp)
   42a50:	1884703a 	and	r2,r3,r2
   42a54:	1004c03a 	cmpne	r2,r2,zero
   42a58:	10803fcc 	andi	r2,r2,255
   42a5c:	e037883a 	mov	sp,fp
   42a60:	df000017 	ldw	fp,0(sp)
   42a64:	dec00104 	addi	sp,sp,4
   42a68:	f800283a 	ret

00042a6c <alt_iic_isr_register>:
   42a6c:	defff504 	addi	sp,sp,-44
   42a70:	dfc00a15 	stw	ra,40(sp)
   42a74:	df000915 	stw	fp,36(sp)
   42a78:	df000904 	addi	fp,sp,36
   42a7c:	e13ffc15 	stw	r4,-16(fp)
   42a80:	e17ffd15 	stw	r5,-12(fp)
   42a84:	e1bffe15 	stw	r6,-8(fp)
   42a88:	e1ffff15 	stw	r7,-4(fp)
   42a8c:	00bffa84 	movi	r2,-22
   42a90:	e0bff715 	stw	r2,-36(fp)
   42a94:	e0bffd17 	ldw	r2,-12(fp)
   42a98:	e0bff815 	stw	r2,-32(fp)
   42a9c:	e0bff817 	ldw	r2,-32(fp)
   42aa0:	10800808 	cmpgei	r2,r2,32
   42aa4:	1000271e 	bne	r2,zero,42b44 <alt_iic_isr_register+0xd8>
   42aa8:	0005303a 	rdctl	r2,status
   42aac:	e0bffb15 	stw	r2,-20(fp)
   42ab0:	e0fffb17 	ldw	r3,-20(fp)
   42ab4:	00bfff84 	movi	r2,-2
   42ab8:	1884703a 	and	r2,r3,r2
   42abc:	1001703a 	wrctl	status,r2
   42ac0:	e0bffb17 	ldw	r2,-20(fp)
   42ac4:	e0bffa15 	stw	r2,-24(fp)
   42ac8:	00800174 	movhi	r2,5
   42acc:	108a9d04 	addi	r2,r2,10868
   42ad0:	e0fff817 	ldw	r3,-32(fp)
   42ad4:	180690fa 	slli	r3,r3,3
   42ad8:	10c5883a 	add	r2,r2,r3
   42adc:	e0fffe17 	ldw	r3,-8(fp)
   42ae0:	10c00015 	stw	r3,0(r2)
   42ae4:	00800174 	movhi	r2,5
   42ae8:	108a9d04 	addi	r2,r2,10868
   42aec:	e0fff817 	ldw	r3,-32(fp)
   42af0:	180690fa 	slli	r3,r3,3
   42af4:	10c5883a 	add	r2,r2,r3
   42af8:	10800104 	addi	r2,r2,4
   42afc:	e0ffff17 	ldw	r3,-4(fp)
   42b00:	10c00015 	stw	r3,0(r2)
   42b04:	e0bffe17 	ldw	r2,-8(fp)
   42b08:	10000526 	beq	r2,zero,42b20 <alt_iic_isr_register+0xb4>
   42b0c:	e0bff817 	ldw	r2,-32(fp)
   42b10:	100b883a 	mov	r5,r2
   42b14:	e13ffc17 	ldw	r4,-16(fp)
   42b18:	004290c0 	call	4290c <alt_ic_irq_enable>
   42b1c:	00000406 	br	42b30 <alt_iic_isr_register+0xc4>
   42b20:	e0bff817 	ldw	r2,-32(fp)
   42b24:	100b883a 	mov	r5,r2
   42b28:	e13ffc17 	ldw	r4,-16(fp)
   42b2c:	00429940 	call	42994 <alt_ic_irq_disable>
   42b30:	e0bff715 	stw	r2,-36(fp)
   42b34:	e0bffa17 	ldw	r2,-24(fp)
   42b38:	e0bff915 	stw	r2,-28(fp)
   42b3c:	e0bff917 	ldw	r2,-28(fp)
   42b40:	1001703a 	wrctl	status,r2
   42b44:	e0bff717 	ldw	r2,-36(fp)
   42b48:	e037883a 	mov	sp,fp
   42b4c:	dfc00117 	ldw	ra,4(sp)
   42b50:	df000017 	ldw	fp,0(sp)
   42b54:	dec00204 	addi	sp,sp,8
   42b58:	f800283a 	ret

00042b5c <alt_get_errno>:
   42b5c:	defffe04 	addi	sp,sp,-8
   42b60:	dfc00115 	stw	ra,4(sp)
   42b64:	df000015 	stw	fp,0(sp)
   42b68:	d839883a 	mov	fp,sp
   42b6c:	d0a00917 	ldw	r2,-32732(gp)
   42b70:	10000326 	beq	r2,zero,42b80 <alt_get_errno+0x24>
   42b74:	d0a00917 	ldw	r2,-32732(gp)
   42b78:	103ee83a 	callr	r2
   42b7c:	00000106 	br	42b84 <alt_get_errno+0x28>
   42b80:	d0a6f004 	addi	r2,gp,-25664
   42b84:	e037883a 	mov	sp,fp
   42b88:	dfc00117 	ldw	ra,4(sp)
   42b8c:	df000017 	ldw	fp,0(sp)
   42b90:	dec00204 	addi	sp,sp,8
   42b94:	f800283a 	ret

00042b98 <isatty>:
   42b98:	deffed04 	addi	sp,sp,-76
   42b9c:	dfc01215 	stw	ra,72(sp)
   42ba0:	df001115 	stw	fp,68(sp)
   42ba4:	df001104 	addi	fp,sp,68
   42ba8:	e13fff15 	stw	r4,-4(fp)
   42bac:	e0bfff17 	ldw	r2,-4(fp)
   42bb0:	10000816 	blt	r2,zero,42bd4 <isatty+0x3c>
   42bb4:	01400304 	movi	r5,12
   42bb8:	e13fff17 	ldw	r4,-4(fp)
   42bbc:	00426600 	call	42660 <__mulsi3>
   42bc0:	1007883a 	mov	r3,r2
   42bc4:	00800174 	movhi	r2,5
   42bc8:	10b70704 	addi	r2,r2,-9188
   42bcc:	1885883a 	add	r2,r3,r2
   42bd0:	00000106 	br	42bd8 <isatty+0x40>
   42bd4:	0005883a 	mov	r2,zero
   42bd8:	e0bfef15 	stw	r2,-68(fp)
   42bdc:	e0bfef17 	ldw	r2,-68(fp)
   42be0:	10000e26 	beq	r2,zero,42c1c <isatty+0x84>
   42be4:	e0bfef17 	ldw	r2,-68(fp)
   42be8:	10800017 	ldw	r2,0(r2)
   42bec:	10800817 	ldw	r2,32(r2)
   42bf0:	1000021e 	bne	r2,zero,42bfc <isatty+0x64>
   42bf4:	00800044 	movi	r2,1
   42bf8:	00000d06 	br	42c30 <isatty+0x98>
   42bfc:	e0bff004 	addi	r2,fp,-64
   42c00:	100b883a 	mov	r5,r2
   42c04:	e13fff17 	ldw	r4,-4(fp)
   42c08:	00428040 	call	42804 <fstat>
   42c0c:	e0bff117 	ldw	r2,-60(fp)
   42c10:	10880020 	cmpeqi	r2,r2,8192
   42c14:	10803fcc 	andi	r2,r2,255
   42c18:	00000506 	br	42c30 <isatty+0x98>
   42c1c:	0042b5c0 	call	42b5c <alt_get_errno>
   42c20:	1007883a 	mov	r3,r2
   42c24:	00801444 	movi	r2,81
   42c28:	18800015 	stw	r2,0(r3)
   42c2c:	0005883a 	mov	r2,zero
   42c30:	e037883a 	mov	sp,fp
   42c34:	dfc00117 	ldw	ra,4(sp)
   42c38:	df000017 	ldw	fp,0(sp)
   42c3c:	dec00204 	addi	sp,sp,8
   42c40:	f800283a 	ret

00042c44 <alt_load_section>:
   42c44:	defffc04 	addi	sp,sp,-16
   42c48:	df000315 	stw	fp,12(sp)
   42c4c:	df000304 	addi	fp,sp,12
   42c50:	e13ffd15 	stw	r4,-12(fp)
   42c54:	e17ffe15 	stw	r5,-8(fp)
   42c58:	e1bfff15 	stw	r6,-4(fp)
   42c5c:	e0fffe17 	ldw	r3,-8(fp)
   42c60:	e0bffd17 	ldw	r2,-12(fp)
   42c64:	18800c26 	beq	r3,r2,42c98 <alt_load_section+0x54>
   42c68:	00000806 	br	42c8c <alt_load_section+0x48>
   42c6c:	e0bffe17 	ldw	r2,-8(fp)
   42c70:	10c00104 	addi	r3,r2,4
   42c74:	e0fffe15 	stw	r3,-8(fp)
   42c78:	e0fffd17 	ldw	r3,-12(fp)
   42c7c:	19000104 	addi	r4,r3,4
   42c80:	e13ffd15 	stw	r4,-12(fp)
   42c84:	18c00017 	ldw	r3,0(r3)
   42c88:	10c00015 	stw	r3,0(r2)
   42c8c:	e0fffe17 	ldw	r3,-8(fp)
   42c90:	e0bfff17 	ldw	r2,-4(fp)
   42c94:	18bff51e 	bne	r3,r2,42c6c <__alt_data_end+0xfffdd46c>
   42c98:	0001883a 	nop
   42c9c:	e037883a 	mov	sp,fp
   42ca0:	df000017 	ldw	fp,0(sp)
   42ca4:	dec00104 	addi	sp,sp,4
   42ca8:	f800283a 	ret

00042cac <alt_load>:
   42cac:	defffe04 	addi	sp,sp,-8
   42cb0:	dfc00115 	stw	ra,4(sp)
   42cb4:	df000015 	stw	fp,0(sp)
   42cb8:	d839883a 	mov	fp,sp
   42cbc:	01800174 	movhi	r6,5
   42cc0:	31bbaf04 	addi	r6,r6,-4420
   42cc4:	01400174 	movhi	r5,5
   42cc8:	2974f204 	addi	r5,r5,-11320
   42ccc:	01000174 	movhi	r4,5
   42cd0:	213baf04 	addi	r4,r4,-4420
   42cd4:	0042c440 	call	42c44 <alt_load_section>
   42cd8:	01800134 	movhi	r6,4
   42cdc:	31808c04 	addi	r6,r6,560
   42ce0:	01400134 	movhi	r5,4
   42ce4:	29400804 	addi	r5,r5,32
   42ce8:	01000134 	movhi	r4,4
   42cec:	21000804 	addi	r4,r4,32
   42cf0:	0042c440 	call	42c44 <alt_load_section>
   42cf4:	01800174 	movhi	r6,5
   42cf8:	31b4f204 	addi	r6,r6,-11320
   42cfc:	01400174 	movhi	r5,5
   42d00:	29749d04 	addi	r5,r5,-11660
   42d04:	01000174 	movhi	r4,5
   42d08:	21349d04 	addi	r4,r4,-11660
   42d0c:	0042c440 	call	42c44 <alt_load_section>
   42d10:	004bdd80 	call	4bdd8 <alt_dcache_flush_all>
   42d14:	004bf980 	call	4bf98 <alt_icache_flush_all>
   42d18:	0001883a 	nop
   42d1c:	e037883a 	mov	sp,fp
   42d20:	dfc00117 	ldw	ra,4(sp)
   42d24:	df000017 	ldw	fp,0(sp)
   42d28:	dec00204 	addi	sp,sp,8
   42d2c:	f800283a 	ret

00042d30 <alt_get_errno>:
   42d30:	defffe04 	addi	sp,sp,-8
   42d34:	dfc00115 	stw	ra,4(sp)
   42d38:	df000015 	stw	fp,0(sp)
   42d3c:	d839883a 	mov	fp,sp
   42d40:	d0a00917 	ldw	r2,-32732(gp)
   42d44:	10000326 	beq	r2,zero,42d54 <alt_get_errno+0x24>
   42d48:	d0a00917 	ldw	r2,-32732(gp)
   42d4c:	103ee83a 	callr	r2
   42d50:	00000106 	br	42d58 <alt_get_errno+0x28>
   42d54:	d0a6f004 	addi	r2,gp,-25664
   42d58:	e037883a 	mov	sp,fp
   42d5c:	dfc00117 	ldw	ra,4(sp)
   42d60:	df000017 	ldw	fp,0(sp)
   42d64:	dec00204 	addi	sp,sp,8
   42d68:	f800283a 	ret

00042d6c <lseek>:
   42d6c:	defff904 	addi	sp,sp,-28
   42d70:	dfc00615 	stw	ra,24(sp)
   42d74:	df000515 	stw	fp,20(sp)
   42d78:	df000504 	addi	fp,sp,20
   42d7c:	e13ffd15 	stw	r4,-12(fp)
   42d80:	e17ffe15 	stw	r5,-8(fp)
   42d84:	e1bfff15 	stw	r6,-4(fp)
   42d88:	e03ffb15 	stw	zero,-20(fp)
   42d8c:	e0bffd17 	ldw	r2,-12(fp)
   42d90:	10000816 	blt	r2,zero,42db4 <lseek+0x48>
   42d94:	01400304 	movi	r5,12
   42d98:	e13ffd17 	ldw	r4,-12(fp)
   42d9c:	00426600 	call	42660 <__mulsi3>
   42da0:	1007883a 	mov	r3,r2
   42da4:	00800174 	movhi	r2,5
   42da8:	10b70704 	addi	r2,r2,-9188
   42dac:	1885883a 	add	r2,r3,r2
   42db0:	00000106 	br	42db8 <lseek+0x4c>
   42db4:	0005883a 	mov	r2,zero
   42db8:	e0bffc15 	stw	r2,-16(fp)
   42dbc:	e0bffc17 	ldw	r2,-16(fp)
   42dc0:	10001026 	beq	r2,zero,42e04 <lseek+0x98>
   42dc4:	e0bffc17 	ldw	r2,-16(fp)
   42dc8:	10800017 	ldw	r2,0(r2)
   42dcc:	10800717 	ldw	r2,28(r2)
   42dd0:	10000926 	beq	r2,zero,42df8 <lseek+0x8c>
   42dd4:	e0bffc17 	ldw	r2,-16(fp)
   42dd8:	10800017 	ldw	r2,0(r2)
   42ddc:	10800717 	ldw	r2,28(r2)
   42de0:	e1bfff17 	ldw	r6,-4(fp)
   42de4:	e17ffe17 	ldw	r5,-8(fp)
   42de8:	e13ffc17 	ldw	r4,-16(fp)
   42dec:	103ee83a 	callr	r2
   42df0:	e0bffb15 	stw	r2,-20(fp)
   42df4:	00000506 	br	42e0c <lseek+0xa0>
   42df8:	00bfde84 	movi	r2,-134
   42dfc:	e0bffb15 	stw	r2,-20(fp)
   42e00:	00000206 	br	42e0c <lseek+0xa0>
   42e04:	00bfebc4 	movi	r2,-81
   42e08:	e0bffb15 	stw	r2,-20(fp)
   42e0c:	e0bffb17 	ldw	r2,-20(fp)
   42e10:	1000070e 	bge	r2,zero,42e30 <lseek+0xc4>
   42e14:	0042d300 	call	42d30 <alt_get_errno>
   42e18:	1007883a 	mov	r3,r2
   42e1c:	e0bffb17 	ldw	r2,-20(fp)
   42e20:	0085c83a 	sub	r2,zero,r2
   42e24:	18800015 	stw	r2,0(r3)
   42e28:	00bfffc4 	movi	r2,-1
   42e2c:	e0bffb15 	stw	r2,-20(fp)
   42e30:	e0bffb17 	ldw	r2,-20(fp)
   42e34:	e037883a 	mov	sp,fp
   42e38:	dfc00117 	ldw	ra,4(sp)
   42e3c:	df000017 	ldw	fp,0(sp)
   42e40:	dec00204 	addi	sp,sp,8
   42e44:	f800283a 	ret

00042e48 <alt_main>:
   42e48:	defff904 	addi	sp,sp,-28
   42e4c:	dfc00615 	stw	ra,24(sp)
   42e50:	df000515 	stw	fp,20(sp)
   42e54:	df000504 	addi	fp,sp,20
   42e58:	0009883a 	mov	r4,zero
   42e5c:	004adf00 	call	4adf0 <alt_irq_init>
   42e60:	0043e340 	call	43e34 <OSInit>
   42e64:	01000044 	movi	r4,1
   42e68:	00487900 	call	48790 <OSSemCreate>
   42e6c:	d0a6f715 	stw	r2,-25636(gp)
   42e70:	01000044 	movi	r4,1
   42e74:	00487900 	call	48790 <OSSemCreate>
   42e78:	d0a6f915 	stw	r2,-25628(gp)
   42e7c:	d0a6f104 	addi	r2,gp,-25660
   42e80:	e0bffc15 	stw	r2,-16(fp)
   42e84:	00800044 	movi	r2,1
   42e88:	e0bffd0d 	sth	r2,-12(fp)
   42e8c:	e0bffd0b 	ldhu	r2,-12(fp)
   42e90:	1009883a 	mov	r4,r2
   42e94:	00487900 	call	48790 <OSSemCreate>
   42e98:	1007883a 	mov	r3,r2
   42e9c:	e0bffc17 	ldw	r2,-16(fp)
   42ea0:	10c00015 	stw	r3,0(r2)
   42ea4:	004ae280 	call	4ae28 <alt_sys_init>
   42ea8:	01800174 	movhi	r6,5
   42eac:	31b4a104 	addi	r6,r6,-11644
   42eb0:	01400174 	movhi	r5,5
   42eb4:	2974a104 	addi	r5,r5,-11644
   42eb8:	01000174 	movhi	r4,5
   42ebc:	2134a104 	addi	r4,r4,-11644
   42ec0:	004c1380 	call	4c138 <alt_io_redirect>
   42ec4:	004bed80 	call	4bed8 <_do_ctors>
   42ec8:	01000174 	movhi	r4,5
   42ecc:	212fce04 	addi	r4,r4,-16584
   42ed0:	004cbe40 	call	4cbe4 <atexit>
   42ed4:	d0a6f317 	ldw	r2,-25652(gp)
   42ed8:	d0e6f417 	ldw	r3,-25648(gp)
   42edc:	d126f517 	ldw	r4,-25644(gp)
   42ee0:	200d883a 	mov	r6,r4
   42ee4:	180b883a 	mov	r5,r3
   42ee8:	1009883a 	mov	r4,r2
   42eec:	00405300 	call	40530 <main>
   42ef0:	e0bffb15 	stw	r2,-20(fp)
   42ef4:	01000044 	movi	r4,1
   42ef8:	00426c40 	call	426c4 <close>
   42efc:	e13ffb17 	ldw	r4,-20(fp)
   42f00:	004cbf80 	call	4cbf8 <exit>

00042f04 <alt_get_errno>:
   42f04:	defffe04 	addi	sp,sp,-8
   42f08:	dfc00115 	stw	ra,4(sp)
   42f0c:	df000015 	stw	fp,0(sp)
   42f10:	d839883a 	mov	fp,sp
   42f14:	d0a00917 	ldw	r2,-32732(gp)
   42f18:	10000326 	beq	r2,zero,42f28 <alt_get_errno+0x24>
   42f1c:	d0a00917 	ldw	r2,-32732(gp)
   42f20:	103ee83a 	callr	r2
   42f24:	00000106 	br	42f2c <alt_get_errno+0x28>
   42f28:	d0a6f004 	addi	r2,gp,-25664
   42f2c:	e037883a 	mov	sp,fp
   42f30:	dfc00117 	ldw	ra,4(sp)
   42f34:	df000017 	ldw	fp,0(sp)
   42f38:	dec00204 	addi	sp,sp,8
   42f3c:	f800283a 	ret

00042f40 <read>:
   42f40:	defff904 	addi	sp,sp,-28
   42f44:	dfc00615 	stw	ra,24(sp)
   42f48:	df000515 	stw	fp,20(sp)
   42f4c:	df000504 	addi	fp,sp,20
   42f50:	e13ffd15 	stw	r4,-12(fp)
   42f54:	e17ffe15 	stw	r5,-8(fp)
   42f58:	e1bfff15 	stw	r6,-4(fp)
   42f5c:	e0bffd17 	ldw	r2,-12(fp)
   42f60:	10000816 	blt	r2,zero,42f84 <read+0x44>
   42f64:	01400304 	movi	r5,12
   42f68:	e13ffd17 	ldw	r4,-12(fp)
   42f6c:	00426600 	call	42660 <__mulsi3>
   42f70:	1007883a 	mov	r3,r2
   42f74:	00800174 	movhi	r2,5
   42f78:	10b70704 	addi	r2,r2,-9188
   42f7c:	1885883a 	add	r2,r3,r2
   42f80:	00000106 	br	42f88 <read+0x48>
   42f84:	0005883a 	mov	r2,zero
   42f88:	e0bffb15 	stw	r2,-20(fp)
   42f8c:	e0bffb17 	ldw	r2,-20(fp)
   42f90:	10002226 	beq	r2,zero,4301c <read+0xdc>
   42f94:	e0bffb17 	ldw	r2,-20(fp)
   42f98:	10800217 	ldw	r2,8(r2)
   42f9c:	108000cc 	andi	r2,r2,3
   42fa0:	10800060 	cmpeqi	r2,r2,1
   42fa4:	1000181e 	bne	r2,zero,43008 <read+0xc8>
   42fa8:	e0bffb17 	ldw	r2,-20(fp)
   42fac:	10800017 	ldw	r2,0(r2)
   42fb0:	10800517 	ldw	r2,20(r2)
   42fb4:	10001426 	beq	r2,zero,43008 <read+0xc8>
   42fb8:	e0bffb17 	ldw	r2,-20(fp)
   42fbc:	10800017 	ldw	r2,0(r2)
   42fc0:	10800517 	ldw	r2,20(r2)
   42fc4:	e0ffff17 	ldw	r3,-4(fp)
   42fc8:	180d883a 	mov	r6,r3
   42fcc:	e17ffe17 	ldw	r5,-8(fp)
   42fd0:	e13ffb17 	ldw	r4,-20(fp)
   42fd4:	103ee83a 	callr	r2
   42fd8:	e0bffc15 	stw	r2,-16(fp)
   42fdc:	e0bffc17 	ldw	r2,-16(fp)
   42fe0:	1000070e 	bge	r2,zero,43000 <read+0xc0>
   42fe4:	0042f040 	call	42f04 <alt_get_errno>
   42fe8:	1007883a 	mov	r3,r2
   42fec:	e0bffc17 	ldw	r2,-16(fp)
   42ff0:	0085c83a 	sub	r2,zero,r2
   42ff4:	18800015 	stw	r2,0(r3)
   42ff8:	00bfffc4 	movi	r2,-1
   42ffc:	00000c06 	br	43030 <read+0xf0>
   43000:	e0bffc17 	ldw	r2,-16(fp)
   43004:	00000a06 	br	43030 <read+0xf0>
   43008:	0042f040 	call	42f04 <alt_get_errno>
   4300c:	1007883a 	mov	r3,r2
   43010:	00800344 	movi	r2,13
   43014:	18800015 	stw	r2,0(r3)
   43018:	00000406 	br	4302c <read+0xec>
   4301c:	0042f040 	call	42f04 <alt_get_errno>
   43020:	1007883a 	mov	r3,r2
   43024:	00801444 	movi	r2,81
   43028:	18800015 	stw	r2,0(r3)
   4302c:	00bfffc4 	movi	r2,-1
   43030:	e037883a 	mov	sp,fp
   43034:	dfc00117 	ldw	ra,4(sp)
   43038:	df000017 	ldw	fp,0(sp)
   4303c:	dec00204 	addi	sp,sp,8
   43040:	f800283a 	ret

00043044 <alt_release_fd>:
   43044:	defffc04 	addi	sp,sp,-16
   43048:	dfc00315 	stw	ra,12(sp)
   4304c:	df000215 	stw	fp,8(sp)
   43050:	dc000115 	stw	r16,4(sp)
   43054:	df000204 	addi	fp,sp,8
   43058:	e13ffe15 	stw	r4,-8(fp)
   4305c:	e0bffe17 	ldw	r2,-8(fp)
   43060:	108000d0 	cmplti	r2,r2,3
   43064:	1000111e 	bne	r2,zero,430ac <alt_release_fd+0x68>
   43068:	04000174 	movhi	r16,5
   4306c:	84370704 	addi	r16,r16,-9188
   43070:	e0bffe17 	ldw	r2,-8(fp)
   43074:	01400304 	movi	r5,12
   43078:	1009883a 	mov	r4,r2
   4307c:	00426600 	call	42660 <__mulsi3>
   43080:	8085883a 	add	r2,r16,r2
   43084:	10800204 	addi	r2,r2,8
   43088:	10000015 	stw	zero,0(r2)
   4308c:	04000174 	movhi	r16,5
   43090:	84370704 	addi	r16,r16,-9188
   43094:	e0bffe17 	ldw	r2,-8(fp)
   43098:	01400304 	movi	r5,12
   4309c:	1009883a 	mov	r4,r2
   430a0:	00426600 	call	42660 <__mulsi3>
   430a4:	8085883a 	add	r2,r16,r2
   430a8:	10000015 	stw	zero,0(r2)
   430ac:	0001883a 	nop
   430b0:	e6ffff04 	addi	sp,fp,-4
   430b4:	dfc00217 	ldw	ra,8(sp)
   430b8:	df000117 	ldw	fp,4(sp)
   430bc:	dc000017 	ldw	r16,0(sp)
   430c0:	dec00304 	addi	sp,sp,12
   430c4:	f800283a 	ret

000430c8 <sbrk>:
   430c8:	defff904 	addi	sp,sp,-28
   430cc:	df000615 	stw	fp,24(sp)
   430d0:	df000604 	addi	fp,sp,24
   430d4:	e13fff15 	stw	r4,-4(fp)
   430d8:	0005303a 	rdctl	r2,status
   430dc:	e0bffe15 	stw	r2,-8(fp)
   430e0:	e0fffe17 	ldw	r3,-8(fp)
   430e4:	00bfff84 	movi	r2,-2
   430e8:	1884703a 	and	r2,r3,r2
   430ec:	1001703a 	wrctl	status,r2
   430f0:	e0bffe17 	ldw	r2,-8(fp)
   430f4:	e0bffb15 	stw	r2,-20(fp)
   430f8:	d0a00b17 	ldw	r2,-32724(gp)
   430fc:	10c000c4 	addi	r3,r2,3
   43100:	00bfff04 	movi	r2,-4
   43104:	1884703a 	and	r2,r3,r2
   43108:	d0a00b15 	stw	r2,-32724(gp)
   4310c:	d0e00b17 	ldw	r3,-32724(gp)
   43110:	e0bfff17 	ldw	r2,-4(fp)
   43114:	1887883a 	add	r3,r3,r2
   43118:	008001b4 	movhi	r2,6
   4311c:	10960004 	addi	r2,r2,22528
   43120:	10c0062e 	bgeu	r2,r3,4313c <sbrk+0x74>
   43124:	e0bffb17 	ldw	r2,-20(fp)
   43128:	e0bffa15 	stw	r2,-24(fp)
   4312c:	e0bffa17 	ldw	r2,-24(fp)
   43130:	1001703a 	wrctl	status,r2
   43134:	00bfffc4 	movi	r2,-1
   43138:	00000b06 	br	43168 <sbrk+0xa0>
   4313c:	d0a00b17 	ldw	r2,-32724(gp)
   43140:	e0bffd15 	stw	r2,-12(fp)
   43144:	d0e00b17 	ldw	r3,-32724(gp)
   43148:	e0bfff17 	ldw	r2,-4(fp)
   4314c:	1885883a 	add	r2,r3,r2
   43150:	d0a00b15 	stw	r2,-32724(gp)
   43154:	e0bffb17 	ldw	r2,-20(fp)
   43158:	e0bffc15 	stw	r2,-16(fp)
   4315c:	e0bffc17 	ldw	r2,-16(fp)
   43160:	1001703a 	wrctl	status,r2
   43164:	e0bffd17 	ldw	r2,-12(fp)
   43168:	e037883a 	mov	sp,fp
   4316c:	df000017 	ldw	fp,0(sp)
   43170:	dec00104 	addi	sp,sp,4
   43174:	f800283a 	ret

00043178 <alt_get_errno>:
   43178:	defffe04 	addi	sp,sp,-8
   4317c:	dfc00115 	stw	ra,4(sp)
   43180:	df000015 	stw	fp,0(sp)
   43184:	d839883a 	mov	fp,sp
   43188:	d0a00917 	ldw	r2,-32732(gp)
   4318c:	10000326 	beq	r2,zero,4319c <alt_get_errno+0x24>
   43190:	d0a00917 	ldw	r2,-32732(gp)
   43194:	103ee83a 	callr	r2
   43198:	00000106 	br	431a0 <alt_get_errno+0x28>
   4319c:	d0a6f004 	addi	r2,gp,-25664
   431a0:	e037883a 	mov	sp,fp
   431a4:	dfc00117 	ldw	ra,4(sp)
   431a8:	df000017 	ldw	fp,0(sp)
   431ac:	dec00204 	addi	sp,sp,8
   431b0:	f800283a 	ret

000431b4 <write>:
   431b4:	defff904 	addi	sp,sp,-28
   431b8:	dfc00615 	stw	ra,24(sp)
   431bc:	df000515 	stw	fp,20(sp)
   431c0:	df000504 	addi	fp,sp,20
   431c4:	e13ffd15 	stw	r4,-12(fp)
   431c8:	e17ffe15 	stw	r5,-8(fp)
   431cc:	e1bfff15 	stw	r6,-4(fp)
   431d0:	e0bffd17 	ldw	r2,-12(fp)
   431d4:	10000816 	blt	r2,zero,431f8 <write+0x44>
   431d8:	01400304 	movi	r5,12
   431dc:	e13ffd17 	ldw	r4,-12(fp)
   431e0:	00426600 	call	42660 <__mulsi3>
   431e4:	1007883a 	mov	r3,r2
   431e8:	00800174 	movhi	r2,5
   431ec:	10b70704 	addi	r2,r2,-9188
   431f0:	1885883a 	add	r2,r3,r2
   431f4:	00000106 	br	431fc <write+0x48>
   431f8:	0005883a 	mov	r2,zero
   431fc:	e0bffb15 	stw	r2,-20(fp)
   43200:	e0bffb17 	ldw	r2,-20(fp)
   43204:	10002126 	beq	r2,zero,4328c <write+0xd8>
   43208:	e0bffb17 	ldw	r2,-20(fp)
   4320c:	10800217 	ldw	r2,8(r2)
   43210:	108000cc 	andi	r2,r2,3
   43214:	10001826 	beq	r2,zero,43278 <write+0xc4>
   43218:	e0bffb17 	ldw	r2,-20(fp)
   4321c:	10800017 	ldw	r2,0(r2)
   43220:	10800617 	ldw	r2,24(r2)
   43224:	10001426 	beq	r2,zero,43278 <write+0xc4>
   43228:	e0bffb17 	ldw	r2,-20(fp)
   4322c:	10800017 	ldw	r2,0(r2)
   43230:	10800617 	ldw	r2,24(r2)
   43234:	e0ffff17 	ldw	r3,-4(fp)
   43238:	180d883a 	mov	r6,r3
   4323c:	e17ffe17 	ldw	r5,-8(fp)
   43240:	e13ffb17 	ldw	r4,-20(fp)
   43244:	103ee83a 	callr	r2
   43248:	e0bffc15 	stw	r2,-16(fp)
   4324c:	e0bffc17 	ldw	r2,-16(fp)
   43250:	1000070e 	bge	r2,zero,43270 <write+0xbc>
   43254:	00431780 	call	43178 <alt_get_errno>
   43258:	1007883a 	mov	r3,r2
   4325c:	e0bffc17 	ldw	r2,-16(fp)
   43260:	0085c83a 	sub	r2,zero,r2
   43264:	18800015 	stw	r2,0(r3)
   43268:	00bfffc4 	movi	r2,-1
   4326c:	00000c06 	br	432a0 <write+0xec>
   43270:	e0bffc17 	ldw	r2,-16(fp)
   43274:	00000a06 	br	432a0 <write+0xec>
   43278:	00431780 	call	43178 <alt_get_errno>
   4327c:	1007883a 	mov	r3,r2
   43280:	00800344 	movi	r2,13
   43284:	18800015 	stw	r2,0(r3)
   43288:	00000406 	br	4329c <write+0xe8>
   4328c:	00431780 	call	43178 <alt_get_errno>
   43290:	1007883a 	mov	r3,r2
   43294:	00801444 	movi	r2,81
   43298:	18800015 	stw	r2,0(r3)
   4329c:	00bfffc4 	movi	r2,-1
   432a0:	e037883a 	mov	sp,fp
   432a4:	dfc00117 	ldw	ra,4(sp)
   432a8:	df000017 	ldw	fp,0(sp)
   432ac:	dec00204 	addi	sp,sp,8
   432b0:	f800283a 	ret

000432b4 <__env_lock>:
   432b4:	deffdf04 	addi	sp,sp,-132
   432b8:	dfc02015 	stw	ra,128(sp)
   432bc:	df001f15 	stw	fp,124(sp)
   432c0:	df001f04 	addi	fp,sp,124
   432c4:	e13fff15 	stw	r4,-4(fp)
   432c8:	e0bfe204 	addi	r2,fp,-120
   432cc:	100b883a 	mov	r5,r2
   432d0:	01003fc4 	movi	r4,255
   432d4:	004a7180 	call	4a718 <OSTaskQuery>
   432d8:	e0bffe85 	stb	r2,-6(fp)
   432dc:	e0bffe83 	ldbu	r2,-6(fp)
   432e0:	10803fcc 	andi	r2,r2,255
   432e4:	10001e1e 	bne	r2,zero,43360 <__env_lock+0xac>
   432e8:	e0bfee83 	ldbu	r2,-70(fp)
   432ec:	10803fcc 	andi	r2,r2,255
   432f0:	e0bfe115 	stw	r2,-124(fp)
   432f4:	d0a6f717 	ldw	r2,-25636(gp)
   432f8:	e0fffd04 	addi	r3,fp,-12
   432fc:	180b883a 	mov	r5,r3
   43300:	1009883a 	mov	r4,r2
   43304:	0048f300 	call	48f30 <OSSemQuery>
   43308:	e0bffe43 	ldbu	r2,-7(fp)
   4330c:	10803fcc 	andi	r2,r2,255
   43310:	10000726 	beq	r2,zero,43330 <__env_lock+0x7c>
   43314:	d0a00c17 	ldw	r2,-32720(gp)
   43318:	e0ffe117 	ldw	r3,-124(fp)
   4331c:	1880041e 	bne	r3,r2,43330 <__env_lock+0x7c>
   43320:	d0a6f617 	ldw	r2,-25640(gp)
   43324:	10800044 	addi	r2,r2,1
   43328:	d0a6f615 	stw	r2,-25640(gp)
   4332c:	00000a06 	br	43358 <__env_lock+0xa4>
   43330:	d0a6f717 	ldw	r2,-25636(gp)
   43334:	e0fffe84 	addi	r3,fp,-6
   43338:	180d883a 	mov	r6,r3
   4333c:	000b883a 	mov	r5,zero
   43340:	1009883a 	mov	r4,r2
   43344:	0048aa80 	call	48aa8 <OSSemPend>
   43348:	00800044 	movi	r2,1
   4334c:	d0a6f615 	stw	r2,-25640(gp)
   43350:	e0bfe117 	ldw	r2,-124(fp)
   43354:	d0a00c15 	stw	r2,-32720(gp)
   43358:	0001883a 	nop
   4335c:	00000106 	br	43364 <__env_lock+0xb0>
   43360:	0001883a 	nop
   43364:	e037883a 	mov	sp,fp
   43368:	dfc00117 	ldw	ra,4(sp)
   4336c:	df000017 	ldw	fp,0(sp)
   43370:	dec00204 	addi	sp,sp,8
   43374:	f800283a 	ret

00043378 <__env_unlock>:
   43378:	defffd04 	addi	sp,sp,-12
   4337c:	dfc00215 	stw	ra,8(sp)
   43380:	df000115 	stw	fp,4(sp)
   43384:	df000104 	addi	fp,sp,4
   43388:	e13fff15 	stw	r4,-4(fp)
   4338c:	d0a6f617 	ldw	r2,-25640(gp)
   43390:	10000b26 	beq	r2,zero,433c0 <__env_unlock+0x48>
   43394:	d0a6f617 	ldw	r2,-25640(gp)
   43398:	10bfffc4 	addi	r2,r2,-1
   4339c:	d0a6f615 	stw	r2,-25640(gp)
   433a0:	d0a6f617 	ldw	r2,-25640(gp)
   433a4:	1000071e 	bne	r2,zero,433c4 <__env_unlock+0x4c>
   433a8:	00bfffc4 	movi	r2,-1
   433ac:	d0a00c15 	stw	r2,-32720(gp)
   433b0:	d0a6f717 	ldw	r2,-25636(gp)
   433b4:	1009883a 	mov	r4,r2
   433b8:	0048e200 	call	48e20 <OSSemPost>
   433bc:	00000106 	br	433c4 <__env_unlock+0x4c>
   433c0:	0001883a 	nop
   433c4:	e037883a 	mov	sp,fp
   433c8:	dfc00117 	ldw	ra,4(sp)
   433cc:	df000017 	ldw	fp,0(sp)
   433d0:	dec00204 	addi	sp,sp,8
   433d4:	f800283a 	ret

000433d8 <__malloc_lock>:
   433d8:	deffdb04 	addi	sp,sp,-148
   433dc:	dfc02415 	stw	ra,144(sp)
   433e0:	df002315 	stw	fp,140(sp)
   433e4:	df002304 	addi	fp,sp,140
   433e8:	e13fff15 	stw	r4,-4(fp)
   433ec:	e03fdd15 	stw	zero,-140(fp)
   433f0:	d0a6fa43 	ldbu	r2,-25623(gp)
   433f4:	10803fcc 	andi	r2,r2,255
   433f8:	10800060 	cmpeqi	r2,r2,1
   433fc:	10003626 	beq	r2,zero,434d8 <__malloc_lock+0x100>
   43400:	e0bfe204 	addi	r2,fp,-120
   43404:	100b883a 	mov	r5,r2
   43408:	01003fc4 	movi	r4,255
   4340c:	004a7180 	call	4a718 <OSTaskQuery>
   43410:	e0bffe85 	stb	r2,-6(fp)
   43414:	e0bffe83 	ldbu	r2,-6(fp)
   43418:	10803fcc 	andi	r2,r2,255
   4341c:	1000301e 	bne	r2,zero,434e0 <__malloc_lock+0x108>
   43420:	e0bfee83 	ldbu	r2,-70(fp)
   43424:	10803fcc 	andi	r2,r2,255
   43428:	e0bfde15 	stw	r2,-136(fp)
   4342c:	d0a6f917 	ldw	r2,-25628(gp)
   43430:	e0fffd04 	addi	r3,fp,-12
   43434:	180b883a 	mov	r5,r3
   43438:	1009883a 	mov	r4,r2
   4343c:	0048f300 	call	48f30 <OSSemQuery>
   43440:	0005303a 	rdctl	r2,status
   43444:	e0bfe115 	stw	r2,-124(fp)
   43448:	e0ffe117 	ldw	r3,-124(fp)
   4344c:	00bfff84 	movi	r2,-2
   43450:	1884703a 	and	r2,r3,r2
   43454:	1001703a 	wrctl	status,r2
   43458:	e0bfe117 	ldw	r2,-124(fp)
   4345c:	e0bfdd15 	stw	r2,-140(fp)
   43460:	e0bffd0b 	ldhu	r2,-12(fp)
   43464:	10bfffcc 	andi	r2,r2,65535
   43468:	10000b1e 	bne	r2,zero,43498 <__malloc_lock+0xc0>
   4346c:	d0a00d17 	ldw	r2,-32716(gp)
   43470:	e0ffde17 	ldw	r3,-136(fp)
   43474:	1880081e 	bne	r3,r2,43498 <__malloc_lock+0xc0>
   43478:	d0a6f817 	ldw	r2,-25632(gp)
   4347c:	10800044 	addi	r2,r2,1
   43480:	d0a6f815 	stw	r2,-25632(gp)
   43484:	e0bfdd17 	ldw	r2,-140(fp)
   43488:	e0bfdf15 	stw	r2,-132(fp)
   4348c:	e0bfdf17 	ldw	r2,-132(fp)
   43490:	1001703a 	wrctl	status,r2
   43494:	00000e06 	br	434d0 <__malloc_lock+0xf8>
   43498:	e0bfdd17 	ldw	r2,-140(fp)
   4349c:	e0bfe015 	stw	r2,-128(fp)
   434a0:	e0bfe017 	ldw	r2,-128(fp)
   434a4:	1001703a 	wrctl	status,r2
   434a8:	d0a6f917 	ldw	r2,-25628(gp)
   434ac:	e0fffe84 	addi	r3,fp,-6
   434b0:	180d883a 	mov	r6,r3
   434b4:	000b883a 	mov	r5,zero
   434b8:	1009883a 	mov	r4,r2
   434bc:	0048aa80 	call	48aa8 <OSSemPend>
   434c0:	00800044 	movi	r2,1
   434c4:	d0a6f815 	stw	r2,-25632(gp)
   434c8:	e0bfde17 	ldw	r2,-136(fp)
   434cc:	d0a00d15 	stw	r2,-32716(gp)
   434d0:	0001883a 	nop
   434d4:	00000306 	br	434e4 <__malloc_lock+0x10c>
   434d8:	0001883a 	nop
   434dc:	00000106 	br	434e4 <__malloc_lock+0x10c>
   434e0:	0001883a 	nop
   434e4:	e037883a 	mov	sp,fp
   434e8:	dfc00117 	ldw	ra,4(sp)
   434ec:	df000017 	ldw	fp,0(sp)
   434f0:	dec00204 	addi	sp,sp,8
   434f4:	f800283a 	ret

000434f8 <__malloc_unlock>:
   434f8:	defff804 	addi	sp,sp,-32
   434fc:	dfc00715 	stw	ra,28(sp)
   43500:	df000615 	stw	fp,24(sp)
   43504:	df000604 	addi	fp,sp,24
   43508:	e13fff15 	stw	r4,-4(fp)
   4350c:	e03ffa15 	stw	zero,-24(fp)
   43510:	d0a6fa43 	ldbu	r2,-25623(gp)
   43514:	10803fcc 	andi	r2,r2,255
   43518:	10800060 	cmpeqi	r2,r2,1
   4351c:	10002326 	beq	r2,zero,435ac <__malloc_unlock+0xb4>
   43520:	0005303a 	rdctl	r2,status
   43524:	e0bffe15 	stw	r2,-8(fp)
   43528:	e0fffe17 	ldw	r3,-8(fp)
   4352c:	00bfff84 	movi	r2,-2
   43530:	1884703a 	and	r2,r3,r2
   43534:	1001703a 	wrctl	status,r2
   43538:	e0bffe17 	ldw	r2,-8(fp)
   4353c:	e0bffa15 	stw	r2,-24(fp)
   43540:	d0a6f817 	ldw	r2,-25632(gp)
   43544:	1000051e 	bne	r2,zero,4355c <__malloc_unlock+0x64>
   43548:	e0bffa17 	ldw	r2,-24(fp)
   4354c:	e0bffb15 	stw	r2,-20(fp)
   43550:	e0bffb17 	ldw	r2,-20(fp)
   43554:	1001703a 	wrctl	status,r2
   43558:	00001506 	br	435b0 <__malloc_unlock+0xb8>
   4355c:	d0a6f817 	ldw	r2,-25632(gp)
   43560:	10bfffc4 	addi	r2,r2,-1
   43564:	d0a6f815 	stw	r2,-25632(gp)
   43568:	d0a6f817 	ldw	r2,-25632(gp)
   4356c:	10000a1e 	bne	r2,zero,43598 <__malloc_unlock+0xa0>
   43570:	00bfffc4 	movi	r2,-1
   43574:	d0a00d15 	stw	r2,-32716(gp)
   43578:	e0bffa17 	ldw	r2,-24(fp)
   4357c:	e0bffc15 	stw	r2,-16(fp)
   43580:	e0bffc17 	ldw	r2,-16(fp)
   43584:	1001703a 	wrctl	status,r2
   43588:	d0a6f917 	ldw	r2,-25628(gp)
   4358c:	1009883a 	mov	r4,r2
   43590:	0048e200 	call	48e20 <OSSemPost>
   43594:	00000606 	br	435b0 <__malloc_unlock+0xb8>
   43598:	e0bffa17 	ldw	r2,-24(fp)
   4359c:	e0bffd15 	stw	r2,-12(fp)
   435a0:	e0bffd17 	ldw	r2,-12(fp)
   435a4:	1001703a 	wrctl	status,r2
   435a8:	00000106 	br	435b0 <__malloc_unlock+0xb8>
   435ac:	0001883a 	nop
   435b0:	e037883a 	mov	sp,fp
   435b4:	dfc00117 	ldw	ra,4(sp)
   435b8:	df000017 	ldw	fp,0(sp)
   435bc:	dec00204 	addi	sp,sp,8
   435c0:	f800283a 	ret

000435c4 <OSEventNameGet>:
   435c4:	defff704 	addi	sp,sp,-36
   435c8:	dfc00815 	stw	ra,32(sp)
   435cc:	df000715 	stw	fp,28(sp)
   435d0:	df000704 	addi	fp,sp,28
   435d4:	e13ffd15 	stw	r4,-12(fp)
   435d8:	e17ffe15 	stw	r5,-8(fp)
   435dc:	e1bfff15 	stw	r6,-4(fp)
   435e0:	e03ff915 	stw	zero,-28(fp)
   435e4:	e0bfff17 	ldw	r2,-4(fp)
   435e8:	1000021e 	bne	r2,zero,435f4 <OSEventNameGet+0x30>
   435ec:	0005883a 	mov	r2,zero
   435f0:	00003706 	br	436d0 <OSEventNameGet+0x10c>
   435f4:	e0bffd17 	ldw	r2,-12(fp)
   435f8:	1000051e 	bne	r2,zero,43610 <OSEventNameGet+0x4c>
   435fc:	e0bfff17 	ldw	r2,-4(fp)
   43600:	00c00104 	movi	r3,4
   43604:	10c00005 	stb	r3,0(r2)
   43608:	0005883a 	mov	r2,zero
   4360c:	00003006 	br	436d0 <OSEventNameGet+0x10c>
   43610:	e0bffe17 	ldw	r2,-8(fp)
   43614:	1000051e 	bne	r2,zero,4362c <OSEventNameGet+0x68>
   43618:	e0bfff17 	ldw	r2,-4(fp)
   4361c:	00c00304 	movi	r3,12
   43620:	10c00005 	stb	r3,0(r2)
   43624:	0005883a 	mov	r2,zero
   43628:	00002906 	br	436d0 <OSEventNameGet+0x10c>
   4362c:	d0a70803 	ldbu	r2,-25568(gp)
   43630:	10803fcc 	andi	r2,r2,255
   43634:	10000526 	beq	r2,zero,4364c <OSEventNameGet+0x88>
   43638:	e0bfff17 	ldw	r2,-4(fp)
   4363c:	00c00444 	movi	r3,17
   43640:	10c00005 	stb	r3,0(r2)
   43644:	0005883a 	mov	r2,zero
   43648:	00002106 	br	436d0 <OSEventNameGet+0x10c>
   4364c:	e0bffd17 	ldw	r2,-12(fp)
   43650:	10800003 	ldbu	r2,0(r2)
   43654:	10803fcc 	andi	r2,r2,255
   43658:	10bfffc4 	addi	r2,r2,-1
   4365c:	10800128 	cmpgeui	r2,r2,4
   43660:	10000526 	beq	r2,zero,43678 <OSEventNameGet+0xb4>
   43664:	e0bfff17 	ldw	r2,-4(fp)
   43668:	00c00044 	movi	r3,1
   4366c:	10c00005 	stb	r3,0(r2)
   43670:	0005883a 	mov	r2,zero
   43674:	00001606 	br	436d0 <OSEventNameGet+0x10c>
   43678:	0001883a 	nop
   4367c:	0005303a 	rdctl	r2,status
   43680:	e0bffb15 	stw	r2,-20(fp)
   43684:	e0fffb17 	ldw	r3,-20(fp)
   43688:	00bfff84 	movi	r2,-2
   4368c:	1884703a 	and	r2,r3,r2
   43690:	1001703a 	wrctl	status,r2
   43694:	e0bffb17 	ldw	r2,-20(fp)
   43698:	e0bff915 	stw	r2,-28(fp)
   4369c:	e0bffd17 	ldw	r2,-12(fp)
   436a0:	10800384 	addi	r2,r2,14
   436a4:	100b883a 	mov	r5,r2
   436a8:	e13ffe17 	ldw	r4,-8(fp)
   436ac:	00450480 	call	45048 <OS_StrCopy>
   436b0:	e0bffa05 	stb	r2,-24(fp)
   436b4:	e0bff917 	ldw	r2,-28(fp)
   436b8:	e0bffc15 	stw	r2,-16(fp)
   436bc:	e0bffc17 	ldw	r2,-16(fp)
   436c0:	1001703a 	wrctl	status,r2
   436c4:	e0bfff17 	ldw	r2,-4(fp)
   436c8:	10000005 	stb	zero,0(r2)
   436cc:	e0bffa03 	ldbu	r2,-24(fp)
   436d0:	e037883a 	mov	sp,fp
   436d4:	dfc00117 	ldw	ra,4(sp)
   436d8:	df000017 	ldw	fp,0(sp)
   436dc:	dec00204 	addi	sp,sp,8
   436e0:	f800283a 	ret

000436e4 <OSEventNameSet>:
   436e4:	defff604 	addi	sp,sp,-40
   436e8:	dfc00915 	stw	ra,36(sp)
   436ec:	df000815 	stw	fp,32(sp)
   436f0:	df000804 	addi	fp,sp,32
   436f4:	e13ffd15 	stw	r4,-12(fp)
   436f8:	e17ffe15 	stw	r5,-8(fp)
   436fc:	e1bfff15 	stw	r6,-4(fp)
   43700:	e03ff815 	stw	zero,-32(fp)
   43704:	e0bfff17 	ldw	r2,-4(fp)
   43708:	10004026 	beq	r2,zero,4380c <OSEventNameSet+0x128>
   4370c:	e0bffd17 	ldw	r2,-12(fp)
   43710:	1000041e 	bne	r2,zero,43724 <OSEventNameSet+0x40>
   43714:	e0bfff17 	ldw	r2,-4(fp)
   43718:	00c00104 	movi	r3,4
   4371c:	10c00005 	stb	r3,0(r2)
   43720:	00003b06 	br	43810 <OSEventNameSet+0x12c>
   43724:	e0bffe17 	ldw	r2,-8(fp)
   43728:	1000041e 	bne	r2,zero,4373c <OSEventNameSet+0x58>
   4372c:	e0bfff17 	ldw	r2,-4(fp)
   43730:	00c00304 	movi	r3,12
   43734:	10c00005 	stb	r3,0(r2)
   43738:	00003506 	br	43810 <OSEventNameSet+0x12c>
   4373c:	d0a70803 	ldbu	r2,-25568(gp)
   43740:	10803fcc 	andi	r2,r2,255
   43744:	10000426 	beq	r2,zero,43758 <OSEventNameSet+0x74>
   43748:	e0bfff17 	ldw	r2,-4(fp)
   4374c:	00c00484 	movi	r3,18
   43750:	10c00005 	stb	r3,0(r2)
   43754:	00002e06 	br	43810 <OSEventNameSet+0x12c>
   43758:	e0bffd17 	ldw	r2,-12(fp)
   4375c:	10800003 	ldbu	r2,0(r2)
   43760:	10803fcc 	andi	r2,r2,255
   43764:	10bfffc4 	addi	r2,r2,-1
   43768:	10800128 	cmpgeui	r2,r2,4
   4376c:	10000426 	beq	r2,zero,43780 <OSEventNameSet+0x9c>
   43770:	e0bfff17 	ldw	r2,-4(fp)
   43774:	00c00044 	movi	r3,1
   43778:	10c00005 	stb	r3,0(r2)
   4377c:	00002406 	br	43810 <OSEventNameSet+0x12c>
   43780:	0001883a 	nop
   43784:	0005303a 	rdctl	r2,status
   43788:	e0bffc15 	stw	r2,-16(fp)
   4378c:	e0fffc17 	ldw	r3,-16(fp)
   43790:	00bfff84 	movi	r2,-2
   43794:	1884703a 	and	r2,r3,r2
   43798:	1001703a 	wrctl	status,r2
   4379c:	e0bffc17 	ldw	r2,-16(fp)
   437a0:	e0bff815 	stw	r2,-32(fp)
   437a4:	e13ffe17 	ldw	r4,-8(fp)
   437a8:	00450bc0 	call	450bc <OS_StrLen>
   437ac:	e0bffa05 	stb	r2,-24(fp)
   437b0:	e0bffa03 	ldbu	r2,-24(fp)
   437b4:	10800830 	cmpltui	r2,r2,32
   437b8:	1000081e 	bne	r2,zero,437dc <OSEventNameSet+0xf8>
   437bc:	e0bff817 	ldw	r2,-32(fp)
   437c0:	e0bff915 	stw	r2,-28(fp)
   437c4:	e0bff917 	ldw	r2,-28(fp)
   437c8:	1001703a 	wrctl	status,r2
   437cc:	e0bfff17 	ldw	r2,-4(fp)
   437d0:	00c002c4 	movi	r3,11
   437d4:	10c00005 	stb	r3,0(r2)
   437d8:	00000d06 	br	43810 <OSEventNameSet+0x12c>
   437dc:	e0bffd17 	ldw	r2,-12(fp)
   437e0:	10800384 	addi	r2,r2,14
   437e4:	e17ffe17 	ldw	r5,-8(fp)
   437e8:	1009883a 	mov	r4,r2
   437ec:	00450480 	call	45048 <OS_StrCopy>
   437f0:	e0bff817 	ldw	r2,-32(fp)
   437f4:	e0bffb15 	stw	r2,-20(fp)
   437f8:	e0bffb17 	ldw	r2,-20(fp)
   437fc:	1001703a 	wrctl	status,r2
   43800:	e0bfff17 	ldw	r2,-4(fp)
   43804:	10000005 	stb	zero,0(r2)
   43808:	00000106 	br	43810 <OSEventNameSet+0x12c>
   4380c:	0001883a 	nop
   43810:	e037883a 	mov	sp,fp
   43814:	dfc00117 	ldw	ra,4(sp)
   43818:	df000017 	ldw	fp,0(sp)
   4381c:	dec00204 	addi	sp,sp,8
   43820:	f800283a 	ret

00043824 <OSEventPendMulti>:
   43824:	deffed04 	addi	sp,sp,-76
   43828:	dfc01215 	stw	ra,72(sp)
   4382c:	df001115 	stw	fp,68(sp)
   43830:	df001104 	addi	fp,sp,68
   43834:	e13ffc15 	stw	r4,-16(fp)
   43838:	e17ffd15 	stw	r5,-12(fp)
   4383c:	e1bffe15 	stw	r6,-8(fp)
   43840:	3805883a 	mov	r2,r7
   43844:	e0bfff0d 	sth	r2,-4(fp)
   43848:	e03ff315 	stw	zero,-52(fp)
   4384c:	e0800217 	ldw	r2,8(fp)
   43850:	1000021e 	bne	r2,zero,4385c <OSEventPendMulti+0x38>
   43854:	0005883a 	mov	r2,zero
   43858:	00017106 	br	43e20 <OSEventPendMulti+0x5fc>
   4385c:	e0bffc17 	ldw	r2,-16(fp)
   43860:	1000051e 	bne	r2,zero,43878 <OSEventPendMulti+0x54>
   43864:	e0800217 	ldw	r2,8(fp)
   43868:	00c00104 	movi	r3,4
   4386c:	10c00005 	stb	r3,0(r2)
   43870:	0005883a 	mov	r2,zero
   43874:	00016a06 	br	43e20 <OSEventPendMulti+0x5fc>
   43878:	e0bffd17 	ldw	r2,-12(fp)
   4387c:	1000051e 	bne	r2,zero,43894 <OSEventPendMulti+0x70>
   43880:	e0800217 	ldw	r2,8(fp)
   43884:	00c00104 	movi	r3,4
   43888:	10c00005 	stb	r3,0(r2)
   4388c:	0005883a 	mov	r2,zero
   43890:	00016306 	br	43e20 <OSEventPendMulti+0x5fc>
   43894:	e0bffe17 	ldw	r2,-8(fp)
   43898:	1000051e 	bne	r2,zero,438b0 <OSEventPendMulti+0x8c>
   4389c:	e0800217 	ldw	r2,8(fp)
   438a0:	00c00104 	movi	r3,4
   438a4:	10c00005 	stb	r3,0(r2)
   438a8:	0005883a 	mov	r2,zero
   438ac:	00015c06 	br	43e20 <OSEventPendMulti+0x5fc>
   438b0:	e0bffd17 	ldw	r2,-12(fp)
   438b4:	10000015 	stw	zero,0(r2)
   438b8:	e0bffc17 	ldw	r2,-16(fp)
   438bc:	e0bfef15 	stw	r2,-68(fp)
   438c0:	e0bfef17 	ldw	r2,-68(fp)
   438c4:	10800017 	ldw	r2,0(r2)
   438c8:	e0bff015 	stw	r2,-64(fp)
   438cc:	00001906 	br	43934 <OSEventPendMulti+0x110>
   438d0:	e0bff017 	ldw	r2,-64(fp)
   438d4:	10800003 	ldbu	r2,0(r2)
   438d8:	10803fcc 	andi	r2,r2,255
   438dc:	10c000a0 	cmpeqi	r3,r2,2
   438e0:	1800091e 	bne	r3,zero,43908 <OSEventPendMulti+0xe4>
   438e4:	10c000e0 	cmpeqi	r3,r2,3
   438e8:	1800091e 	bne	r3,zero,43910 <OSEventPendMulti+0xec>
   438ec:	10800060 	cmpeqi	r2,r2,1
   438f0:	1000091e 	bne	r2,zero,43918 <OSEventPendMulti+0xf4>
   438f4:	e0800217 	ldw	r2,8(fp)
   438f8:	00c00044 	movi	r3,1
   438fc:	10c00005 	stb	r3,0(r2)
   43900:	0005883a 	mov	r2,zero
   43904:	00014606 	br	43e20 <OSEventPendMulti+0x5fc>
   43908:	0001883a 	nop
   4390c:	00000306 	br	4391c <OSEventPendMulti+0xf8>
   43910:	0001883a 	nop
   43914:	00000106 	br	4391c <OSEventPendMulti+0xf8>
   43918:	0001883a 	nop
   4391c:	e0bfef17 	ldw	r2,-68(fp)
   43920:	10800104 	addi	r2,r2,4
   43924:	e0bfef15 	stw	r2,-68(fp)
   43928:	e0bfef17 	ldw	r2,-68(fp)
   4392c:	10800017 	ldw	r2,0(r2)
   43930:	e0bff015 	stw	r2,-64(fp)
   43934:	e0bff017 	ldw	r2,-64(fp)
   43938:	103fe51e 	bne	r2,zero,438d0 <__alt_data_end+0xfffde0d0>
   4393c:	d0a70803 	ldbu	r2,-25568(gp)
   43940:	10803fcc 	andi	r2,r2,255
   43944:	10000526 	beq	r2,zero,4395c <OSEventPendMulti+0x138>
   43948:	e0800217 	ldw	r2,8(fp)
   4394c:	00c00084 	movi	r3,2
   43950:	10c00005 	stb	r3,0(r2)
   43954:	0005883a 	mov	r2,zero
   43958:	00013106 	br	43e20 <OSEventPendMulti+0x5fc>
   4395c:	d0a6fa03 	ldbu	r2,-25624(gp)
   43960:	10803fcc 	andi	r2,r2,255
   43964:	10000526 	beq	r2,zero,4397c <OSEventPendMulti+0x158>
   43968:	e0800217 	ldw	r2,8(fp)
   4396c:	00c00344 	movi	r3,13
   43970:	10c00005 	stb	r3,0(r2)
   43974:	0005883a 	mov	r2,zero
   43978:	00012906 	br	43e20 <OSEventPendMulti+0x5fc>
   4397c:	0005303a 	rdctl	r2,status
   43980:	e0bffb15 	stw	r2,-20(fp)
   43984:	e0fffb17 	ldw	r3,-20(fp)
   43988:	00bfff84 	movi	r2,-2
   4398c:	1884703a 	and	r2,r3,r2
   43990:	1001703a 	wrctl	status,r2
   43994:	e0bffb17 	ldw	r2,-20(fp)
   43998:	e0bff315 	stw	r2,-52(fp)
   4399c:	e03ff105 	stb	zero,-60(fp)
   439a0:	e03ff18d 	sth	zero,-58(fp)
   439a4:	e03ff205 	stb	zero,-56(fp)
   439a8:	e0bffc17 	ldw	r2,-16(fp)
   439ac:	e0bfef15 	stw	r2,-68(fp)
   439b0:	e0bfef17 	ldw	r2,-68(fp)
   439b4:	10800017 	ldw	r2,0(r2)
   439b8:	e0bff015 	stw	r2,-64(fp)
   439bc:	00008106 	br	43bc4 <OSEventPendMulti+0x3a0>
   439c0:	e0bff017 	ldw	r2,-64(fp)
   439c4:	10800003 	ldbu	r2,0(r2)
   439c8:	10803fcc 	andi	r2,r2,255
   439cc:	10c000a0 	cmpeqi	r3,r2,2
   439d0:	18003c1e 	bne	r3,zero,43ac4 <OSEventPendMulti+0x2a0>
   439d4:	10c000e0 	cmpeqi	r3,r2,3
   439d8:	1800031e 	bne	r3,zero,439e8 <OSEventPendMulti+0x1c4>
   439dc:	10800060 	cmpeqi	r2,r2,1
   439e0:	10001e1e 	bne	r2,zero,43a5c <OSEventPendMulti+0x238>
   439e4:	00006606 	br	43b80 <OSEventPendMulti+0x35c>
   439e8:	e0bff017 	ldw	r2,-64(fp)
   439ec:	1080020b 	ldhu	r2,8(r2)
   439f0:	10bfffcc 	andi	r2,r2,65535
   439f4:	10001526 	beq	r2,zero,43a4c <OSEventPendMulti+0x228>
   439f8:	e0bff017 	ldw	r2,-64(fp)
   439fc:	1080020b 	ldhu	r2,8(r2)
   43a00:	10bfffc4 	addi	r2,r2,-1
   43a04:	1007883a 	mov	r3,r2
   43a08:	e0bff017 	ldw	r2,-64(fp)
   43a0c:	10c0020d 	sth	r3,8(r2)
   43a10:	e0bffd17 	ldw	r2,-12(fp)
   43a14:	10c00104 	addi	r3,r2,4
   43a18:	e0fffd15 	stw	r3,-12(fp)
   43a1c:	e0fff017 	ldw	r3,-64(fp)
   43a20:	10c00015 	stw	r3,0(r2)
   43a24:	00800044 	movi	r2,1
   43a28:	e0bff105 	stb	r2,-60(fp)
   43a2c:	e0bffe17 	ldw	r2,-8(fp)
   43a30:	10c00104 	addi	r3,r2,4
   43a34:	e0fffe15 	stw	r3,-8(fp)
   43a38:	10000015 	stw	zero,0(r2)
   43a3c:	e0bff18b 	ldhu	r2,-58(fp)
   43a40:	10800044 	addi	r2,r2,1
   43a44:	e0bff18d 	sth	r2,-58(fp)
   43a48:	00005806 	br	43bac <OSEventPendMulti+0x388>
   43a4c:	e0bff203 	ldbu	r2,-56(fp)
   43a50:	10800054 	ori	r2,r2,1
   43a54:	e0bff205 	stb	r2,-56(fp)
   43a58:	00005406 	br	43bac <OSEventPendMulti+0x388>
   43a5c:	e0bff017 	ldw	r2,-64(fp)
   43a60:	10800117 	ldw	r2,4(r2)
   43a64:	10001326 	beq	r2,zero,43ab4 <OSEventPendMulti+0x290>
   43a68:	e0bffe17 	ldw	r2,-8(fp)
   43a6c:	10c00104 	addi	r3,r2,4
   43a70:	e0fffe15 	stw	r3,-8(fp)
   43a74:	e0fff017 	ldw	r3,-64(fp)
   43a78:	18c00117 	ldw	r3,4(r3)
   43a7c:	10c00015 	stw	r3,0(r2)
   43a80:	e0bff017 	ldw	r2,-64(fp)
   43a84:	10000115 	stw	zero,4(r2)
   43a88:	e0bffd17 	ldw	r2,-12(fp)
   43a8c:	10c00104 	addi	r3,r2,4
   43a90:	e0fffd15 	stw	r3,-12(fp)
   43a94:	e0fff017 	ldw	r3,-64(fp)
   43a98:	10c00015 	stw	r3,0(r2)
   43a9c:	00800044 	movi	r2,1
   43aa0:	e0bff105 	stb	r2,-60(fp)
   43aa4:	e0bff18b 	ldhu	r2,-58(fp)
   43aa8:	10800044 	addi	r2,r2,1
   43aac:	e0bff18d 	sth	r2,-58(fp)
   43ab0:	00003e06 	br	43bac <OSEventPendMulti+0x388>
   43ab4:	e0bff203 	ldbu	r2,-56(fp)
   43ab8:	10800094 	ori	r2,r2,2
   43abc:	e0bff205 	stb	r2,-56(fp)
   43ac0:	00003a06 	br	43bac <OSEventPendMulti+0x388>
   43ac4:	e0bff017 	ldw	r2,-64(fp)
   43ac8:	10800117 	ldw	r2,4(r2)
   43acc:	e0bff515 	stw	r2,-44(fp)
   43ad0:	e0bff517 	ldw	r2,-44(fp)
   43ad4:	1080058b 	ldhu	r2,22(r2)
   43ad8:	10bfffcc 	andi	r2,r2,65535
   43adc:	10002426 	beq	r2,zero,43b70 <OSEventPendMulti+0x34c>
   43ae0:	e0bffe17 	ldw	r2,-8(fp)
   43ae4:	10c00104 	addi	r3,r2,4
   43ae8:	e0fffe15 	stw	r3,-8(fp)
   43aec:	e0fff517 	ldw	r3,-44(fp)
   43af0:	18c00417 	ldw	r3,16(r3)
   43af4:	19400104 	addi	r5,r3,4
   43af8:	e13ff517 	ldw	r4,-44(fp)
   43afc:	21400415 	stw	r5,16(r4)
   43b00:	18c00017 	ldw	r3,0(r3)
   43b04:	10c00015 	stw	r3,0(r2)
   43b08:	e0bff517 	ldw	r2,-44(fp)
   43b0c:	10c00417 	ldw	r3,16(r2)
   43b10:	e0bff517 	ldw	r2,-44(fp)
   43b14:	10800217 	ldw	r2,8(r2)
   43b18:	1880041e 	bne	r3,r2,43b2c <OSEventPendMulti+0x308>
   43b1c:	e0bff517 	ldw	r2,-44(fp)
   43b20:	10c00117 	ldw	r3,4(r2)
   43b24:	e0bff517 	ldw	r2,-44(fp)
   43b28:	10c00415 	stw	r3,16(r2)
   43b2c:	e0bff517 	ldw	r2,-44(fp)
   43b30:	1080058b 	ldhu	r2,22(r2)
   43b34:	10bfffc4 	addi	r2,r2,-1
   43b38:	1007883a 	mov	r3,r2
   43b3c:	e0bff517 	ldw	r2,-44(fp)
   43b40:	10c0058d 	sth	r3,22(r2)
   43b44:	e0bffd17 	ldw	r2,-12(fp)
   43b48:	10c00104 	addi	r3,r2,4
   43b4c:	e0fffd15 	stw	r3,-12(fp)
   43b50:	e0fff017 	ldw	r3,-64(fp)
   43b54:	10c00015 	stw	r3,0(r2)
   43b58:	00800044 	movi	r2,1
   43b5c:	e0bff105 	stb	r2,-60(fp)
   43b60:	e0bff18b 	ldhu	r2,-58(fp)
   43b64:	10800044 	addi	r2,r2,1
   43b68:	e0bff18d 	sth	r2,-58(fp)
   43b6c:	00000f06 	br	43bac <OSEventPendMulti+0x388>
   43b70:	e0bff203 	ldbu	r2,-56(fp)
   43b74:	10800114 	ori	r2,r2,4
   43b78:	e0bff205 	stb	r2,-56(fp)
   43b7c:	00000b06 	br	43bac <OSEventPendMulti+0x388>
   43b80:	e0bff317 	ldw	r2,-52(fp)
   43b84:	e0bff415 	stw	r2,-48(fp)
   43b88:	e0bff417 	ldw	r2,-48(fp)
   43b8c:	1001703a 	wrctl	status,r2
   43b90:	e0bffd17 	ldw	r2,-12(fp)
   43b94:	10000015 	stw	zero,0(r2)
   43b98:	e0800217 	ldw	r2,8(fp)
   43b9c:	00c00044 	movi	r3,1
   43ba0:	10c00005 	stb	r3,0(r2)
   43ba4:	e0bff18b 	ldhu	r2,-58(fp)
   43ba8:	00009d06 	br	43e20 <OSEventPendMulti+0x5fc>
   43bac:	e0bfef17 	ldw	r2,-68(fp)
   43bb0:	10800104 	addi	r2,r2,4
   43bb4:	e0bfef15 	stw	r2,-68(fp)
   43bb8:	e0bfef17 	ldw	r2,-68(fp)
   43bbc:	10800017 	ldw	r2,0(r2)
   43bc0:	e0bff015 	stw	r2,-64(fp)
   43bc4:	e0bff017 	ldw	r2,-64(fp)
   43bc8:	103f7d1e 	bne	r2,zero,439c0 <__alt_data_end+0xfffde1c0>
   43bcc:	e0bff103 	ldbu	r2,-60(fp)
   43bd0:	10800058 	cmpnei	r2,r2,1
   43bd4:	10000a1e 	bne	r2,zero,43c00 <OSEventPendMulti+0x3dc>
   43bd8:	e0bffd17 	ldw	r2,-12(fp)
   43bdc:	10000015 	stw	zero,0(r2)
   43be0:	e0bff317 	ldw	r2,-52(fp)
   43be4:	e0bff615 	stw	r2,-40(fp)
   43be8:	e0bff617 	ldw	r2,-40(fp)
   43bec:	1001703a 	wrctl	status,r2
   43bf0:	e0800217 	ldw	r2,8(fp)
   43bf4:	10000005 	stb	zero,0(r2)
   43bf8:	e0bff18b 	ldhu	r2,-58(fp)
   43bfc:	00008806 	br	43e20 <OSEventPendMulti+0x5fc>
   43c00:	d0a70917 	ldw	r2,-25564(gp)
   43c04:	d0e70917 	ldw	r3,-25564(gp)
   43c08:	19000c03 	ldbu	r4,48(r3)
   43c0c:	e0fff203 	ldbu	r3,-56(fp)
   43c10:	20c6b03a 	or	r3,r4,r3
   43c14:	1809883a 	mov	r4,r3
   43c18:	00ffe004 	movi	r3,-128
   43c1c:	20c6b03a 	or	r3,r4,r3
   43c20:	10c00c05 	stb	r3,48(r2)
   43c24:	d0a70917 	ldw	r2,-25564(gp)
   43c28:	10000c45 	stb	zero,49(r2)
   43c2c:	d0a70917 	ldw	r2,-25564(gp)
   43c30:	e0ffff0b 	ldhu	r3,-4(fp)
   43c34:	10c00b8d 	sth	r3,46(r2)
   43c38:	e13ffc17 	ldw	r4,-16(fp)
   43c3c:	00447600 	call	44760 <OS_EventTaskWaitMulti>
   43c40:	e0bff317 	ldw	r2,-52(fp)
   43c44:	e0bff915 	stw	r2,-28(fp)
   43c48:	e0bff917 	ldw	r2,-28(fp)
   43c4c:	1001703a 	wrctl	status,r2
   43c50:	0044f040 	call	44f04 <OS_Sched>
   43c54:	0005303a 	rdctl	r2,status
   43c58:	e0bff715 	stw	r2,-36(fp)
   43c5c:	e0fff717 	ldw	r3,-36(fp)
   43c60:	00bfff84 	movi	r2,-2
   43c64:	1884703a 	and	r2,r3,r2
   43c68:	1001703a 	wrctl	status,r2
   43c6c:	e0bff717 	ldw	r2,-36(fp)
   43c70:	e0bff315 	stw	r2,-52(fp)
   43c74:	d0a70917 	ldw	r2,-25564(gp)
   43c78:	10800c43 	ldbu	r2,49(r2)
   43c7c:	10803fcc 	andi	r2,r2,255
   43c80:	10000226 	beq	r2,zero,43c8c <OSEventPendMulti+0x468>
   43c84:	108000a0 	cmpeqi	r2,r2,2
   43c88:	10001826 	beq	r2,zero,43cec <OSEventPendMulti+0x4c8>
   43c8c:	d0a70917 	ldw	r2,-25564(gp)
   43c90:	10800717 	ldw	r2,28(r2)
   43c94:	e0bff015 	stw	r2,-64(fp)
   43c98:	e0bff017 	ldw	r2,-64(fp)
   43c9c:	10000b26 	beq	r2,zero,43ccc <OSEventPendMulti+0x4a8>
   43ca0:	e0bffd17 	ldw	r2,-12(fp)
   43ca4:	10c00104 	addi	r3,r2,4
   43ca8:	e0fffd15 	stw	r3,-12(fp)
   43cac:	e0fff017 	ldw	r3,-64(fp)
   43cb0:	10c00015 	stw	r3,0(r2)
   43cb4:	e0bffd17 	ldw	r2,-12(fp)
   43cb8:	10000015 	stw	zero,0(r2)
   43cbc:	e0bff18b 	ldhu	r2,-58(fp)
   43cc0:	10800044 	addi	r2,r2,1
   43cc4:	e0bff18d 	sth	r2,-58(fp)
   43cc8:	00000d06 	br	43d00 <OSEventPendMulti+0x4dc>
   43ccc:	d0a70917 	ldw	r2,-25564(gp)
   43cd0:	00c00044 	movi	r3,1
   43cd4:	10c00c45 	stb	r3,49(r2)
   43cd8:	d0a70917 	ldw	r2,-25564(gp)
   43cdc:	e17ffc17 	ldw	r5,-16(fp)
   43ce0:	1009883a 	mov	r4,r2
   43ce4:	00449680 	call	44968 <OS_EventTaskRemoveMulti>
   43ce8:	00000506 	br	43d00 <OSEventPendMulti+0x4dc>
   43cec:	d0a70917 	ldw	r2,-25564(gp)
   43cf0:	e17ffc17 	ldw	r5,-16(fp)
   43cf4:	1009883a 	mov	r4,r2
   43cf8:	00449680 	call	44968 <OS_EventTaskRemoveMulti>
   43cfc:	0001883a 	nop
   43d00:	d0a70917 	ldw	r2,-25564(gp)
   43d04:	10800c43 	ldbu	r2,49(r2)
   43d08:	10803fcc 	andi	r2,r2,255
   43d0c:	10000326 	beq	r2,zero,43d1c <OSEventPendMulti+0x4f8>
   43d10:	108000a0 	cmpeqi	r2,r2,2
   43d14:	1000231e 	bne	r2,zero,43da4 <OSEventPendMulti+0x580>
   43d18:	00002a06 	br	43dc4 <OSEventPendMulti+0x5a0>
   43d1c:	e0bff017 	ldw	r2,-64(fp)
   43d20:	10800003 	ldbu	r2,0(r2)
   43d24:	10803fcc 	andi	r2,r2,255
   43d28:	0080100e 	bge	zero,r2,43d6c <OSEventPendMulti+0x548>
   43d2c:	10c000d0 	cmplti	r3,r2,3
   43d30:	1800071e 	bne	r3,zero,43d50 <OSEventPendMulti+0x52c>
   43d34:	108000e0 	cmpeqi	r2,r2,3
   43d38:	10000c26 	beq	r2,zero,43d6c <OSEventPendMulti+0x548>
   43d3c:	e0bffe17 	ldw	r2,-8(fp)
   43d40:	10c00104 	addi	r3,r2,4
   43d44:	e0fffe15 	stw	r3,-8(fp)
   43d48:	10000015 	stw	zero,0(r2)
   43d4c:	00001206 	br	43d98 <OSEventPendMulti+0x574>
   43d50:	e0bffe17 	ldw	r2,-8(fp)
   43d54:	10c00104 	addi	r3,r2,4
   43d58:	e0fffe15 	stw	r3,-8(fp)
   43d5c:	d0e70917 	ldw	r3,-25564(gp)
   43d60:	18c00917 	ldw	r3,36(r3)
   43d64:	10c00015 	stw	r3,0(r2)
   43d68:	00000b06 	br	43d98 <OSEventPendMulti+0x574>
   43d6c:	e0bff317 	ldw	r2,-52(fp)
   43d70:	e0bff815 	stw	r2,-32(fp)
   43d74:	e0bff817 	ldw	r2,-32(fp)
   43d78:	1001703a 	wrctl	status,r2
   43d7c:	e0bffd17 	ldw	r2,-12(fp)
   43d80:	10000015 	stw	zero,0(r2)
   43d84:	e0800217 	ldw	r2,8(fp)
   43d88:	00c00044 	movi	r3,1
   43d8c:	10c00005 	stb	r3,0(r2)
   43d90:	e0bff18b 	ldhu	r2,-58(fp)
   43d94:	00002206 	br	43e20 <OSEventPendMulti+0x5fc>
   43d98:	e0800217 	ldw	r2,8(fp)
   43d9c:	10000005 	stb	zero,0(r2)
   43da0:	00001006 	br	43de4 <OSEventPendMulti+0x5c0>
   43da4:	e0bffe17 	ldw	r2,-8(fp)
   43da8:	10c00104 	addi	r3,r2,4
   43dac:	e0fffe15 	stw	r3,-8(fp)
   43db0:	10000015 	stw	zero,0(r2)
   43db4:	e0800217 	ldw	r2,8(fp)
   43db8:	00c00384 	movi	r3,14
   43dbc:	10c00005 	stb	r3,0(r2)
   43dc0:	00000806 	br	43de4 <OSEventPendMulti+0x5c0>
   43dc4:	e0bffe17 	ldw	r2,-8(fp)
   43dc8:	10c00104 	addi	r3,r2,4
   43dcc:	e0fffe15 	stw	r3,-8(fp)
   43dd0:	10000015 	stw	zero,0(r2)
   43dd4:	e0800217 	ldw	r2,8(fp)
   43dd8:	00c00284 	movi	r3,10
   43ddc:	10c00005 	stb	r3,0(r2)
   43de0:	0001883a 	nop
   43de4:	d0a70917 	ldw	r2,-25564(gp)
   43de8:	10000c05 	stb	zero,48(r2)
   43dec:	d0a70917 	ldw	r2,-25564(gp)
   43df0:	10000c45 	stb	zero,49(r2)
   43df4:	d0a70917 	ldw	r2,-25564(gp)
   43df8:	10000715 	stw	zero,28(r2)
   43dfc:	d0a70917 	ldw	r2,-25564(gp)
   43e00:	10000815 	stw	zero,32(r2)
   43e04:	d0a70917 	ldw	r2,-25564(gp)
   43e08:	10000915 	stw	zero,36(r2)
   43e0c:	e0bff317 	ldw	r2,-52(fp)
   43e10:	e0bffa15 	stw	r2,-24(fp)
   43e14:	e0bffa17 	ldw	r2,-24(fp)
   43e18:	1001703a 	wrctl	status,r2
   43e1c:	e0bff18b 	ldhu	r2,-58(fp)
   43e20:	e037883a 	mov	sp,fp
   43e24:	dfc00117 	ldw	ra,4(sp)
   43e28:	df000017 	ldw	fp,0(sp)
   43e2c:	dec00204 	addi	sp,sp,8
   43e30:	f800283a 	ret

00043e34 <OSInit>:
   43e34:	defffe04 	addi	sp,sp,-8
   43e38:	dfc00115 	stw	ra,4(sp)
   43e3c:	df000015 	stw	fp,0(sp)
   43e40:	d839883a 	mov	fp,sp
   43e44:	004c8d40 	call	4c8d4 <OSInitHookBegin>
   43e48:	0044bb00 	call	44bb0 <OS_InitMisc>
   43e4c:	0044bf80 	call	44bf8 <OS_InitRdyList>
   43e50:	0044d640 	call	44d64 <OS_InitTCBList>
   43e54:	0044ad00 	call	44ad0 <OS_InitEventList>
   43e58:	0046c040 	call	46c04 <OS_FlagInit>
   43e5c:	00475040 	call	47504 <OS_MemInit>
   43e60:	00486380 	call	48638 <OS_QInit>
   43e64:	0044c640 	call	44c64 <OS_InitTaskIdle>
   43e68:	0044ce40 	call	44ce4 <OS_InitTaskStat>
   43e6c:	004c8f40 	call	4c8f4 <OSInitHookEnd>
   43e70:	00455d80 	call	455d8 <OSDebugInit>
   43e74:	0001883a 	nop
   43e78:	e037883a 	mov	sp,fp
   43e7c:	dfc00117 	ldw	ra,4(sp)
   43e80:	df000017 	ldw	fp,0(sp)
   43e84:	dec00204 	addi	sp,sp,8
   43e88:	f800283a 	ret

00043e8c <OSIntEnter>:
   43e8c:	deffff04 	addi	sp,sp,-4
   43e90:	df000015 	stw	fp,0(sp)
   43e94:	d839883a 	mov	fp,sp
   43e98:	d0a6fa43 	ldbu	r2,-25623(gp)
   43e9c:	10803fcc 	andi	r2,r2,255
   43ea0:	10800058 	cmpnei	r2,r2,1
   43ea4:	1000071e 	bne	r2,zero,43ec4 <OSIntEnter+0x38>
   43ea8:	d0a70803 	ldbu	r2,-25568(gp)
   43eac:	10803fcc 	andi	r2,r2,255
   43eb0:	10803fe0 	cmpeqi	r2,r2,255
   43eb4:	1000031e 	bne	r2,zero,43ec4 <OSIntEnter+0x38>
   43eb8:	d0a70803 	ldbu	r2,-25568(gp)
   43ebc:	10800044 	addi	r2,r2,1
   43ec0:	d0a70805 	stb	r2,-25568(gp)
   43ec4:	0001883a 	nop
   43ec8:	e037883a 	mov	sp,fp
   43ecc:	df000017 	ldw	fp,0(sp)
   43ed0:	dec00104 	addi	sp,sp,4
   43ed4:	f800283a 	ret

00043ed8 <OSIntExit>:
   43ed8:	defffb04 	addi	sp,sp,-20
   43edc:	dfc00415 	stw	ra,16(sp)
   43ee0:	df000315 	stw	fp,12(sp)
   43ee4:	df000304 	addi	fp,sp,12
   43ee8:	e03ffd15 	stw	zero,-12(fp)
   43eec:	d0a6fa43 	ldbu	r2,-25623(gp)
   43ef0:	10803fcc 	andi	r2,r2,255
   43ef4:	10800058 	cmpnei	r2,r2,1
   43ef8:	10002f1e 	bne	r2,zero,43fb8 <OSIntExit+0xe0>
   43efc:	0005303a 	rdctl	r2,status
   43f00:	e0bfff15 	stw	r2,-4(fp)
   43f04:	e0ffff17 	ldw	r3,-4(fp)
   43f08:	00bfff84 	movi	r2,-2
   43f0c:	1884703a 	and	r2,r3,r2
   43f10:	1001703a 	wrctl	status,r2
   43f14:	e0bfff17 	ldw	r2,-4(fp)
   43f18:	e0bffd15 	stw	r2,-12(fp)
   43f1c:	d0a70803 	ldbu	r2,-25568(gp)
   43f20:	10803fcc 	andi	r2,r2,255
   43f24:	10000326 	beq	r2,zero,43f34 <OSIntExit+0x5c>
   43f28:	d0a70803 	ldbu	r2,-25568(gp)
   43f2c:	10bfffc4 	addi	r2,r2,-1
   43f30:	d0a70805 	stb	r2,-25568(gp)
   43f34:	d0a70803 	ldbu	r2,-25568(gp)
   43f38:	10803fcc 	andi	r2,r2,255
   43f3c:	10001a1e 	bne	r2,zero,43fa8 <OSIntExit+0xd0>
   43f40:	d0a6fa03 	ldbu	r2,-25624(gp)
   43f44:	10803fcc 	andi	r2,r2,255
   43f48:	1000171e 	bne	r2,zero,43fa8 <OSIntExit+0xd0>
   43f4c:	0044fd40 	call	44fd4 <OS_SchedNew>
   43f50:	d0e6fc03 	ldbu	r3,-25616(gp)
   43f54:	d0a6fc43 	ldbu	r2,-25615(gp)
   43f58:	18c03fcc 	andi	r3,r3,255
   43f5c:	10803fcc 	andi	r2,r2,255
   43f60:	18801126 	beq	r3,r2,43fa8 <OSIntExit+0xd0>
   43f64:	d0a6fc03 	ldbu	r2,-25616(gp)
   43f68:	10c03fcc 	andi	r3,r2,255
   43f6c:	00800174 	movhi	r2,5
   43f70:	10975104 	addi	r2,r2,23876
   43f74:	18c7883a 	add	r3,r3,r3
   43f78:	18c7883a 	add	r3,r3,r3
   43f7c:	10c5883a 	add	r2,r2,r3
   43f80:	10800017 	ldw	r2,0(r2)
   43f84:	d0a70415 	stw	r2,-25584(gp)
   43f88:	d0a70417 	ldw	r2,-25584(gp)
   43f8c:	10c00e17 	ldw	r3,56(r2)
   43f90:	18c00044 	addi	r3,r3,1
   43f94:	10c00e15 	stw	r3,56(r2)
   43f98:	d0a6ff17 	ldw	r2,-25604(gp)
   43f9c:	10800044 	addi	r2,r2,1
   43fa0:	d0a6ff15 	stw	r2,-25604(gp)
   43fa4:	004c6000 	call	4c600 <OSCtxSw>
   43fa8:	e0bffd17 	ldw	r2,-12(fp)
   43fac:	e0bffe15 	stw	r2,-8(fp)
   43fb0:	e0bffe17 	ldw	r2,-8(fp)
   43fb4:	1001703a 	wrctl	status,r2
   43fb8:	0001883a 	nop
   43fbc:	e037883a 	mov	sp,fp
   43fc0:	dfc00117 	ldw	ra,4(sp)
   43fc4:	df000017 	ldw	fp,0(sp)
   43fc8:	dec00204 	addi	sp,sp,8
   43fcc:	f800283a 	ret

00043fd0 <OSSchedLock>:
   43fd0:	defffc04 	addi	sp,sp,-16
   43fd4:	df000315 	stw	fp,12(sp)
   43fd8:	df000304 	addi	fp,sp,12
   43fdc:	e03ffd15 	stw	zero,-12(fp)
   43fe0:	d0a6fa43 	ldbu	r2,-25623(gp)
   43fe4:	10803fcc 	andi	r2,r2,255
   43fe8:	10800058 	cmpnei	r2,r2,1
   43fec:	1000161e 	bne	r2,zero,44048 <OSSchedLock+0x78>
   43ff0:	0005303a 	rdctl	r2,status
   43ff4:	e0bfff15 	stw	r2,-4(fp)
   43ff8:	e0ffff17 	ldw	r3,-4(fp)
   43ffc:	00bfff84 	movi	r2,-2
   44000:	1884703a 	and	r2,r3,r2
   44004:	1001703a 	wrctl	status,r2
   44008:	e0bfff17 	ldw	r2,-4(fp)
   4400c:	e0bffd15 	stw	r2,-12(fp)
   44010:	d0a70803 	ldbu	r2,-25568(gp)
   44014:	10803fcc 	andi	r2,r2,255
   44018:	1000071e 	bne	r2,zero,44038 <OSSchedLock+0x68>
   4401c:	d0a6fa03 	ldbu	r2,-25624(gp)
   44020:	10803fcc 	andi	r2,r2,255
   44024:	10803fe0 	cmpeqi	r2,r2,255
   44028:	1000031e 	bne	r2,zero,44038 <OSSchedLock+0x68>
   4402c:	d0a6fa03 	ldbu	r2,-25624(gp)
   44030:	10800044 	addi	r2,r2,1
   44034:	d0a6fa05 	stb	r2,-25624(gp)
   44038:	e0bffd17 	ldw	r2,-12(fp)
   4403c:	e0bffe15 	stw	r2,-8(fp)
   44040:	e0bffe17 	ldw	r2,-8(fp)
   44044:	1001703a 	wrctl	status,r2
   44048:	0001883a 	nop
   4404c:	e037883a 	mov	sp,fp
   44050:	df000017 	ldw	fp,0(sp)
   44054:	dec00104 	addi	sp,sp,4
   44058:	f800283a 	ret

0004405c <OSSchedUnlock>:
   4405c:	defff804 	addi	sp,sp,-32
   44060:	dfc00715 	stw	ra,28(sp)
   44064:	df000615 	stw	fp,24(sp)
   44068:	df000604 	addi	fp,sp,24
   4406c:	e03ffa15 	stw	zero,-24(fp)
   44070:	d0a6fa43 	ldbu	r2,-25623(gp)
   44074:	10803fcc 	andi	r2,r2,255
   44078:	10800058 	cmpnei	r2,r2,1
   4407c:	1000281e 	bne	r2,zero,44120 <OSSchedUnlock+0xc4>
   44080:	0005303a 	rdctl	r2,status
   44084:	e0bfff15 	stw	r2,-4(fp)
   44088:	e0ffff17 	ldw	r3,-4(fp)
   4408c:	00bfff84 	movi	r2,-2
   44090:	1884703a 	and	r2,r3,r2
   44094:	1001703a 	wrctl	status,r2
   44098:	e0bfff17 	ldw	r2,-4(fp)
   4409c:	e0bffa15 	stw	r2,-24(fp)
   440a0:	d0a6fa03 	ldbu	r2,-25624(gp)
   440a4:	10803fcc 	andi	r2,r2,255
   440a8:	10001926 	beq	r2,zero,44110 <OSSchedUnlock+0xb4>
   440ac:	d0a6fa03 	ldbu	r2,-25624(gp)
   440b0:	10bfffc4 	addi	r2,r2,-1
   440b4:	d0a6fa05 	stb	r2,-25624(gp)
   440b8:	d0a6fa03 	ldbu	r2,-25624(gp)
   440bc:	10803fcc 	andi	r2,r2,255
   440c0:	10000e1e 	bne	r2,zero,440fc <OSSchedUnlock+0xa0>
   440c4:	d0a70803 	ldbu	r2,-25568(gp)
   440c8:	10803fcc 	andi	r2,r2,255
   440cc:	1000061e 	bne	r2,zero,440e8 <OSSchedUnlock+0x8c>
   440d0:	e0bffa17 	ldw	r2,-24(fp)
   440d4:	e0bffb15 	stw	r2,-20(fp)
   440d8:	e0bffb17 	ldw	r2,-20(fp)
   440dc:	1001703a 	wrctl	status,r2
   440e0:	0044f040 	call	44f04 <OS_Sched>
   440e4:	00000e06 	br	44120 <OSSchedUnlock+0xc4>
   440e8:	e0bffa17 	ldw	r2,-24(fp)
   440ec:	e0bffc15 	stw	r2,-16(fp)
   440f0:	e0bffc17 	ldw	r2,-16(fp)
   440f4:	1001703a 	wrctl	status,r2
   440f8:	00000906 	br	44120 <OSSchedUnlock+0xc4>
   440fc:	e0bffa17 	ldw	r2,-24(fp)
   44100:	e0bffd15 	stw	r2,-12(fp)
   44104:	e0bffd17 	ldw	r2,-12(fp)
   44108:	1001703a 	wrctl	status,r2
   4410c:	00000406 	br	44120 <OSSchedUnlock+0xc4>
   44110:	e0bffa17 	ldw	r2,-24(fp)
   44114:	e0bffe15 	stw	r2,-8(fp)
   44118:	e0bffe17 	ldw	r2,-8(fp)
   4411c:	1001703a 	wrctl	status,r2
   44120:	0001883a 	nop
   44124:	e037883a 	mov	sp,fp
   44128:	dfc00117 	ldw	ra,4(sp)
   4412c:	df000017 	ldw	fp,0(sp)
   44130:	dec00204 	addi	sp,sp,8
   44134:	f800283a 	ret

00044138 <OSStart>:
   44138:	defffe04 	addi	sp,sp,-8
   4413c:	dfc00115 	stw	ra,4(sp)
   44140:	df000015 	stw	fp,0(sp)
   44144:	d839883a 	mov	fp,sp
   44148:	d0a6fa43 	ldbu	r2,-25623(gp)
   4414c:	10803fcc 	andi	r2,r2,255
   44150:	10000f1e 	bne	r2,zero,44190 <OSStart+0x58>
   44154:	0044fd40 	call	44fd4 <OS_SchedNew>
   44158:	d0a6fc03 	ldbu	r2,-25616(gp)
   4415c:	d0a6fc45 	stb	r2,-25615(gp)
   44160:	d0a6fc03 	ldbu	r2,-25616(gp)
   44164:	10c03fcc 	andi	r3,r2,255
   44168:	00800174 	movhi	r2,5
   4416c:	10975104 	addi	r2,r2,23876
   44170:	18c7883a 	add	r3,r3,r3
   44174:	18c7883a 	add	r3,r3,r3
   44178:	10c5883a 	add	r2,r2,r3
   4417c:	10800017 	ldw	r2,0(r2)
   44180:	d0a70415 	stw	r2,-25584(gp)
   44184:	d0a70417 	ldw	r2,-25584(gp)
   44188:	d0a70915 	stw	r2,-25564(gp)
   4418c:	004c68c0 	call	4c68c <OSStartHighRdy>
   44190:	0001883a 	nop
   44194:	e037883a 	mov	sp,fp
   44198:	dfc00117 	ldw	ra,4(sp)
   4419c:	df000017 	ldw	fp,0(sp)
   441a0:	dec00204 	addi	sp,sp,8
   441a4:	f800283a 	ret

000441a8 <OSStatInit>:
   441a8:	defff904 	addi	sp,sp,-28
   441ac:	dfc00615 	stw	ra,24(sp)
   441b0:	df000515 	stw	fp,20(sp)
   441b4:	df000504 	addi	fp,sp,20
   441b8:	e03ffb15 	stw	zero,-20(fp)
   441bc:	01000084 	movi	r4,2
   441c0:	004a8ac0 	call	4a8ac <OSTimeDly>
   441c4:	0005303a 	rdctl	r2,status
   441c8:	e0bffc15 	stw	r2,-16(fp)
   441cc:	e0fffc17 	ldw	r3,-16(fp)
   441d0:	00bfff84 	movi	r2,-2
   441d4:	1884703a 	and	r2,r3,r2
   441d8:	1001703a 	wrctl	status,r2
   441dc:	e0bffc17 	ldw	r2,-16(fp)
   441e0:	e0bffb15 	stw	r2,-20(fp)
   441e4:	d026fb15 	stw	zero,-25620(gp)
   441e8:	e0bffb17 	ldw	r2,-20(fp)
   441ec:	e0bffd15 	stw	r2,-12(fp)
   441f0:	e0bffd17 	ldw	r2,-12(fp)
   441f4:	1001703a 	wrctl	status,r2
   441f8:	01001904 	movi	r4,100
   441fc:	004a8ac0 	call	4a8ac <OSTimeDly>
   44200:	0005303a 	rdctl	r2,status
   44204:	e0bffe15 	stw	r2,-8(fp)
   44208:	e0fffe17 	ldw	r3,-8(fp)
   4420c:	00bfff84 	movi	r2,-2
   44210:	1884703a 	and	r2,r3,r2
   44214:	1001703a 	wrctl	status,r2
   44218:	e0bffe17 	ldw	r2,-8(fp)
   4421c:	e0bffb15 	stw	r2,-20(fp)
   44220:	d0a6fb17 	ldw	r2,-25620(gp)
   44224:	d0a70015 	stw	r2,-25600(gp)
   44228:	00800044 	movi	r2,1
   4422c:	d0a70c05 	stb	r2,-25552(gp)
   44230:	e0bffb17 	ldw	r2,-20(fp)
   44234:	e0bfff15 	stw	r2,-4(fp)
   44238:	e0bfff17 	ldw	r2,-4(fp)
   4423c:	1001703a 	wrctl	status,r2
   44240:	0001883a 	nop
   44244:	e037883a 	mov	sp,fp
   44248:	dfc00117 	ldw	ra,4(sp)
   4424c:	df000017 	ldw	fp,0(sp)
   44250:	dec00204 	addi	sp,sp,8
   44254:	f800283a 	ret

00044258 <OSTimeTick>:
   44258:	defff704 	addi	sp,sp,-36
   4425c:	dfc00815 	stw	ra,32(sp)
   44260:	df000715 	stw	fp,28(sp)
   44264:	df000704 	addi	fp,sp,28
   44268:	e03ffb15 	stw	zero,-20(fp)
   4426c:	004c8b40 	call	4c8b4 <OSTimeTickHook>
   44270:	0005303a 	rdctl	r2,status
   44274:	e0bffd15 	stw	r2,-12(fp)
   44278:	e0fffd17 	ldw	r3,-12(fp)
   4427c:	00bfff84 	movi	r2,-2
   44280:	1884703a 	and	r2,r3,r2
   44284:	1001703a 	wrctl	status,r2
   44288:	e0bffd17 	ldw	r2,-12(fp)
   4428c:	e0bffb15 	stw	r2,-20(fp)
   44290:	d0a70a17 	ldw	r2,-25560(gp)
   44294:	10800044 	addi	r2,r2,1
   44298:	d0a70a15 	stw	r2,-25560(gp)
   4429c:	e0bffb17 	ldw	r2,-20(fp)
   442a0:	e0bfff15 	stw	r2,-4(fp)
   442a4:	e0bfff17 	ldw	r2,-4(fp)
   442a8:	1001703a 	wrctl	status,r2
   442ac:	d0a6fa43 	ldbu	r2,-25623(gp)
   442b0:	10803fcc 	andi	r2,r2,255
   442b4:	10800058 	cmpnei	r2,r2,1
   442b8:	10006a1e 	bne	r2,zero,44464 <OSTimeTick+0x20c>
   442bc:	d0a6fe03 	ldbu	r2,-25608(gp)
   442c0:	10803fcc 	andi	r2,r2,255
   442c4:	10c00060 	cmpeqi	r3,r2,1
   442c8:	1800061e 	bne	r3,zero,442e4 <OSTimeTick+0x8c>
   442cc:	10c000a0 	cmpeqi	r3,r2,2
   442d0:	1800061e 	bne	r3,zero,442ec <OSTimeTick+0x94>
   442d4:	10000a1e 	bne	r2,zero,44300 <OSTimeTick+0xa8>
   442d8:	00800044 	movi	r2,1
   442dc:	e0bffa05 	stb	r2,-24(fp)
   442e0:	00000b06 	br	44310 <OSTimeTick+0xb8>
   442e4:	e03ffa05 	stb	zero,-24(fp)
   442e8:	00000906 	br	44310 <OSTimeTick+0xb8>
   442ec:	00800044 	movi	r2,1
   442f0:	e0bffa05 	stb	r2,-24(fp)
   442f4:	00800044 	movi	r2,1
   442f8:	d0a6fe05 	stb	r2,-25608(gp)
   442fc:	00000406 	br	44310 <OSTimeTick+0xb8>
   44300:	00800044 	movi	r2,1
   44304:	e0bffa05 	stb	r2,-24(fp)
   44308:	d026fe05 	stb	zero,-25608(gp)
   4430c:	0001883a 	nop
   44310:	e0bffa03 	ldbu	r2,-24(fp)
   44314:	10005226 	beq	r2,zero,44460 <OSTimeTick+0x208>
   44318:	d0a6fd17 	ldw	r2,-25612(gp)
   4431c:	e0bff915 	stw	r2,-28(fp)
   44320:	00004906 	br	44448 <OSTimeTick+0x1f0>
   44324:	0005303a 	rdctl	r2,status
   44328:	e0bffc15 	stw	r2,-16(fp)
   4432c:	e0fffc17 	ldw	r3,-16(fp)
   44330:	00bfff84 	movi	r2,-2
   44334:	1884703a 	and	r2,r3,r2
   44338:	1001703a 	wrctl	status,r2
   4433c:	e0bffc17 	ldw	r2,-16(fp)
   44340:	e0bffb15 	stw	r2,-20(fp)
   44344:	e0bff917 	ldw	r2,-28(fp)
   44348:	10800b8b 	ldhu	r2,46(r2)
   4434c:	10bfffcc 	andi	r2,r2,65535
   44350:	10003626 	beq	r2,zero,4442c <OSTimeTick+0x1d4>
   44354:	e0bff917 	ldw	r2,-28(fp)
   44358:	10800b8b 	ldhu	r2,46(r2)
   4435c:	10bfffc4 	addi	r2,r2,-1
   44360:	1007883a 	mov	r3,r2
   44364:	e0bff917 	ldw	r2,-28(fp)
   44368:	10c00b8d 	sth	r3,46(r2)
   4436c:	e0bff917 	ldw	r2,-28(fp)
   44370:	10800b8b 	ldhu	r2,46(r2)
   44374:	10bfffcc 	andi	r2,r2,65535
   44378:	10002c1e 	bne	r2,zero,4442c <OSTimeTick+0x1d4>
   4437c:	e0bff917 	ldw	r2,-28(fp)
   44380:	10800c03 	ldbu	r2,48(r2)
   44384:	10803fcc 	andi	r2,r2,255
   44388:	10800dcc 	andi	r2,r2,55
   4438c:	10000b26 	beq	r2,zero,443bc <OSTimeTick+0x164>
   44390:	e0bff917 	ldw	r2,-28(fp)
   44394:	10c00c03 	ldbu	r3,48(r2)
   44398:	00bff204 	movi	r2,-56
   4439c:	1884703a 	and	r2,r3,r2
   443a0:	1007883a 	mov	r3,r2
   443a4:	e0bff917 	ldw	r2,-28(fp)
   443a8:	10c00c05 	stb	r3,48(r2)
   443ac:	e0bff917 	ldw	r2,-28(fp)
   443b0:	00c00044 	movi	r3,1
   443b4:	10c00c45 	stb	r3,49(r2)
   443b8:	00000206 	br	443c4 <OSTimeTick+0x16c>
   443bc:	e0bff917 	ldw	r2,-28(fp)
   443c0:	10000c45 	stb	zero,49(r2)
   443c4:	e0bff917 	ldw	r2,-28(fp)
   443c8:	10800c03 	ldbu	r2,48(r2)
   443cc:	10803fcc 	andi	r2,r2,255
   443d0:	1080020c 	andi	r2,r2,8
   443d4:	1000151e 	bne	r2,zero,4442c <OSTimeTick+0x1d4>
   443d8:	e0bff917 	ldw	r2,-28(fp)
   443dc:	10c00d83 	ldbu	r3,54(r2)
   443e0:	d0a70603 	ldbu	r2,-25576(gp)
   443e4:	1884b03a 	or	r2,r3,r2
   443e8:	d0a70605 	stb	r2,-25576(gp)
   443ec:	e0bff917 	ldw	r2,-28(fp)
   443f0:	10800d03 	ldbu	r2,52(r2)
   443f4:	10c03fcc 	andi	r3,r2,255
   443f8:	e0bff917 	ldw	r2,-28(fp)
   443fc:	10800d03 	ldbu	r2,52(r2)
   44400:	11003fcc 	andi	r4,r2,255
   44404:	d0a70644 	addi	r2,gp,-25575
   44408:	2085883a 	add	r2,r4,r2
   4440c:	11000003 	ldbu	r4,0(r2)
   44410:	e0bff917 	ldw	r2,-28(fp)
   44414:	10800d43 	ldbu	r2,53(r2)
   44418:	2084b03a 	or	r2,r4,r2
   4441c:	1009883a 	mov	r4,r2
   44420:	d0a70644 	addi	r2,gp,-25575
   44424:	1885883a 	add	r2,r3,r2
   44428:	11000005 	stb	r4,0(r2)
   4442c:	e0bff917 	ldw	r2,-28(fp)
   44430:	10800517 	ldw	r2,20(r2)
   44434:	e0bff915 	stw	r2,-28(fp)
   44438:	e0bffb17 	ldw	r2,-20(fp)
   4443c:	e0bffe15 	stw	r2,-8(fp)
   44440:	e0bffe17 	ldw	r2,-8(fp)
   44444:	1001703a 	wrctl	status,r2
   44448:	e0bff917 	ldw	r2,-28(fp)
   4444c:	10800c83 	ldbu	r2,50(r2)
   44450:	10803fcc 	andi	r2,r2,255
   44454:	10800518 	cmpnei	r2,r2,20
   44458:	103fb21e 	bne	r2,zero,44324 <__alt_data_end+0xfffdeb24>
   4445c:	00000106 	br	44464 <OSTimeTick+0x20c>
   44460:	0001883a 	nop
   44464:	e037883a 	mov	sp,fp
   44468:	dfc00117 	ldw	ra,4(sp)
   4446c:	df000017 	ldw	fp,0(sp)
   44470:	dec00204 	addi	sp,sp,8
   44474:	f800283a 	ret

00044478 <OSVersion>:
   44478:	deffff04 	addi	sp,sp,-4
   4447c:	df000015 	stw	fp,0(sp)
   44480:	d839883a 	mov	fp,sp
   44484:	00804784 	movi	r2,286
   44488:	e037883a 	mov	sp,fp
   4448c:	df000017 	ldw	fp,0(sp)
   44490:	dec00104 	addi	sp,sp,4
   44494:	f800283a 	ret

00044498 <OS_Dummy>:
   44498:	deffff04 	addi	sp,sp,-4
   4449c:	df000015 	stw	fp,0(sp)
   444a0:	d839883a 	mov	fp,sp
   444a4:	0001883a 	nop
   444a8:	e037883a 	mov	sp,fp
   444ac:	df000017 	ldw	fp,0(sp)
   444b0:	dec00104 	addi	sp,sp,4
   444b4:	f800283a 	ret

000444b8 <OS_EventTaskRdy>:
   444b8:	defff804 	addi	sp,sp,-32
   444bc:	dfc00715 	stw	ra,28(sp)
   444c0:	df000615 	stw	fp,24(sp)
   444c4:	df000604 	addi	fp,sp,24
   444c8:	e13ffc15 	stw	r4,-16(fp)
   444cc:	e17ffd15 	stw	r5,-12(fp)
   444d0:	3007883a 	mov	r3,r6
   444d4:	3805883a 	mov	r2,r7
   444d8:	e0fffe05 	stb	r3,-8(fp)
   444dc:	e0bfff05 	stb	r2,-4(fp)
   444e0:	e0bffc17 	ldw	r2,-16(fp)
   444e4:	10800283 	ldbu	r2,10(r2)
   444e8:	10c03fcc 	andi	r3,r2,255
   444ec:	00800174 	movhi	r2,5
   444f0:	10b4a504 	addi	r2,r2,-11628
   444f4:	10c5883a 	add	r2,r2,r3
   444f8:	10800003 	ldbu	r2,0(r2)
   444fc:	e0bffa05 	stb	r2,-24(fp)
   44500:	e0bffa03 	ldbu	r2,-24(fp)
   44504:	e0fffc17 	ldw	r3,-16(fp)
   44508:	1885883a 	add	r2,r3,r2
   4450c:	108002c4 	addi	r2,r2,11
   44510:	10800003 	ldbu	r2,0(r2)
   44514:	10c03fcc 	andi	r3,r2,255
   44518:	00800174 	movhi	r2,5
   4451c:	10b4a504 	addi	r2,r2,-11628
   44520:	10c5883a 	add	r2,r2,r3
   44524:	10800003 	ldbu	r2,0(r2)
   44528:	e0bffa45 	stb	r2,-23(fp)
   4452c:	e0bffa03 	ldbu	r2,-24(fp)
   44530:	100490fa 	slli	r2,r2,3
   44534:	1007883a 	mov	r3,r2
   44538:	e0bffa43 	ldbu	r2,-23(fp)
   4453c:	1885883a 	add	r2,r3,r2
   44540:	e0bffa85 	stb	r2,-22(fp)
   44544:	e0fffa83 	ldbu	r3,-22(fp)
   44548:	00800174 	movhi	r2,5
   4454c:	10975104 	addi	r2,r2,23876
   44550:	18c7883a 	add	r3,r3,r3
   44554:	18c7883a 	add	r3,r3,r3
   44558:	10c5883a 	add	r2,r2,r3
   4455c:	10800017 	ldw	r2,0(r2)
   44560:	e0bffb15 	stw	r2,-20(fp)
   44564:	e0bffb17 	ldw	r2,-20(fp)
   44568:	10000b8d 	sth	zero,46(r2)
   4456c:	e0bffb17 	ldw	r2,-20(fp)
   44570:	e0fffd17 	ldw	r3,-12(fp)
   44574:	10c00915 	stw	r3,36(r2)
   44578:	e0bffb17 	ldw	r2,-20(fp)
   4457c:	10800c03 	ldbu	r2,48(r2)
   44580:	1007883a 	mov	r3,r2
   44584:	e0bffe03 	ldbu	r2,-8(fp)
   44588:	0084303a 	nor	r2,zero,r2
   4458c:	1884703a 	and	r2,r3,r2
   44590:	1007883a 	mov	r3,r2
   44594:	e0bffb17 	ldw	r2,-20(fp)
   44598:	10c00c05 	stb	r3,48(r2)
   4459c:	e0bffb17 	ldw	r2,-20(fp)
   445a0:	e0ffff03 	ldbu	r3,-4(fp)
   445a4:	10c00c45 	stb	r3,49(r2)
   445a8:	e0bffb17 	ldw	r2,-20(fp)
   445ac:	10800c03 	ldbu	r2,48(r2)
   445b0:	10803fcc 	andi	r2,r2,255
   445b4:	1080020c 	andi	r2,r2,8
   445b8:	1000111e 	bne	r2,zero,44600 <OS_EventTaskRdy+0x148>
   445bc:	e0bffb17 	ldw	r2,-20(fp)
   445c0:	10c00d83 	ldbu	r3,54(r2)
   445c4:	d0a70603 	ldbu	r2,-25576(gp)
   445c8:	1884b03a 	or	r2,r3,r2
   445cc:	d0a70605 	stb	r2,-25576(gp)
   445d0:	e0fffa03 	ldbu	r3,-24(fp)
   445d4:	e13ffa03 	ldbu	r4,-24(fp)
   445d8:	d0a70644 	addi	r2,gp,-25575
   445dc:	2085883a 	add	r2,r4,r2
   445e0:	11000003 	ldbu	r4,0(r2)
   445e4:	e0bffb17 	ldw	r2,-20(fp)
   445e8:	10800d43 	ldbu	r2,53(r2)
   445ec:	2084b03a 	or	r2,r4,r2
   445f0:	1009883a 	mov	r4,r2
   445f4:	d0a70644 	addi	r2,gp,-25575
   445f8:	1885883a 	add	r2,r3,r2
   445fc:	11000005 	stb	r4,0(r2)
   44600:	e17ffc17 	ldw	r5,-16(fp)
   44604:	e13ffb17 	ldw	r4,-20(fp)
   44608:	00448b00 	call	448b0 <OS_EventTaskRemove>
   4460c:	e0bffb17 	ldw	r2,-20(fp)
   44610:	10800817 	ldw	r2,32(r2)
   44614:	10000826 	beq	r2,zero,44638 <OS_EventTaskRdy+0x180>
   44618:	e0bffb17 	ldw	r2,-20(fp)
   4461c:	10800817 	ldw	r2,32(r2)
   44620:	100b883a 	mov	r5,r2
   44624:	e13ffb17 	ldw	r4,-20(fp)
   44628:	00449680 	call	44968 <OS_EventTaskRemoveMulti>
   4462c:	e0bffb17 	ldw	r2,-20(fp)
   44630:	e0fffc17 	ldw	r3,-16(fp)
   44634:	10c00715 	stw	r3,28(r2)
   44638:	e0bffa83 	ldbu	r2,-22(fp)
   4463c:	e037883a 	mov	sp,fp
   44640:	dfc00117 	ldw	ra,4(sp)
   44644:	df000017 	ldw	fp,0(sp)
   44648:	dec00204 	addi	sp,sp,8
   4464c:	f800283a 	ret

00044650 <OS_EventTaskWait>:
   44650:	defffd04 	addi	sp,sp,-12
   44654:	df000215 	stw	fp,8(sp)
   44658:	df000204 	addi	fp,sp,8
   4465c:	e13fff15 	stw	r4,-4(fp)
   44660:	d0a70917 	ldw	r2,-25564(gp)
   44664:	e0ffff17 	ldw	r3,-4(fp)
   44668:	10c00715 	stw	r3,28(r2)
   4466c:	d0a70917 	ldw	r2,-25564(gp)
   44670:	10800d03 	ldbu	r2,52(r2)
   44674:	10803fcc 	andi	r2,r2,255
   44678:	d0e70917 	ldw	r3,-25564(gp)
   4467c:	18c00d03 	ldbu	r3,52(r3)
   44680:	18c03fcc 	andi	r3,r3,255
   44684:	e13fff17 	ldw	r4,-4(fp)
   44688:	20c7883a 	add	r3,r4,r3
   4468c:	18c002c4 	addi	r3,r3,11
   44690:	19000003 	ldbu	r4,0(r3)
   44694:	d0e70917 	ldw	r3,-25564(gp)
   44698:	18c00d43 	ldbu	r3,53(r3)
   4469c:	20c6b03a 	or	r3,r4,r3
   446a0:	1809883a 	mov	r4,r3
   446a4:	e0ffff17 	ldw	r3,-4(fp)
   446a8:	1885883a 	add	r2,r3,r2
   446ac:	108002c4 	addi	r2,r2,11
   446b0:	11000005 	stb	r4,0(r2)
   446b4:	e0bfff17 	ldw	r2,-4(fp)
   446b8:	10c00283 	ldbu	r3,10(r2)
   446bc:	d0a70917 	ldw	r2,-25564(gp)
   446c0:	10800d83 	ldbu	r2,54(r2)
   446c4:	1884b03a 	or	r2,r3,r2
   446c8:	1007883a 	mov	r3,r2
   446cc:	e0bfff17 	ldw	r2,-4(fp)
   446d0:	10c00285 	stb	r3,10(r2)
   446d4:	d0a70917 	ldw	r2,-25564(gp)
   446d8:	10800d03 	ldbu	r2,52(r2)
   446dc:	e0bffe05 	stb	r2,-8(fp)
   446e0:	e0fffe03 	ldbu	r3,-8(fp)
   446e4:	e13ffe03 	ldbu	r4,-8(fp)
   446e8:	d0a70644 	addi	r2,gp,-25575
   446ec:	2085883a 	add	r2,r4,r2
   446f0:	10800003 	ldbu	r2,0(r2)
   446f4:	1009883a 	mov	r4,r2
   446f8:	d0a70917 	ldw	r2,-25564(gp)
   446fc:	10800d43 	ldbu	r2,53(r2)
   44700:	0084303a 	nor	r2,zero,r2
   44704:	2084703a 	and	r2,r4,r2
   44708:	1009883a 	mov	r4,r2
   4470c:	d0a70644 	addi	r2,gp,-25575
   44710:	1885883a 	add	r2,r3,r2
   44714:	11000005 	stb	r4,0(r2)
   44718:	e0fffe03 	ldbu	r3,-8(fp)
   4471c:	d0a70644 	addi	r2,gp,-25575
   44720:	1885883a 	add	r2,r3,r2
   44724:	10800003 	ldbu	r2,0(r2)
   44728:	10803fcc 	andi	r2,r2,255
   4472c:	1000071e 	bne	r2,zero,4474c <OS_EventTaskWait+0xfc>
   44730:	d0a70917 	ldw	r2,-25564(gp)
   44734:	10800d83 	ldbu	r2,54(r2)
   44738:	0084303a 	nor	r2,zero,r2
   4473c:	1007883a 	mov	r3,r2
   44740:	d0a70603 	ldbu	r2,-25576(gp)
   44744:	1884703a 	and	r2,r3,r2
   44748:	d0a70605 	stb	r2,-25576(gp)
   4474c:	0001883a 	nop
   44750:	e037883a 	mov	sp,fp
   44754:	df000017 	ldw	fp,0(sp)
   44758:	dec00104 	addi	sp,sp,4
   4475c:	f800283a 	ret

00044760 <OS_EventTaskWaitMulti>:
   44760:	defffb04 	addi	sp,sp,-20
   44764:	df000415 	stw	fp,16(sp)
   44768:	df000404 	addi	fp,sp,16
   4476c:	e13fff15 	stw	r4,-4(fp)
   44770:	d0a70917 	ldw	r2,-25564(gp)
   44774:	10000715 	stw	zero,28(r2)
   44778:	d0a70917 	ldw	r2,-25564(gp)
   4477c:	e0ffff17 	ldw	r3,-4(fp)
   44780:	10c00815 	stw	r3,32(r2)
   44784:	e0bfff17 	ldw	r2,-4(fp)
   44788:	e0bffc15 	stw	r2,-16(fp)
   4478c:	e0bffc17 	ldw	r2,-16(fp)
   44790:	10800017 	ldw	r2,0(r2)
   44794:	e0bffd15 	stw	r2,-12(fp)
   44798:	00002006 	br	4481c <OS_EventTaskWaitMulti+0xbc>
   4479c:	d0a70917 	ldw	r2,-25564(gp)
   447a0:	10800d03 	ldbu	r2,52(r2)
   447a4:	10803fcc 	andi	r2,r2,255
   447a8:	d0e70917 	ldw	r3,-25564(gp)
   447ac:	18c00d03 	ldbu	r3,52(r3)
   447b0:	18c03fcc 	andi	r3,r3,255
   447b4:	e13ffd17 	ldw	r4,-12(fp)
   447b8:	20c7883a 	add	r3,r4,r3
   447bc:	18c002c4 	addi	r3,r3,11
   447c0:	19000003 	ldbu	r4,0(r3)
   447c4:	d0e70917 	ldw	r3,-25564(gp)
   447c8:	18c00d43 	ldbu	r3,53(r3)
   447cc:	20c6b03a 	or	r3,r4,r3
   447d0:	1809883a 	mov	r4,r3
   447d4:	e0fffd17 	ldw	r3,-12(fp)
   447d8:	1885883a 	add	r2,r3,r2
   447dc:	108002c4 	addi	r2,r2,11
   447e0:	11000005 	stb	r4,0(r2)
   447e4:	e0bffd17 	ldw	r2,-12(fp)
   447e8:	10c00283 	ldbu	r3,10(r2)
   447ec:	d0a70917 	ldw	r2,-25564(gp)
   447f0:	10800d83 	ldbu	r2,54(r2)
   447f4:	1884b03a 	or	r2,r3,r2
   447f8:	1007883a 	mov	r3,r2
   447fc:	e0bffd17 	ldw	r2,-12(fp)
   44800:	10c00285 	stb	r3,10(r2)
   44804:	e0bffc17 	ldw	r2,-16(fp)
   44808:	10800104 	addi	r2,r2,4
   4480c:	e0bffc15 	stw	r2,-16(fp)
   44810:	e0bffc17 	ldw	r2,-16(fp)
   44814:	10800017 	ldw	r2,0(r2)
   44818:	e0bffd15 	stw	r2,-12(fp)
   4481c:	e0bffd17 	ldw	r2,-12(fp)
   44820:	103fde1e 	bne	r2,zero,4479c <__alt_data_end+0xfffdef9c>
   44824:	d0a70917 	ldw	r2,-25564(gp)
   44828:	10800d03 	ldbu	r2,52(r2)
   4482c:	e0bffe05 	stb	r2,-8(fp)
   44830:	e0fffe03 	ldbu	r3,-8(fp)
   44834:	e13ffe03 	ldbu	r4,-8(fp)
   44838:	d0a70644 	addi	r2,gp,-25575
   4483c:	2085883a 	add	r2,r4,r2
   44840:	10800003 	ldbu	r2,0(r2)
   44844:	1009883a 	mov	r4,r2
   44848:	d0a70917 	ldw	r2,-25564(gp)
   4484c:	10800d43 	ldbu	r2,53(r2)
   44850:	0084303a 	nor	r2,zero,r2
   44854:	2084703a 	and	r2,r4,r2
   44858:	1009883a 	mov	r4,r2
   4485c:	d0a70644 	addi	r2,gp,-25575
   44860:	1885883a 	add	r2,r3,r2
   44864:	11000005 	stb	r4,0(r2)
   44868:	e0fffe03 	ldbu	r3,-8(fp)
   4486c:	d0a70644 	addi	r2,gp,-25575
   44870:	1885883a 	add	r2,r3,r2
   44874:	10800003 	ldbu	r2,0(r2)
   44878:	10803fcc 	andi	r2,r2,255
   4487c:	1000071e 	bne	r2,zero,4489c <OS_EventTaskWaitMulti+0x13c>
   44880:	d0a70917 	ldw	r2,-25564(gp)
   44884:	10800d83 	ldbu	r2,54(r2)
   44888:	0084303a 	nor	r2,zero,r2
   4488c:	1007883a 	mov	r3,r2
   44890:	d0a70603 	ldbu	r2,-25576(gp)
   44894:	1884703a 	and	r2,r3,r2
   44898:	d0a70605 	stb	r2,-25576(gp)
   4489c:	0001883a 	nop
   448a0:	e037883a 	mov	sp,fp
   448a4:	df000017 	ldw	fp,0(sp)
   448a8:	dec00104 	addi	sp,sp,4
   448ac:	f800283a 	ret

000448b0 <OS_EventTaskRemove>:
   448b0:	defffc04 	addi	sp,sp,-16
   448b4:	df000315 	stw	fp,12(sp)
   448b8:	df000304 	addi	fp,sp,12
   448bc:	e13ffe15 	stw	r4,-8(fp)
   448c0:	e17fff15 	stw	r5,-4(fp)
   448c4:	e0bffe17 	ldw	r2,-8(fp)
   448c8:	10800d03 	ldbu	r2,52(r2)
   448cc:	e0bffd05 	stb	r2,-12(fp)
   448d0:	e0bffd03 	ldbu	r2,-12(fp)
   448d4:	e0fffd03 	ldbu	r3,-12(fp)
   448d8:	e13fff17 	ldw	r4,-4(fp)
   448dc:	20c7883a 	add	r3,r4,r3
   448e0:	18c002c4 	addi	r3,r3,11
   448e4:	18c00003 	ldbu	r3,0(r3)
   448e8:	1809883a 	mov	r4,r3
   448ec:	e0fffe17 	ldw	r3,-8(fp)
   448f0:	18c00d43 	ldbu	r3,53(r3)
   448f4:	00c6303a 	nor	r3,zero,r3
   448f8:	20c6703a 	and	r3,r4,r3
   448fc:	1809883a 	mov	r4,r3
   44900:	e0ffff17 	ldw	r3,-4(fp)
   44904:	1885883a 	add	r2,r3,r2
   44908:	108002c4 	addi	r2,r2,11
   4490c:	11000005 	stb	r4,0(r2)
   44910:	e0bffd03 	ldbu	r2,-12(fp)
   44914:	e0ffff17 	ldw	r3,-4(fp)
   44918:	1885883a 	add	r2,r3,r2
   4491c:	108002c4 	addi	r2,r2,11
   44920:	10800003 	ldbu	r2,0(r2)
   44924:	10803fcc 	andi	r2,r2,255
   44928:	10000a1e 	bne	r2,zero,44954 <OS_EventTaskRemove+0xa4>
   4492c:	e0bfff17 	ldw	r2,-4(fp)
   44930:	10800283 	ldbu	r2,10(r2)
   44934:	1007883a 	mov	r3,r2
   44938:	e0bffe17 	ldw	r2,-8(fp)
   4493c:	10800d83 	ldbu	r2,54(r2)
   44940:	0084303a 	nor	r2,zero,r2
   44944:	1884703a 	and	r2,r3,r2
   44948:	1007883a 	mov	r3,r2
   4494c:	e0bfff17 	ldw	r2,-4(fp)
   44950:	10c00285 	stb	r3,10(r2)
   44954:	0001883a 	nop
   44958:	e037883a 	mov	sp,fp
   4495c:	df000017 	ldw	fp,0(sp)
   44960:	dec00104 	addi	sp,sp,4
   44964:	f800283a 	ret

00044968 <OS_EventTaskRemoveMulti>:
   44968:	defffa04 	addi	sp,sp,-24
   4496c:	df000515 	stw	fp,20(sp)
   44970:	df000504 	addi	fp,sp,20
   44974:	e13ffe15 	stw	r4,-8(fp)
   44978:	e17fff15 	stw	r5,-4(fp)
   4497c:	e0bffe17 	ldw	r2,-8(fp)
   44980:	10800d03 	ldbu	r2,52(r2)
   44984:	e0bffd05 	stb	r2,-12(fp)
   44988:	e0bffe17 	ldw	r2,-8(fp)
   4498c:	10800d83 	ldbu	r2,54(r2)
   44990:	e0bffd45 	stb	r2,-11(fp)
   44994:	e0bffe17 	ldw	r2,-8(fp)
   44998:	10800d43 	ldbu	r2,53(r2)
   4499c:	e0bffd85 	stb	r2,-10(fp)
   449a0:	e0bfff17 	ldw	r2,-4(fp)
   449a4:	e0bffb15 	stw	r2,-20(fp)
   449a8:	e0bffb17 	ldw	r2,-20(fp)
   449ac:	10800017 	ldw	r2,0(r2)
   449b0:	e0bffc15 	stw	r2,-16(fp)
   449b4:	00002506 	br	44a4c <OS_EventTaskRemoveMulti+0xe4>
   449b8:	e0bffd03 	ldbu	r2,-12(fp)
   449bc:	e0fffd03 	ldbu	r3,-12(fp)
   449c0:	e13ffc17 	ldw	r4,-16(fp)
   449c4:	20c7883a 	add	r3,r4,r3
   449c8:	18c002c4 	addi	r3,r3,11
   449cc:	18c00003 	ldbu	r3,0(r3)
   449d0:	1809883a 	mov	r4,r3
   449d4:	e0fffd83 	ldbu	r3,-10(fp)
   449d8:	00c6303a 	nor	r3,zero,r3
   449dc:	20c6703a 	and	r3,r4,r3
   449e0:	1809883a 	mov	r4,r3
   449e4:	e0fffc17 	ldw	r3,-16(fp)
   449e8:	1885883a 	add	r2,r3,r2
   449ec:	108002c4 	addi	r2,r2,11
   449f0:	11000005 	stb	r4,0(r2)
   449f4:	e0bffd03 	ldbu	r2,-12(fp)
   449f8:	e0fffc17 	ldw	r3,-16(fp)
   449fc:	1885883a 	add	r2,r3,r2
   44a00:	108002c4 	addi	r2,r2,11
   44a04:	10800003 	ldbu	r2,0(r2)
   44a08:	10803fcc 	andi	r2,r2,255
   44a0c:	1000091e 	bne	r2,zero,44a34 <OS_EventTaskRemoveMulti+0xcc>
   44a10:	e0bffc17 	ldw	r2,-16(fp)
   44a14:	10800283 	ldbu	r2,10(r2)
   44a18:	1007883a 	mov	r3,r2
   44a1c:	e0bffd43 	ldbu	r2,-11(fp)
   44a20:	0084303a 	nor	r2,zero,r2
   44a24:	1884703a 	and	r2,r3,r2
   44a28:	1007883a 	mov	r3,r2
   44a2c:	e0bffc17 	ldw	r2,-16(fp)
   44a30:	10c00285 	stb	r3,10(r2)
   44a34:	e0bffb17 	ldw	r2,-20(fp)
   44a38:	10800104 	addi	r2,r2,4
   44a3c:	e0bffb15 	stw	r2,-20(fp)
   44a40:	e0bffb17 	ldw	r2,-20(fp)
   44a44:	10800017 	ldw	r2,0(r2)
   44a48:	e0bffc15 	stw	r2,-16(fp)
   44a4c:	e0bffc17 	ldw	r2,-16(fp)
   44a50:	103fd91e 	bne	r2,zero,449b8 <__alt_data_end+0xfffdf1b8>
   44a54:	0001883a 	nop
   44a58:	e037883a 	mov	sp,fp
   44a5c:	df000017 	ldw	fp,0(sp)
   44a60:	dec00104 	addi	sp,sp,4
   44a64:	f800283a 	ret

00044a68 <OS_EventWaitListInit>:
   44a68:	defffc04 	addi	sp,sp,-16
   44a6c:	df000315 	stw	fp,12(sp)
   44a70:	df000304 	addi	fp,sp,12
   44a74:	e13fff15 	stw	r4,-4(fp)
   44a78:	e0bfff17 	ldw	r2,-4(fp)
   44a7c:	10000285 	stb	zero,10(r2)
   44a80:	e0bfff17 	ldw	r2,-4(fp)
   44a84:	108002c4 	addi	r2,r2,11
   44a88:	e0bffd15 	stw	r2,-12(fp)
   44a8c:	e03ffe05 	stb	zero,-8(fp)
   44a90:	00000706 	br	44ab0 <OS_EventWaitListInit+0x48>
   44a94:	e0bffd17 	ldw	r2,-12(fp)
   44a98:	10c00044 	addi	r3,r2,1
   44a9c:	e0fffd15 	stw	r3,-12(fp)
   44aa0:	10000005 	stb	zero,0(r2)
   44aa4:	e0bffe03 	ldbu	r2,-8(fp)
   44aa8:	10800044 	addi	r2,r2,1
   44aac:	e0bffe05 	stb	r2,-8(fp)
   44ab0:	e0bffe03 	ldbu	r2,-8(fp)
   44ab4:	108000f0 	cmpltui	r2,r2,3
   44ab8:	103ff61e 	bne	r2,zero,44a94 <__alt_data_end+0xfffdf294>
   44abc:	0001883a 	nop
   44ac0:	e037883a 	mov	sp,fp
   44ac4:	df000017 	ldw	fp,0(sp)
   44ac8:	dec00104 	addi	sp,sp,4
   44acc:	f800283a 	ret

00044ad0 <OS_InitEventList>:
   44ad0:	defffb04 	addi	sp,sp,-20
   44ad4:	dfc00415 	stw	ra,16(sp)
   44ad8:	df000315 	stw	fp,12(sp)
   44adc:	df000304 	addi	fp,sp,12
   44ae0:	0142d004 	movi	r5,2880
   44ae4:	01000174 	movhi	r4,5
   44ae8:	21133d04 	addi	r4,r4,19700
   44aec:	0044e480 	call	44e48 <OS_MemClr>
   44af0:	00800174 	movhi	r2,5
   44af4:	10933d04 	addi	r2,r2,19700
   44af8:	e0bffe15 	stw	r2,-8(fp)
   44afc:	00800174 	movhi	r2,5
   44b00:	10934904 	addi	r2,r2,19748
   44b04:	e0bfff15 	stw	r2,-4(fp)
   44b08:	e03ffd0d 	sth	zero,-12(fp)
   44b0c:	00001306 	br	44b5c <OS_InitEventList+0x8c>
   44b10:	e0bffe17 	ldw	r2,-8(fp)
   44b14:	10000005 	stb	zero,0(r2)
   44b18:	e0bffe17 	ldw	r2,-8(fp)
   44b1c:	e0ffff17 	ldw	r3,-4(fp)
   44b20:	10c00115 	stw	r3,4(r2)
   44b24:	e0bffe17 	ldw	r2,-8(fp)
   44b28:	00c00fc4 	movi	r3,63
   44b2c:	10c00385 	stb	r3,14(r2)
   44b30:	e0bffe17 	ldw	r2,-8(fp)
   44b34:	100003c5 	stb	zero,15(r2)
   44b38:	e0bffe17 	ldw	r2,-8(fp)
   44b3c:	10800c04 	addi	r2,r2,48
   44b40:	e0bffe15 	stw	r2,-8(fp)
   44b44:	e0bfff17 	ldw	r2,-4(fp)
   44b48:	10800c04 	addi	r2,r2,48
   44b4c:	e0bfff15 	stw	r2,-4(fp)
   44b50:	e0bffd0b 	ldhu	r2,-12(fp)
   44b54:	10800044 	addi	r2,r2,1
   44b58:	e0bffd0d 	sth	r2,-12(fp)
   44b5c:	e0bffd0b 	ldhu	r2,-12(fp)
   44b60:	10800ef0 	cmpltui	r2,r2,59
   44b64:	103fea1e 	bne	r2,zero,44b10 <__alt_data_end+0xfffdf310>
   44b68:	e0bffe17 	ldw	r2,-8(fp)
   44b6c:	10000005 	stb	zero,0(r2)
   44b70:	e0bffe17 	ldw	r2,-8(fp)
   44b74:	10000115 	stw	zero,4(r2)
   44b78:	e0bffe17 	ldw	r2,-8(fp)
   44b7c:	00c00fc4 	movi	r3,63
   44b80:	10c00385 	stb	r3,14(r2)
   44b84:	e0bffe17 	ldw	r2,-8(fp)
   44b88:	100003c5 	stb	zero,15(r2)
   44b8c:	00800174 	movhi	r2,5
   44b90:	10933d04 	addi	r2,r2,19700
   44b94:	d0a70715 	stw	r2,-25572(gp)
   44b98:	0001883a 	nop
   44b9c:	e037883a 	mov	sp,fp
   44ba0:	dfc00117 	ldw	ra,4(sp)
   44ba4:	df000017 	ldw	fp,0(sp)
   44ba8:	dec00204 	addi	sp,sp,8
   44bac:	f800283a 	ret

00044bb0 <OS_InitMisc>:
   44bb0:	deffff04 	addi	sp,sp,-4
   44bb4:	df000015 	stw	fp,0(sp)
   44bb8:	d839883a 	mov	fp,sp
   44bbc:	d0270a15 	stw	zero,-25560(gp)
   44bc0:	d0270805 	stb	zero,-25568(gp)
   44bc4:	d026fa05 	stb	zero,-25624(gp)
   44bc8:	d0270245 	stb	zero,-25591(gp)
   44bcc:	d026fa45 	stb	zero,-25623(gp)
   44bd0:	d026ff15 	stw	zero,-25604(gp)
   44bd4:	d026fb15 	stw	zero,-25620(gp)
   44bd8:	d0270d15 	stw	zero,-25548(gp)
   44bdc:	d0270015 	stw	zero,-25600(gp)
   44be0:	d0270c05 	stb	zero,-25552(gp)
   44be4:	0001883a 	nop
   44be8:	e037883a 	mov	sp,fp
   44bec:	df000017 	ldw	fp,0(sp)
   44bf0:	dec00104 	addi	sp,sp,4
   44bf4:	f800283a 	ret

00044bf8 <OS_InitRdyList>:
   44bf8:	defffd04 	addi	sp,sp,-12
   44bfc:	df000215 	stw	fp,8(sp)
   44c00:	df000204 	addi	fp,sp,8
   44c04:	d0270605 	stb	zero,-25576(gp)
   44c08:	d0a70644 	addi	r2,gp,-25575
   44c0c:	e0bfff15 	stw	r2,-4(fp)
   44c10:	e03ffe05 	stb	zero,-8(fp)
   44c14:	00000706 	br	44c34 <OS_InitRdyList+0x3c>
   44c18:	e0bfff17 	ldw	r2,-4(fp)
   44c1c:	10c00044 	addi	r3,r2,1
   44c20:	e0ffff15 	stw	r3,-4(fp)
   44c24:	10000005 	stb	zero,0(r2)
   44c28:	e0bffe03 	ldbu	r2,-8(fp)
   44c2c:	10800044 	addi	r2,r2,1
   44c30:	e0bffe05 	stb	r2,-8(fp)
   44c34:	e0bffe03 	ldbu	r2,-8(fp)
   44c38:	108000f0 	cmpltui	r2,r2,3
   44c3c:	103ff61e 	bne	r2,zero,44c18 <__alt_data_end+0xfffdf418>
   44c40:	d026fc45 	stb	zero,-25615(gp)
   44c44:	d026fc05 	stb	zero,-25616(gp)
   44c48:	d0270415 	stw	zero,-25584(gp)
   44c4c:	d0270915 	stw	zero,-25564(gp)
   44c50:	0001883a 	nop
   44c54:	e037883a 	mov	sp,fp
   44c58:	df000017 	ldw	fp,0(sp)
   44c5c:	dec00104 	addi	sp,sp,4
   44c60:	f800283a 	ret

00044c64 <OS_InitTaskIdle>:
   44c64:	defff804 	addi	sp,sp,-32
   44c68:	dfc00715 	stw	ra,28(sp)
   44c6c:	df000615 	stw	fp,24(sp)
   44c70:	df000604 	addi	fp,sp,24
   44c74:	008000c4 	movi	r2,3
   44c78:	d8800415 	stw	r2,16(sp)
   44c7c:	d8000315 	stw	zero,12(sp)
   44c80:	00808004 	movi	r2,512
   44c84:	d8800215 	stw	r2,8(sp)
   44c88:	00800174 	movhi	r2,5
   44c8c:	10913d04 	addi	r2,r2,17652
   44c90:	d8800115 	stw	r2,4(sp)
   44c94:	00bfffd4 	movui	r2,65535
   44c98:	d8800015 	stw	r2,0(sp)
   44c9c:	01c00504 	movi	r7,20
   44ca0:	01800174 	movhi	r6,5
   44ca4:	31933c04 	addi	r6,r6,19696
   44ca8:	000b883a 	mov	r5,zero
   44cac:	01000134 	movhi	r4,4
   44cb0:	21144404 	addi	r4,r4,20752
   44cb4:	00497dc0 	call	497dc <OSTaskCreateExt>
   44cb8:	e1bfff04 	addi	r6,fp,-4
   44cbc:	01400174 	movhi	r5,5
   44cc0:	2974e504 	addi	r5,r5,-11372
   44cc4:	01000504 	movi	r4,20
   44cc8:	0049fec0 	call	49fec <OSTaskNameSet>
   44ccc:	0001883a 	nop
   44cd0:	e037883a 	mov	sp,fp
   44cd4:	dfc00117 	ldw	ra,4(sp)
   44cd8:	df000017 	ldw	fp,0(sp)
   44cdc:	dec00204 	addi	sp,sp,8
   44ce0:	f800283a 	ret

00044ce4 <OS_InitTaskStat>:
   44ce4:	defff804 	addi	sp,sp,-32
   44ce8:	dfc00715 	stw	ra,28(sp)
   44cec:	df000615 	stw	fp,24(sp)
   44cf0:	df000604 	addi	fp,sp,24
   44cf4:	008000c4 	movi	r2,3
   44cf8:	d8800415 	stw	r2,16(sp)
   44cfc:	d8000315 	stw	zero,12(sp)
   44d00:	00808004 	movi	r2,512
   44d04:	d8800215 	stw	r2,8(sp)
   44d08:	00800174 	movhi	r2,5
   44d0c:	108ec504 	addi	r2,r2,15124
   44d10:	d8800115 	stw	r2,4(sp)
   44d14:	00bfff94 	movui	r2,65534
   44d18:	d8800015 	stw	r2,0(sp)
   44d1c:	01c004c4 	movi	r7,19
   44d20:	01800174 	movhi	r6,5
   44d24:	3190c404 	addi	r6,r6,17168
   44d28:	000b883a 	mov	r5,zero
   44d2c:	01000134 	movhi	r4,4
   44d30:	21145b04 	addi	r4,r4,20844
   44d34:	00497dc0 	call	497dc <OSTaskCreateExt>
   44d38:	e1bfff04 	addi	r6,fp,-4
   44d3c:	01400174 	movhi	r5,5
   44d40:	2974e904 	addi	r5,r5,-11356
   44d44:	010004c4 	movi	r4,19
   44d48:	0049fec0 	call	49fec <OSTaskNameSet>
   44d4c:	0001883a 	nop
   44d50:	e037883a 	mov	sp,fp
   44d54:	dfc00117 	ldw	ra,4(sp)
   44d58:	df000017 	ldw	fp,0(sp)
   44d5c:	dec00204 	addi	sp,sp,8
   44d60:	f800283a 	ret

00044d64 <OS_InitTCBList>:
   44d64:	defffb04 	addi	sp,sp,-20
   44d68:	dfc00415 	stw	ra,16(sp)
   44d6c:	df000315 	stw	fp,12(sp)
   44d70:	df000304 	addi	fp,sp,12
   44d74:	01414404 	movi	r5,1296
   44d78:	01000174 	movhi	r4,5
   44d7c:	21160d04 	addi	r4,r4,22580
   44d80:	0044e480 	call	44e48 <OS_MemClr>
   44d84:	01401504 	movi	r5,84
   44d88:	01000174 	movhi	r4,5
   44d8c:	21175104 	addi	r4,r4,23876
   44d90:	0044e480 	call	44e48 <OS_MemClr>
   44d94:	00800174 	movhi	r2,5
   44d98:	10960d04 	addi	r2,r2,22580
   44d9c:	e0bffe15 	stw	r2,-8(fp)
   44da0:	00800174 	movhi	r2,5
   44da4:	10962804 	addi	r2,r2,22688
   44da8:	e0bfff15 	stw	r2,-4(fp)
   44dac:	e03ffd05 	stb	zero,-12(fp)
   44db0:	00001106 	br	44df8 <OS_InitTCBList+0x94>
   44db4:	e0bffe17 	ldw	r2,-8(fp)
   44db8:	e0ffff17 	ldw	r3,-4(fp)
   44dbc:	10c00515 	stw	r3,20(r2)
   44dc0:	e0bffe17 	ldw	r2,-8(fp)
   44dc4:	00c00fc4 	movi	r3,63
   44dc8:	10c01305 	stb	r3,76(r2)
   44dcc:	e0bffe17 	ldw	r2,-8(fp)
   44dd0:	10001345 	stb	zero,77(r2)
   44dd4:	e0bffe17 	ldw	r2,-8(fp)
   44dd8:	10801b04 	addi	r2,r2,108
   44ddc:	e0bffe15 	stw	r2,-8(fp)
   44de0:	e0bfff17 	ldw	r2,-4(fp)
   44de4:	10801b04 	addi	r2,r2,108
   44de8:	e0bfff15 	stw	r2,-4(fp)
   44dec:	e0bffd03 	ldbu	r2,-12(fp)
   44df0:	10800044 	addi	r2,r2,1
   44df4:	e0bffd05 	stb	r2,-12(fp)
   44df8:	e0bffd03 	ldbu	r2,-12(fp)
   44dfc:	108002f0 	cmpltui	r2,r2,11
   44e00:	103fec1e 	bne	r2,zero,44db4 <__alt_data_end+0xfffdf5b4>
   44e04:	e0bffe17 	ldw	r2,-8(fp)
   44e08:	10000515 	stw	zero,20(r2)
   44e0c:	e0bffe17 	ldw	r2,-8(fp)
   44e10:	00c00fc4 	movi	r3,63
   44e14:	10c01305 	stb	r3,76(r2)
   44e18:	e0bffe17 	ldw	r2,-8(fp)
   44e1c:	10001345 	stb	zero,77(r2)
   44e20:	d026fd15 	stw	zero,-25612(gp)
   44e24:	00800174 	movhi	r2,5
   44e28:	10960d04 	addi	r2,r2,22580
   44e2c:	d0a70115 	stw	r2,-25596(gp)
   44e30:	0001883a 	nop
   44e34:	e037883a 	mov	sp,fp
   44e38:	dfc00117 	ldw	ra,4(sp)
   44e3c:	df000017 	ldw	fp,0(sp)
   44e40:	dec00204 	addi	sp,sp,8
   44e44:	f800283a 	ret

00044e48 <OS_MemClr>:
   44e48:	defffd04 	addi	sp,sp,-12
   44e4c:	df000215 	stw	fp,8(sp)
   44e50:	df000204 	addi	fp,sp,8
   44e54:	e13ffe15 	stw	r4,-8(fp)
   44e58:	2805883a 	mov	r2,r5
   44e5c:	e0bfff0d 	sth	r2,-4(fp)
   44e60:	00000706 	br	44e80 <OS_MemClr+0x38>
   44e64:	e0bffe17 	ldw	r2,-8(fp)
   44e68:	10c00044 	addi	r3,r2,1
   44e6c:	e0fffe15 	stw	r3,-8(fp)
   44e70:	10000005 	stb	zero,0(r2)
   44e74:	e0bfff0b 	ldhu	r2,-4(fp)
   44e78:	10bfffc4 	addi	r2,r2,-1
   44e7c:	e0bfff0d 	sth	r2,-4(fp)
   44e80:	e0bfff0b 	ldhu	r2,-4(fp)
   44e84:	103ff71e 	bne	r2,zero,44e64 <__alt_data_end+0xfffdf664>
   44e88:	0001883a 	nop
   44e8c:	e037883a 	mov	sp,fp
   44e90:	df000017 	ldw	fp,0(sp)
   44e94:	dec00104 	addi	sp,sp,4
   44e98:	f800283a 	ret

00044e9c <OS_MemCopy>:
   44e9c:	defffc04 	addi	sp,sp,-16
   44ea0:	df000315 	stw	fp,12(sp)
   44ea4:	df000304 	addi	fp,sp,12
   44ea8:	e13ffd15 	stw	r4,-12(fp)
   44eac:	e17ffe15 	stw	r5,-8(fp)
   44eb0:	3005883a 	mov	r2,r6
   44eb4:	e0bfff0d 	sth	r2,-4(fp)
   44eb8:	00000b06 	br	44ee8 <OS_MemCopy+0x4c>
   44ebc:	e0bffd17 	ldw	r2,-12(fp)
   44ec0:	10c00044 	addi	r3,r2,1
   44ec4:	e0fffd15 	stw	r3,-12(fp)
   44ec8:	e0fffe17 	ldw	r3,-8(fp)
   44ecc:	19000044 	addi	r4,r3,1
   44ed0:	e13ffe15 	stw	r4,-8(fp)
   44ed4:	18c00003 	ldbu	r3,0(r3)
   44ed8:	10c00005 	stb	r3,0(r2)
   44edc:	e0bfff0b 	ldhu	r2,-4(fp)
   44ee0:	10bfffc4 	addi	r2,r2,-1
   44ee4:	e0bfff0d 	sth	r2,-4(fp)
   44ee8:	e0bfff0b 	ldhu	r2,-4(fp)
   44eec:	103ff31e 	bne	r2,zero,44ebc <__alt_data_end+0xfffdf6bc>
   44ef0:	0001883a 	nop
   44ef4:	e037883a 	mov	sp,fp
   44ef8:	df000017 	ldw	fp,0(sp)
   44efc:	dec00104 	addi	sp,sp,4
   44f00:	f800283a 	ret

00044f04 <OS_Sched>:
   44f04:	defffb04 	addi	sp,sp,-20
   44f08:	dfc00415 	stw	ra,16(sp)
   44f0c:	df000315 	stw	fp,12(sp)
   44f10:	df000304 	addi	fp,sp,12
   44f14:	e03ffd15 	stw	zero,-12(fp)
   44f18:	0005303a 	rdctl	r2,status
   44f1c:	e0bfff15 	stw	r2,-4(fp)
   44f20:	e0ffff17 	ldw	r3,-4(fp)
   44f24:	00bfff84 	movi	r2,-2
   44f28:	1884703a 	and	r2,r3,r2
   44f2c:	1001703a 	wrctl	status,r2
   44f30:	e0bfff17 	ldw	r2,-4(fp)
   44f34:	e0bffd15 	stw	r2,-12(fp)
   44f38:	d0a70803 	ldbu	r2,-25568(gp)
   44f3c:	10803fcc 	andi	r2,r2,255
   44f40:	10001a1e 	bne	r2,zero,44fac <OS_Sched+0xa8>
   44f44:	d0a6fa03 	ldbu	r2,-25624(gp)
   44f48:	10803fcc 	andi	r2,r2,255
   44f4c:	1000171e 	bne	r2,zero,44fac <OS_Sched+0xa8>
   44f50:	0044fd40 	call	44fd4 <OS_SchedNew>
   44f54:	d0e6fc03 	ldbu	r3,-25616(gp)
   44f58:	d0a6fc43 	ldbu	r2,-25615(gp)
   44f5c:	18c03fcc 	andi	r3,r3,255
   44f60:	10803fcc 	andi	r2,r2,255
   44f64:	18801126 	beq	r3,r2,44fac <OS_Sched+0xa8>
   44f68:	d0a6fc03 	ldbu	r2,-25616(gp)
   44f6c:	10c03fcc 	andi	r3,r2,255
   44f70:	00800174 	movhi	r2,5
   44f74:	10975104 	addi	r2,r2,23876
   44f78:	18c7883a 	add	r3,r3,r3
   44f7c:	18c7883a 	add	r3,r3,r3
   44f80:	10c5883a 	add	r2,r2,r3
   44f84:	10800017 	ldw	r2,0(r2)
   44f88:	d0a70415 	stw	r2,-25584(gp)
   44f8c:	d0a70417 	ldw	r2,-25584(gp)
   44f90:	10c00e17 	ldw	r3,56(r2)
   44f94:	18c00044 	addi	r3,r3,1
   44f98:	10c00e15 	stw	r3,56(r2)
   44f9c:	d0a6ff17 	ldw	r2,-25604(gp)
   44fa0:	10800044 	addi	r2,r2,1
   44fa4:	d0a6ff15 	stw	r2,-25604(gp)
   44fa8:	004c6000 	call	4c600 <OSCtxSw>
   44fac:	e0bffd17 	ldw	r2,-12(fp)
   44fb0:	e0bffe15 	stw	r2,-8(fp)
   44fb4:	e0bffe17 	ldw	r2,-8(fp)
   44fb8:	1001703a 	wrctl	status,r2
   44fbc:	0001883a 	nop
   44fc0:	e037883a 	mov	sp,fp
   44fc4:	dfc00117 	ldw	ra,4(sp)
   44fc8:	df000017 	ldw	fp,0(sp)
   44fcc:	dec00204 	addi	sp,sp,8
   44fd0:	f800283a 	ret

00044fd4 <OS_SchedNew>:
   44fd4:	defffe04 	addi	sp,sp,-8
   44fd8:	df000115 	stw	fp,4(sp)
   44fdc:	df000104 	addi	fp,sp,4
   44fe0:	d0a70603 	ldbu	r2,-25576(gp)
   44fe4:	10c03fcc 	andi	r3,r2,255
   44fe8:	00800174 	movhi	r2,5
   44fec:	10b4a504 	addi	r2,r2,-11628
   44ff0:	10c5883a 	add	r2,r2,r3
   44ff4:	10800003 	ldbu	r2,0(r2)
   44ff8:	e0bfff05 	stb	r2,-4(fp)
   44ffc:	e0bfff03 	ldbu	r2,-4(fp)
   45000:	100490fa 	slli	r2,r2,3
   45004:	1009883a 	mov	r4,r2
   45008:	e0ffff03 	ldbu	r3,-4(fp)
   4500c:	d0a70644 	addi	r2,gp,-25575
   45010:	1885883a 	add	r2,r3,r2
   45014:	10800003 	ldbu	r2,0(r2)
   45018:	10c03fcc 	andi	r3,r2,255
   4501c:	00800174 	movhi	r2,5
   45020:	10b4a504 	addi	r2,r2,-11628
   45024:	10c5883a 	add	r2,r2,r3
   45028:	10800003 	ldbu	r2,0(r2)
   4502c:	2085883a 	add	r2,r4,r2
   45030:	d0a6fc05 	stb	r2,-25616(gp)
   45034:	0001883a 	nop
   45038:	e037883a 	mov	sp,fp
   4503c:	df000017 	ldw	fp,0(sp)
   45040:	dec00104 	addi	sp,sp,4
   45044:	f800283a 	ret

00045048 <OS_StrCopy>:
   45048:	defffc04 	addi	sp,sp,-16
   4504c:	df000315 	stw	fp,12(sp)
   45050:	df000304 	addi	fp,sp,12
   45054:	e13ffe15 	stw	r4,-8(fp)
   45058:	e17fff15 	stw	r5,-4(fp)
   4505c:	e03ffd05 	stb	zero,-12(fp)
   45060:	00000b06 	br	45090 <OS_StrCopy+0x48>
   45064:	e0bffe17 	ldw	r2,-8(fp)
   45068:	10c00044 	addi	r3,r2,1
   4506c:	e0fffe15 	stw	r3,-8(fp)
   45070:	e0ffff17 	ldw	r3,-4(fp)
   45074:	19000044 	addi	r4,r3,1
   45078:	e13fff15 	stw	r4,-4(fp)
   4507c:	18c00003 	ldbu	r3,0(r3)
   45080:	10c00005 	stb	r3,0(r2)
   45084:	e0bffd03 	ldbu	r2,-12(fp)
   45088:	10800044 	addi	r2,r2,1
   4508c:	e0bffd05 	stb	r2,-12(fp)
   45090:	e0bfff17 	ldw	r2,-4(fp)
   45094:	10800003 	ldbu	r2,0(r2)
   45098:	10803fcc 	andi	r2,r2,255
   4509c:	103ff11e 	bne	r2,zero,45064 <__alt_data_end+0xfffdf864>
   450a0:	e0bffe17 	ldw	r2,-8(fp)
   450a4:	10000005 	stb	zero,0(r2)
   450a8:	e0bffd03 	ldbu	r2,-12(fp)
   450ac:	e037883a 	mov	sp,fp
   450b0:	df000017 	ldw	fp,0(sp)
   450b4:	dec00104 	addi	sp,sp,4
   450b8:	f800283a 	ret

000450bc <OS_StrLen>:
   450bc:	defffd04 	addi	sp,sp,-12
   450c0:	df000215 	stw	fp,8(sp)
   450c4:	df000204 	addi	fp,sp,8
   450c8:	e13fff15 	stw	r4,-4(fp)
   450cc:	e03ffe05 	stb	zero,-8(fp)
   450d0:	00000606 	br	450ec <OS_StrLen+0x30>
   450d4:	e0bfff17 	ldw	r2,-4(fp)
   450d8:	10800044 	addi	r2,r2,1
   450dc:	e0bfff15 	stw	r2,-4(fp)
   450e0:	e0bffe03 	ldbu	r2,-8(fp)
   450e4:	10800044 	addi	r2,r2,1
   450e8:	e0bffe05 	stb	r2,-8(fp)
   450ec:	e0bfff17 	ldw	r2,-4(fp)
   450f0:	10800003 	ldbu	r2,0(r2)
   450f4:	10803fcc 	andi	r2,r2,255
   450f8:	103ff61e 	bne	r2,zero,450d4 <__alt_data_end+0xfffdf8d4>
   450fc:	e0bffe03 	ldbu	r2,-8(fp)
   45100:	e037883a 	mov	sp,fp
   45104:	df000017 	ldw	fp,0(sp)
   45108:	dec00104 	addi	sp,sp,4
   4510c:	f800283a 	ret

00045110 <OS_TaskIdle>:
   45110:	defffa04 	addi	sp,sp,-24
   45114:	dfc00515 	stw	ra,20(sp)
   45118:	df000415 	stw	fp,16(sp)
   4511c:	df000404 	addi	fp,sp,16
   45120:	e13fff15 	stw	r4,-4(fp)
   45124:	e03ffc15 	stw	zero,-16(fp)
   45128:	0005303a 	rdctl	r2,status
   4512c:	e0bffd15 	stw	r2,-12(fp)
   45130:	e0fffd17 	ldw	r3,-12(fp)
   45134:	00bfff84 	movi	r2,-2
   45138:	1884703a 	and	r2,r3,r2
   4513c:	1001703a 	wrctl	status,r2
   45140:	e0bffd17 	ldw	r2,-12(fp)
   45144:	e0bffc15 	stw	r2,-16(fp)
   45148:	d0a6fb17 	ldw	r2,-25620(gp)
   4514c:	10800044 	addi	r2,r2,1
   45150:	d0a6fb15 	stw	r2,-25620(gp)
   45154:	e0bffc17 	ldw	r2,-16(fp)
   45158:	e0bffe15 	stw	r2,-8(fp)
   4515c:	e0bffe17 	ldw	r2,-8(fp)
   45160:	1001703a 	wrctl	status,r2
   45164:	004c9140 	call	4c914 <OSTaskIdleHook>
   45168:	003fef06 	br	45128 <__alt_data_end+0xfffdf928>

0004516c <OS_TaskStat>:
   4516c:	defffa04 	addi	sp,sp,-24
   45170:	dfc00515 	stw	ra,20(sp)
   45174:	df000415 	stw	fp,16(sp)
   45178:	df000404 	addi	fp,sp,16
   4517c:	e13fff15 	stw	r4,-4(fp)
   45180:	e03ffc15 	stw	zero,-16(fp)
   45184:	00000206 	br	45190 <OS_TaskStat+0x24>
   45188:	01003204 	movi	r4,200
   4518c:	004a8ac0 	call	4a8ac <OSTimeDly>
   45190:	d0a70c03 	ldbu	r2,-25552(gp)
   45194:	10803fcc 	andi	r2,r2,255
   45198:	103ffb26 	beq	r2,zero,45188 <__alt_data_end+0xfffdf988>
   4519c:	d0a70017 	ldw	r2,-25600(gp)
   451a0:	01401904 	movi	r5,100
   451a4:	1009883a 	mov	r4,r2
   451a8:	004d1840 	call	4d184 <__udivsi3>
   451ac:	d0a70015 	stw	r2,-25600(gp)
   451b0:	d0a70017 	ldw	r2,-25600(gp)
   451b4:	1000031e 	bne	r2,zero,451c4 <OS_TaskStat+0x58>
   451b8:	d0270205 	stb	zero,-25592(gp)
   451bc:	01003fc4 	movi	r4,255
   451c0:	004a5340 	call	4a534 <OSTaskSuspend>
   451c4:	0005303a 	rdctl	r2,status
   451c8:	e0bffd15 	stw	r2,-12(fp)
   451cc:	e0fffd17 	ldw	r3,-12(fp)
   451d0:	00bfff84 	movi	r2,-2
   451d4:	1884703a 	and	r2,r3,r2
   451d8:	1001703a 	wrctl	status,r2
   451dc:	e0bffd17 	ldw	r2,-12(fp)
   451e0:	e0bffc15 	stw	r2,-16(fp)
   451e4:	d0a6fb17 	ldw	r2,-25620(gp)
   451e8:	d0a70d15 	stw	r2,-25548(gp)
   451ec:	d026fb15 	stw	zero,-25620(gp)
   451f0:	e0bffc17 	ldw	r2,-16(fp)
   451f4:	e0bffe15 	stw	r2,-8(fp)
   451f8:	e0bffe17 	ldw	r2,-8(fp)
   451fc:	1001703a 	wrctl	status,r2
   45200:	d0a70d17 	ldw	r2,-25548(gp)
   45204:	d0e70017 	ldw	r3,-25600(gp)
   45208:	180b883a 	mov	r5,r3
   4520c:	1009883a 	mov	r4,r2
   45210:	004d1840 	call	4d184 <__udivsi3>
   45214:	1007883a 	mov	r3,r2
   45218:	00801904 	movi	r2,100
   4521c:	10c5c83a 	sub	r2,r2,r3
   45220:	d0a70205 	stb	r2,-25592(gp)
   45224:	004c8940 	call	4c894 <OSTaskStatHook>
   45228:	00452380 	call	45238 <OS_TaskStatStkChk>
   4522c:	01001904 	movi	r4,100
   45230:	004a8ac0 	call	4a8ac <OSTimeDly>
   45234:	003fe306 	br	451c4 <__alt_data_end+0xfffdf9c4>

00045238 <OS_TaskStatStkChk>:
   45238:	defffa04 	addi	sp,sp,-24
   4523c:	dfc00515 	stw	ra,20(sp)
   45240:	df000415 	stw	fp,16(sp)
   45244:	df000404 	addi	fp,sp,16
   45248:	e03ffc05 	stb	zero,-16(fp)
   4524c:	00002406 	br	452e0 <OS_TaskStatStkChk+0xa8>
   45250:	e0bffc03 	ldbu	r2,-16(fp)
   45254:	e0fffe04 	addi	r3,fp,-8
   45258:	180b883a 	mov	r5,r3
   4525c:	1009883a 	mov	r4,r2
   45260:	004a3740 	call	4a374 <OSTaskStkChk>
   45264:	e0bffc45 	stb	r2,-15(fp)
   45268:	e0bffc43 	ldbu	r2,-15(fp)
   4526c:	1000191e 	bne	r2,zero,452d4 <OS_TaskStatStkChk+0x9c>
   45270:	e0fffc03 	ldbu	r3,-16(fp)
   45274:	00800174 	movhi	r2,5
   45278:	10975104 	addi	r2,r2,23876
   4527c:	18c7883a 	add	r3,r3,r3
   45280:	18c7883a 	add	r3,r3,r3
   45284:	10c5883a 	add	r2,r2,r3
   45288:	10800017 	ldw	r2,0(r2)
   4528c:	e0bffd15 	stw	r2,-12(fp)
   45290:	e0bffd17 	ldw	r2,-12(fp)
   45294:	10000f26 	beq	r2,zero,452d4 <OS_TaskStatStkChk+0x9c>
   45298:	e0bffd17 	ldw	r2,-12(fp)
   4529c:	10800060 	cmpeqi	r2,r2,1
   452a0:	10000c1e 	bne	r2,zero,452d4 <OS_TaskStatStkChk+0x9c>
   452a4:	e0bffd17 	ldw	r2,-12(fp)
   452a8:	10c00217 	ldw	r3,8(r2)
   452ac:	e0bffd17 	ldw	r2,-12(fp)
   452b0:	10800317 	ldw	r2,12(r2)
   452b4:	1085883a 	add	r2,r2,r2
   452b8:	1085883a 	add	r2,r2,r2
   452bc:	1887883a 	add	r3,r3,r2
   452c0:	e0bffd17 	ldw	r2,-12(fp)
   452c4:	10c01115 	stw	r3,68(r2)
   452c8:	e0ffff17 	ldw	r3,-4(fp)
   452cc:	e0bffd17 	ldw	r2,-12(fp)
   452d0:	10c01215 	stw	r3,72(r2)
   452d4:	e0bffc03 	ldbu	r2,-16(fp)
   452d8:	10800044 	addi	r2,r2,1
   452dc:	e0bffc05 	stb	r2,-16(fp)
   452e0:	e0bffc03 	ldbu	r2,-16(fp)
   452e4:	10800570 	cmpltui	r2,r2,21
   452e8:	103fd91e 	bne	r2,zero,45250 <__alt_data_end+0xfffdfa50>
   452ec:	0001883a 	nop
   452f0:	e037883a 	mov	sp,fp
   452f4:	dfc00117 	ldw	ra,4(sp)
   452f8:	df000017 	ldw	fp,0(sp)
   452fc:	dec00204 	addi	sp,sp,8
   45300:	f800283a 	ret

00045304 <OS_TCBInit>:
   45304:	defff204 	addi	sp,sp,-56
   45308:	dfc00d15 	stw	ra,52(sp)
   4530c:	df000c15 	stw	fp,48(sp)
   45310:	df000c04 	addi	fp,sp,48
   45314:	e17ffc15 	stw	r5,-16(fp)
   45318:	e1bffd15 	stw	r6,-12(fp)
   4531c:	3807883a 	mov	r3,r7
   45320:	e0800417 	ldw	r2,16(fp)
   45324:	e13ffb05 	stb	r4,-20(fp)
   45328:	e0fffe0d 	sth	r3,-8(fp)
   4532c:	e0bfff0d 	sth	r2,-4(fp)
   45330:	e03ff415 	stw	zero,-48(fp)
   45334:	0005303a 	rdctl	r2,status
   45338:	e0bffa15 	stw	r2,-24(fp)
   4533c:	e0fffa17 	ldw	r3,-24(fp)
   45340:	00bfff84 	movi	r2,-2
   45344:	1884703a 	and	r2,r3,r2
   45348:	1001703a 	wrctl	status,r2
   4534c:	e0bffa17 	ldw	r2,-24(fp)
   45350:	e0bff415 	stw	r2,-48(fp)
   45354:	d0a70117 	ldw	r2,-25596(gp)
   45358:	e0bff615 	stw	r2,-40(fp)
   4535c:	e0bff617 	ldw	r2,-40(fp)
   45360:	10009326 	beq	r2,zero,455b0 <OS_TCBInit+0x2ac>
   45364:	e0bff617 	ldw	r2,-40(fp)
   45368:	10800517 	ldw	r2,20(r2)
   4536c:	d0a70115 	stw	r2,-25596(gp)
   45370:	e0bff417 	ldw	r2,-48(fp)
   45374:	e0bff815 	stw	r2,-32(fp)
   45378:	e0bff817 	ldw	r2,-32(fp)
   4537c:	1001703a 	wrctl	status,r2
   45380:	e0bff617 	ldw	r2,-40(fp)
   45384:	e0fffc17 	ldw	r3,-16(fp)
   45388:	10c00015 	stw	r3,0(r2)
   4538c:	e0bff617 	ldw	r2,-40(fp)
   45390:	e0fffb03 	ldbu	r3,-20(fp)
   45394:	10c00c85 	stb	r3,50(r2)
   45398:	e0bff617 	ldw	r2,-40(fp)
   4539c:	10000c05 	stb	zero,48(r2)
   453a0:	e0bff617 	ldw	r2,-40(fp)
   453a4:	10000c45 	stb	zero,49(r2)
   453a8:	e0bff617 	ldw	r2,-40(fp)
   453ac:	10000b8d 	sth	zero,46(r2)
   453b0:	e0bff617 	ldw	r2,-40(fp)
   453b4:	e0c00317 	ldw	r3,12(fp)
   453b8:	10c00115 	stw	r3,4(r2)
   453bc:	e0bff617 	ldw	r2,-40(fp)
   453c0:	e0c00217 	ldw	r3,8(fp)
   453c4:	10c00315 	stw	r3,12(r2)
   453c8:	e0bff617 	ldw	r2,-40(fp)
   453cc:	e0fffd17 	ldw	r3,-12(fp)
   453d0:	10c00215 	stw	r3,8(r2)
   453d4:	e0bff617 	ldw	r2,-40(fp)
   453d8:	e0ffff0b 	ldhu	r3,-4(fp)
   453dc:	10c0040d 	sth	r3,16(r2)
   453e0:	e0bff617 	ldw	r2,-40(fp)
   453e4:	e0fffe0b 	ldhu	r3,-8(fp)
   453e8:	10c0048d 	sth	r3,18(r2)
   453ec:	e0bff617 	ldw	r2,-40(fp)
   453f0:	10000dc5 	stb	zero,55(r2)
   453f4:	e0bffb03 	ldbu	r2,-20(fp)
   453f8:	1004d0fa 	srli	r2,r2,3
   453fc:	1007883a 	mov	r3,r2
   45400:	e0bff617 	ldw	r2,-40(fp)
   45404:	10c00d05 	stb	r3,52(r2)
   45408:	e0bffb03 	ldbu	r2,-20(fp)
   4540c:	108001cc 	andi	r2,r2,7
   45410:	1007883a 	mov	r3,r2
   45414:	e0bff617 	ldw	r2,-40(fp)
   45418:	10c00cc5 	stb	r3,51(r2)
   4541c:	e0bff617 	ldw	r2,-40(fp)
   45420:	10800d03 	ldbu	r2,52(r2)
   45424:	10803fcc 	andi	r2,r2,255
   45428:	00c00044 	movi	r3,1
   4542c:	1884983a 	sll	r2,r3,r2
   45430:	1007883a 	mov	r3,r2
   45434:	e0bff617 	ldw	r2,-40(fp)
   45438:	10c00d85 	stb	r3,54(r2)
   4543c:	e0bff617 	ldw	r2,-40(fp)
   45440:	10800cc3 	ldbu	r2,51(r2)
   45444:	10803fcc 	andi	r2,r2,255
   45448:	00c00044 	movi	r3,1
   4544c:	1884983a 	sll	r2,r3,r2
   45450:	1007883a 	mov	r3,r2
   45454:	e0bff617 	ldw	r2,-40(fp)
   45458:	10c00d45 	stb	r3,53(r2)
   4545c:	e0bff617 	ldw	r2,-40(fp)
   45460:	10000715 	stw	zero,28(r2)
   45464:	e0bff617 	ldw	r2,-40(fp)
   45468:	10000815 	stw	zero,32(r2)
   4546c:	e0bff617 	ldw	r2,-40(fp)
   45470:	10000a15 	stw	zero,40(r2)
   45474:	e0bff617 	ldw	r2,-40(fp)
   45478:	10000915 	stw	zero,36(r2)
   4547c:	e0bff617 	ldw	r2,-40(fp)
   45480:	10000e15 	stw	zero,56(r2)
   45484:	e0bff617 	ldw	r2,-40(fp)
   45488:	10001015 	stw	zero,64(r2)
   4548c:	e0bff617 	ldw	r2,-40(fp)
   45490:	10000f15 	stw	zero,60(r2)
   45494:	e0bff617 	ldw	r2,-40(fp)
   45498:	10001115 	stw	zero,68(r2)
   4549c:	e0bff617 	ldw	r2,-40(fp)
   454a0:	10001215 	stw	zero,72(r2)
   454a4:	e0bff617 	ldw	r2,-40(fp)
   454a8:	00c00fc4 	movi	r3,63
   454ac:	10c01305 	stb	r3,76(r2)
   454b0:	e0bff617 	ldw	r2,-40(fp)
   454b4:	10001345 	stb	zero,77(r2)
   454b8:	e13ff617 	ldw	r4,-40(fp)
   454bc:	004c9340 	call	4c934 <OSTCBInitHook>
   454c0:	e13ff617 	ldw	r4,-40(fp)
   454c4:	004c82c0 	call	4c82c <OSTaskCreateHook>
   454c8:	0005303a 	rdctl	r2,status
   454cc:	e0bff515 	stw	r2,-44(fp)
   454d0:	e0fff517 	ldw	r3,-44(fp)
   454d4:	00bfff84 	movi	r2,-2
   454d8:	1884703a 	and	r2,r3,r2
   454dc:	1001703a 	wrctl	status,r2
   454e0:	e0bff517 	ldw	r2,-44(fp)
   454e4:	e0bff415 	stw	r2,-48(fp)
   454e8:	e0fffb03 	ldbu	r3,-20(fp)
   454ec:	00800174 	movhi	r2,5
   454f0:	10975104 	addi	r2,r2,23876
   454f4:	18c7883a 	add	r3,r3,r3
   454f8:	18c7883a 	add	r3,r3,r3
   454fc:	10c5883a 	add	r2,r2,r3
   45500:	e0fff617 	ldw	r3,-40(fp)
   45504:	10c00015 	stw	r3,0(r2)
   45508:	d0e6fd17 	ldw	r3,-25612(gp)
   4550c:	e0bff617 	ldw	r2,-40(fp)
   45510:	10c00515 	stw	r3,20(r2)
   45514:	e0bff617 	ldw	r2,-40(fp)
   45518:	10000615 	stw	zero,24(r2)
   4551c:	d0a6fd17 	ldw	r2,-25612(gp)
   45520:	10000326 	beq	r2,zero,45530 <OS_TCBInit+0x22c>
   45524:	d0a6fd17 	ldw	r2,-25612(gp)
   45528:	e0fff617 	ldw	r3,-40(fp)
   4552c:	10c00615 	stw	r3,24(r2)
   45530:	e0bff617 	ldw	r2,-40(fp)
   45534:	d0a6fd15 	stw	r2,-25612(gp)
   45538:	e0bff617 	ldw	r2,-40(fp)
   4553c:	10c00d83 	ldbu	r3,54(r2)
   45540:	d0a70603 	ldbu	r2,-25576(gp)
   45544:	1884b03a 	or	r2,r3,r2
   45548:	d0a70605 	stb	r2,-25576(gp)
   4554c:	e0bff617 	ldw	r2,-40(fp)
   45550:	10800d03 	ldbu	r2,52(r2)
   45554:	10c03fcc 	andi	r3,r2,255
   45558:	e0bff617 	ldw	r2,-40(fp)
   4555c:	10800d03 	ldbu	r2,52(r2)
   45560:	11003fcc 	andi	r4,r2,255
   45564:	d0a70644 	addi	r2,gp,-25575
   45568:	2085883a 	add	r2,r4,r2
   4556c:	11000003 	ldbu	r4,0(r2)
   45570:	e0bff617 	ldw	r2,-40(fp)
   45574:	10800d43 	ldbu	r2,53(r2)
   45578:	2084b03a 	or	r2,r4,r2
   4557c:	1009883a 	mov	r4,r2
   45580:	d0a70644 	addi	r2,gp,-25575
   45584:	1885883a 	add	r2,r3,r2
   45588:	11000005 	stb	r4,0(r2)
   4558c:	d0a70243 	ldbu	r2,-25591(gp)
   45590:	10800044 	addi	r2,r2,1
   45594:	d0a70245 	stb	r2,-25591(gp)
   45598:	e0bff417 	ldw	r2,-48(fp)
   4559c:	e0bff715 	stw	r2,-36(fp)
   455a0:	e0bff717 	ldw	r2,-36(fp)
   455a4:	1001703a 	wrctl	status,r2
   455a8:	0005883a 	mov	r2,zero
   455ac:	00000506 	br	455c4 <OS_TCBInit+0x2c0>
   455b0:	e0bff417 	ldw	r2,-48(fp)
   455b4:	e0bff915 	stw	r2,-28(fp)
   455b8:	e0bff917 	ldw	r2,-28(fp)
   455bc:	1001703a 	wrctl	status,r2
   455c0:	00801084 	movi	r2,66
   455c4:	e037883a 	mov	sp,fp
   455c8:	dfc00117 	ldw	ra,4(sp)
   455cc:	df000017 	ldw	fp,0(sp)
   455d0:	dec00204 	addi	sp,sp,8
   455d4:	f800283a 	ret

000455d8 <OSDebugInit>:
   455d8:	defffe04 	addi	sp,sp,-8
   455dc:	df000115 	stw	fp,4(sp)
   455e0:	df000104 	addi	fp,sp,4
   455e4:	d0a00e04 	addi	r2,gp,-32712
   455e8:	e0bfff15 	stw	r2,-4(fp)
   455ec:	d0a00f04 	addi	r2,gp,-32708
   455f0:	e0bfff15 	stw	r2,-4(fp)
   455f4:	d0a01084 	addi	r2,gp,-32702
   455f8:	e0bfff15 	stw	r2,-4(fp)
   455fc:	d0a01104 	addi	r2,gp,-32700
   45600:	e0bfff15 	stw	r2,-4(fp)
   45604:	d0a01004 	addi	r2,gp,-32704
   45608:	e0bfff15 	stw	r2,-4(fp)
   4560c:	d0a01184 	addi	r2,gp,-32698
   45610:	e0bfff15 	stw	r2,-4(fp)
   45614:	d0a01204 	addi	r2,gp,-32696
   45618:	e0bfff15 	stw	r2,-4(fp)
   4561c:	d0a01284 	addi	r2,gp,-32694
   45620:	e0bfff15 	stw	r2,-4(fp)
   45624:	d0a01304 	addi	r2,gp,-32692
   45628:	e0bfff15 	stw	r2,-4(fp)
   4562c:	d0a01384 	addi	r2,gp,-32690
   45630:	e0bfff15 	stw	r2,-4(fp)
   45634:	d0a01404 	addi	r2,gp,-32688
   45638:	e0bfff15 	stw	r2,-4(fp)
   4563c:	d0a01484 	addi	r2,gp,-32686
   45640:	e0bfff15 	stw	r2,-4(fp)
   45644:	d0a01504 	addi	r2,gp,-32684
   45648:	e0bfff15 	stw	r2,-4(fp)
   4564c:	d0a01584 	addi	r2,gp,-32682
   45650:	e0bfff15 	stw	r2,-4(fp)
   45654:	d0a01604 	addi	r2,gp,-32680
   45658:	e0bfff15 	stw	r2,-4(fp)
   4565c:	d0a01684 	addi	r2,gp,-32678
   45660:	e0bfff15 	stw	r2,-4(fp)
   45664:	d0a01704 	addi	r2,gp,-32676
   45668:	e0bfff15 	stw	r2,-4(fp)
   4566c:	d0a01784 	addi	r2,gp,-32674
   45670:	e0bfff15 	stw	r2,-4(fp)
   45674:	d0a01804 	addi	r2,gp,-32672
   45678:	e0bfff15 	stw	r2,-4(fp)
   4567c:	d0a01884 	addi	r2,gp,-32670
   45680:	e0bfff15 	stw	r2,-4(fp)
   45684:	d0a01904 	addi	r2,gp,-32668
   45688:	e0bfff15 	stw	r2,-4(fp)
   4568c:	d0a01984 	addi	r2,gp,-32666
   45690:	e0bfff15 	stw	r2,-4(fp)
   45694:	d0a01a04 	addi	r2,gp,-32664
   45698:	e0bfff15 	stw	r2,-4(fp)
   4569c:	d0a01a84 	addi	r2,gp,-32662
   456a0:	e0bfff15 	stw	r2,-4(fp)
   456a4:	d0a01b04 	addi	r2,gp,-32660
   456a8:	e0bfff15 	stw	r2,-4(fp)
   456ac:	d0a01b84 	addi	r2,gp,-32658
   456b0:	e0bfff15 	stw	r2,-4(fp)
   456b4:	d0a01c04 	addi	r2,gp,-32656
   456b8:	e0bfff15 	stw	r2,-4(fp)
   456bc:	d0a01c84 	addi	r2,gp,-32654
   456c0:	e0bfff15 	stw	r2,-4(fp)
   456c4:	d0a01d04 	addi	r2,gp,-32652
   456c8:	e0bfff15 	stw	r2,-4(fp)
   456cc:	d0a01d84 	addi	r2,gp,-32650
   456d0:	e0bfff15 	stw	r2,-4(fp)
   456d4:	d0a01e04 	addi	r2,gp,-32648
   456d8:	e0bfff15 	stw	r2,-4(fp)
   456dc:	d0a01e84 	addi	r2,gp,-32646
   456e0:	e0bfff15 	stw	r2,-4(fp)
   456e4:	d0a01f04 	addi	r2,gp,-32644
   456e8:	e0bfff15 	stw	r2,-4(fp)
   456ec:	d0a01f84 	addi	r2,gp,-32642
   456f0:	e0bfff15 	stw	r2,-4(fp)
   456f4:	d0a02004 	addi	r2,gp,-32640
   456f8:	e0bfff15 	stw	r2,-4(fp)
   456fc:	d0a02084 	addi	r2,gp,-32638
   45700:	e0bfff15 	stw	r2,-4(fp)
   45704:	d0a02104 	addi	r2,gp,-32636
   45708:	e0bfff15 	stw	r2,-4(fp)
   4570c:	d0a02184 	addi	r2,gp,-32634
   45710:	e0bfff15 	stw	r2,-4(fp)
   45714:	d0a02204 	addi	r2,gp,-32632
   45718:	e0bfff15 	stw	r2,-4(fp)
   4571c:	d0a02284 	addi	r2,gp,-32630
   45720:	e0bfff15 	stw	r2,-4(fp)
   45724:	d0a02304 	addi	r2,gp,-32628
   45728:	e0bfff15 	stw	r2,-4(fp)
   4572c:	d0a02384 	addi	r2,gp,-32626
   45730:	e0bfff15 	stw	r2,-4(fp)
   45734:	d0a02404 	addi	r2,gp,-32624
   45738:	e0bfff15 	stw	r2,-4(fp)
   4573c:	d0a02484 	addi	r2,gp,-32622
   45740:	e0bfff15 	stw	r2,-4(fp)
   45744:	d0a02504 	addi	r2,gp,-32620
   45748:	e0bfff15 	stw	r2,-4(fp)
   4574c:	d0a02a04 	addi	r2,gp,-32600
   45750:	e0bfff15 	stw	r2,-4(fp)
   45754:	0001883a 	nop
   45758:	e037883a 	mov	sp,fp
   4575c:	df000017 	ldw	fp,0(sp)
   45760:	dec00104 	addi	sp,sp,4
   45764:	f800283a 	ret

00045768 <OSFlagAccept>:
   45768:	defff204 	addi	sp,sp,-56
   4576c:	df000d15 	stw	fp,52(sp)
   45770:	df000d04 	addi	fp,sp,52
   45774:	e13ffc15 	stw	r4,-16(fp)
   45778:	2807883a 	mov	r3,r5
   4577c:	3005883a 	mov	r2,r6
   45780:	e1ffff15 	stw	r7,-4(fp)
   45784:	e0fffd0d 	sth	r3,-12(fp)
   45788:	e0bffe05 	stb	r2,-8(fp)
   4578c:	e03ff415 	stw	zero,-48(fp)
   45790:	e0bfff17 	ldw	r2,-4(fp)
   45794:	1000021e 	bne	r2,zero,457a0 <OSFlagAccept+0x38>
   45798:	0005883a 	mov	r2,zero
   4579c:	0000b006 	br	45a60 <OSFlagAccept+0x2f8>
   457a0:	e0bffc17 	ldw	r2,-16(fp)
   457a4:	1000051e 	bne	r2,zero,457bc <OSFlagAccept+0x54>
   457a8:	e0bfff17 	ldw	r2,-4(fp)
   457ac:	00c01b84 	movi	r3,110
   457b0:	10c00005 	stb	r3,0(r2)
   457b4:	0005883a 	mov	r2,zero
   457b8:	0000a906 	br	45a60 <OSFlagAccept+0x2f8>
   457bc:	e0bffc17 	ldw	r2,-16(fp)
   457c0:	10800003 	ldbu	r2,0(r2)
   457c4:	10803fcc 	andi	r2,r2,255
   457c8:	10800160 	cmpeqi	r2,r2,5
   457cc:	1000051e 	bne	r2,zero,457e4 <OSFlagAccept+0x7c>
   457d0:	e0bfff17 	ldw	r2,-4(fp)
   457d4:	00c00044 	movi	r3,1
   457d8:	10c00005 	stb	r3,0(r2)
   457dc:	0005883a 	mov	r2,zero
   457e0:	00009f06 	br	45a60 <OSFlagAccept+0x2f8>
   457e4:	e0fffe03 	ldbu	r3,-8(fp)
   457e8:	00bfe004 	movi	r2,-128
   457ec:	1884703a 	and	r2,r3,r2
   457f0:	e0bff505 	stb	r2,-44(fp)
   457f4:	e0bff503 	ldbu	r2,-44(fp)
   457f8:	10000626 	beq	r2,zero,45814 <OSFlagAccept+0xac>
   457fc:	e0bffe03 	ldbu	r2,-8(fp)
   45800:	10801fcc 	andi	r2,r2,127
   45804:	e0bffe05 	stb	r2,-8(fp)
   45808:	00800044 	movi	r2,1
   4580c:	e0bff385 	stb	r2,-50(fp)
   45810:	00000106 	br	45818 <OSFlagAccept+0xb0>
   45814:	e03ff385 	stb	zero,-50(fp)
   45818:	e0bfff17 	ldw	r2,-4(fp)
   4581c:	10000005 	stb	zero,0(r2)
   45820:	0005303a 	rdctl	r2,status
   45824:	e0bffb15 	stw	r2,-20(fp)
   45828:	e0fffb17 	ldw	r3,-20(fp)
   4582c:	00bfff84 	movi	r2,-2
   45830:	1884703a 	and	r2,r3,r2
   45834:	1001703a 	wrctl	status,r2
   45838:	e0bffb17 	ldw	r2,-20(fp)
   4583c:	e0bff415 	stw	r2,-48(fp)
   45840:	e0bffe03 	ldbu	r2,-8(fp)
   45844:	10c00060 	cmpeqi	r3,r2,1
   45848:	18005f1e 	bne	r3,zero,459c8 <OSFlagAccept+0x260>
   4584c:	10c00088 	cmpgei	r3,r2,2
   45850:	1800021e 	bne	r3,zero,4585c <OSFlagAccept+0xf4>
   45854:	10003f26 	beq	r2,zero,45954 <OSFlagAccept+0x1ec>
   45858:	00007706 	br	45a38 <OSFlagAccept+0x2d0>
   4585c:	10c000a0 	cmpeqi	r3,r2,2
   45860:	1800031e 	bne	r3,zero,45870 <OSFlagAccept+0x108>
   45864:	108000e0 	cmpeqi	r2,r2,3
   45868:	10001e1e 	bne	r2,zero,458e4 <OSFlagAccept+0x17c>
   4586c:	00007206 	br	45a38 <OSFlagAccept+0x2d0>
   45870:	e0bffc17 	ldw	r2,-16(fp)
   45874:	10c0020b 	ldhu	r3,8(r2)
   45878:	e0bffd0b 	ldhu	r2,-12(fp)
   4587c:	1884703a 	and	r2,r3,r2
   45880:	e0bff30d 	sth	r2,-52(fp)
   45884:	e0fff30b 	ldhu	r3,-52(fp)
   45888:	e0bffd0b 	ldhu	r2,-12(fp)
   4588c:	18800d1e 	bne	r3,r2,458c4 <OSFlagAccept+0x15c>
   45890:	e0bff383 	ldbu	r2,-50(fp)
   45894:	10800058 	cmpnei	r2,r2,1
   45898:	10000d1e 	bne	r2,zero,458d0 <OSFlagAccept+0x168>
   4589c:	e0bffc17 	ldw	r2,-16(fp)
   458a0:	1080020b 	ldhu	r2,8(r2)
   458a4:	1007883a 	mov	r3,r2
   458a8:	e0bff30b 	ldhu	r2,-52(fp)
   458ac:	0084303a 	nor	r2,zero,r2
   458b0:	1884703a 	and	r2,r3,r2
   458b4:	1007883a 	mov	r3,r2
   458b8:	e0bffc17 	ldw	r2,-16(fp)
   458bc:	10c0020d 	sth	r3,8(r2)
   458c0:	00000306 	br	458d0 <OSFlagAccept+0x168>
   458c4:	e0bfff17 	ldw	r2,-4(fp)
   458c8:	00c01c04 	movi	r3,112
   458cc:	10c00005 	stb	r3,0(r2)
   458d0:	e0bff417 	ldw	r2,-48(fp)
   458d4:	e0bff615 	stw	r2,-40(fp)
   458d8:	e0bff617 	ldw	r2,-40(fp)
   458dc:	1001703a 	wrctl	status,r2
   458e0:	00005e06 	br	45a5c <OSFlagAccept+0x2f4>
   458e4:	e0bffc17 	ldw	r2,-16(fp)
   458e8:	10c0020b 	ldhu	r3,8(r2)
   458ec:	e0bffd0b 	ldhu	r2,-12(fp)
   458f0:	1884703a 	and	r2,r3,r2
   458f4:	e0bff30d 	sth	r2,-52(fp)
   458f8:	e0bff30b 	ldhu	r2,-52(fp)
   458fc:	10000d26 	beq	r2,zero,45934 <OSFlagAccept+0x1cc>
   45900:	e0bff383 	ldbu	r2,-50(fp)
   45904:	10800058 	cmpnei	r2,r2,1
   45908:	10000d1e 	bne	r2,zero,45940 <OSFlagAccept+0x1d8>
   4590c:	e0bffc17 	ldw	r2,-16(fp)
   45910:	1080020b 	ldhu	r2,8(r2)
   45914:	1007883a 	mov	r3,r2
   45918:	e0bff30b 	ldhu	r2,-52(fp)
   4591c:	0084303a 	nor	r2,zero,r2
   45920:	1884703a 	and	r2,r3,r2
   45924:	1007883a 	mov	r3,r2
   45928:	e0bffc17 	ldw	r2,-16(fp)
   4592c:	10c0020d 	sth	r3,8(r2)
   45930:	00000306 	br	45940 <OSFlagAccept+0x1d8>
   45934:	e0bfff17 	ldw	r2,-4(fp)
   45938:	00c01c04 	movi	r3,112
   4593c:	10c00005 	stb	r3,0(r2)
   45940:	e0bff417 	ldw	r2,-48(fp)
   45944:	e0bff715 	stw	r2,-36(fp)
   45948:	e0bff717 	ldw	r2,-36(fp)
   4594c:	1001703a 	wrctl	status,r2
   45950:	00004206 	br	45a5c <OSFlagAccept+0x2f4>
   45954:	e0bffc17 	ldw	r2,-16(fp)
   45958:	1080020b 	ldhu	r2,8(r2)
   4595c:	0084303a 	nor	r2,zero,r2
   45960:	1007883a 	mov	r3,r2
   45964:	e0bffd0b 	ldhu	r2,-12(fp)
   45968:	1884703a 	and	r2,r3,r2
   4596c:	e0bff30d 	sth	r2,-52(fp)
   45970:	e0fff30b 	ldhu	r3,-52(fp)
   45974:	e0bffd0b 	ldhu	r2,-12(fp)
   45978:	18800b1e 	bne	r3,r2,459a8 <OSFlagAccept+0x240>
   4597c:	e0bff383 	ldbu	r2,-50(fp)
   45980:	10800058 	cmpnei	r2,r2,1
   45984:	10000b1e 	bne	r2,zero,459b4 <OSFlagAccept+0x24c>
   45988:	e0bffc17 	ldw	r2,-16(fp)
   4598c:	10c0020b 	ldhu	r3,8(r2)
   45990:	e0bff30b 	ldhu	r2,-52(fp)
   45994:	1884b03a 	or	r2,r3,r2
   45998:	1007883a 	mov	r3,r2
   4599c:	e0bffc17 	ldw	r2,-16(fp)
   459a0:	10c0020d 	sth	r3,8(r2)
   459a4:	00000306 	br	459b4 <OSFlagAccept+0x24c>
   459a8:	e0bfff17 	ldw	r2,-4(fp)
   459ac:	00c01c04 	movi	r3,112
   459b0:	10c00005 	stb	r3,0(r2)
   459b4:	e0bff417 	ldw	r2,-48(fp)
   459b8:	e0bff815 	stw	r2,-32(fp)
   459bc:	e0bff817 	ldw	r2,-32(fp)
   459c0:	1001703a 	wrctl	status,r2
   459c4:	00002506 	br	45a5c <OSFlagAccept+0x2f4>
   459c8:	e0bffc17 	ldw	r2,-16(fp)
   459cc:	1080020b 	ldhu	r2,8(r2)
   459d0:	0084303a 	nor	r2,zero,r2
   459d4:	1007883a 	mov	r3,r2
   459d8:	e0bffd0b 	ldhu	r2,-12(fp)
   459dc:	1884703a 	and	r2,r3,r2
   459e0:	e0bff30d 	sth	r2,-52(fp)
   459e4:	e0bff30b 	ldhu	r2,-52(fp)
   459e8:	10000b26 	beq	r2,zero,45a18 <OSFlagAccept+0x2b0>
   459ec:	e0bff383 	ldbu	r2,-50(fp)
   459f0:	10800058 	cmpnei	r2,r2,1
   459f4:	10000b1e 	bne	r2,zero,45a24 <OSFlagAccept+0x2bc>
   459f8:	e0bffc17 	ldw	r2,-16(fp)
   459fc:	10c0020b 	ldhu	r3,8(r2)
   45a00:	e0bff30b 	ldhu	r2,-52(fp)
   45a04:	1884b03a 	or	r2,r3,r2
   45a08:	1007883a 	mov	r3,r2
   45a0c:	e0bffc17 	ldw	r2,-16(fp)
   45a10:	10c0020d 	sth	r3,8(r2)
   45a14:	00000306 	br	45a24 <OSFlagAccept+0x2bc>
   45a18:	e0bfff17 	ldw	r2,-4(fp)
   45a1c:	00c01c04 	movi	r3,112
   45a20:	10c00005 	stb	r3,0(r2)
   45a24:	e0bff417 	ldw	r2,-48(fp)
   45a28:	e0bff915 	stw	r2,-28(fp)
   45a2c:	e0bff917 	ldw	r2,-28(fp)
   45a30:	1001703a 	wrctl	status,r2
   45a34:	00000906 	br	45a5c <OSFlagAccept+0x2f4>
   45a38:	e0bff417 	ldw	r2,-48(fp)
   45a3c:	e0bffa15 	stw	r2,-24(fp)
   45a40:	e0bffa17 	ldw	r2,-24(fp)
   45a44:	1001703a 	wrctl	status,r2
   45a48:	e03ff30d 	sth	zero,-52(fp)
   45a4c:	e0bfff17 	ldw	r2,-4(fp)
   45a50:	00c01bc4 	movi	r3,111
   45a54:	10c00005 	stb	r3,0(r2)
   45a58:	0001883a 	nop
   45a5c:	e0bff30b 	ldhu	r2,-52(fp)
   45a60:	e037883a 	mov	sp,fp
   45a64:	df000017 	ldw	fp,0(sp)
   45a68:	dec00104 	addi	sp,sp,4
   45a6c:	f800283a 	ret

00045a70 <OSFlagCreate>:
   45a70:	defff804 	addi	sp,sp,-32
   45a74:	df000715 	stw	fp,28(sp)
   45a78:	df000704 	addi	fp,sp,28
   45a7c:	2005883a 	mov	r2,r4
   45a80:	e17fff15 	stw	r5,-4(fp)
   45a84:	e0bffe0d 	sth	r2,-8(fp)
   45a88:	e03ff915 	stw	zero,-28(fp)
   45a8c:	e0bfff17 	ldw	r2,-4(fp)
   45a90:	1000021e 	bne	r2,zero,45a9c <OSFlagCreate+0x2c>
   45a94:	0005883a 	mov	r2,zero
   45a98:	00003306 	br	45b68 <OSFlagCreate+0xf8>
   45a9c:	d0a70803 	ldbu	r2,-25568(gp)
   45aa0:	10803fcc 	andi	r2,r2,255
   45aa4:	10000526 	beq	r2,zero,45abc <OSFlagCreate+0x4c>
   45aa8:	e0bfff17 	ldw	r2,-4(fp)
   45aac:	00c00404 	movi	r3,16
   45ab0:	10c00005 	stb	r3,0(r2)
   45ab4:	0005883a 	mov	r2,zero
   45ab8:	00002b06 	br	45b68 <OSFlagCreate+0xf8>
   45abc:	0005303a 	rdctl	r2,status
   45ac0:	e0bffd15 	stw	r2,-12(fp)
   45ac4:	e0fffd17 	ldw	r3,-12(fp)
   45ac8:	00bfff84 	movi	r2,-2
   45acc:	1884703a 	and	r2,r3,r2
   45ad0:	1001703a 	wrctl	status,r2
   45ad4:	e0bffd17 	ldw	r2,-12(fp)
   45ad8:	e0bff915 	stw	r2,-28(fp)
   45adc:	d0a70b17 	ldw	r2,-25556(gp)
   45ae0:	e0bffb15 	stw	r2,-20(fp)
   45ae4:	e0bffb17 	ldw	r2,-20(fp)
   45ae8:	10001726 	beq	r2,zero,45b48 <OSFlagCreate+0xd8>
   45aec:	d0a70b17 	ldw	r2,-25556(gp)
   45af0:	10800117 	ldw	r2,4(r2)
   45af4:	d0a70b15 	stw	r2,-25556(gp)
   45af8:	e0bffb17 	ldw	r2,-20(fp)
   45afc:	00c00144 	movi	r3,5
   45b00:	10c00005 	stb	r3,0(r2)
   45b04:	e0bffb17 	ldw	r2,-20(fp)
   45b08:	e0fffe0b 	ldhu	r3,-8(fp)
   45b0c:	10c0020d 	sth	r3,8(r2)
   45b10:	e0bffb17 	ldw	r2,-20(fp)
   45b14:	10000115 	stw	zero,4(r2)
   45b18:	e0bffb17 	ldw	r2,-20(fp)
   45b1c:	00c00fc4 	movi	r3,63
   45b20:	10c00285 	stb	r3,10(r2)
   45b24:	e0bffb17 	ldw	r2,-20(fp)
   45b28:	100002c5 	stb	zero,11(r2)
   45b2c:	e0bff917 	ldw	r2,-28(fp)
   45b30:	e0bffa15 	stw	r2,-24(fp)
   45b34:	e0bffa17 	ldw	r2,-24(fp)
   45b38:	1001703a 	wrctl	status,r2
   45b3c:	e0bfff17 	ldw	r2,-4(fp)
   45b40:	10000005 	stb	zero,0(r2)
   45b44:	00000706 	br	45b64 <OSFlagCreate+0xf4>
   45b48:	e0bff917 	ldw	r2,-28(fp)
   45b4c:	e0bffc15 	stw	r2,-16(fp)
   45b50:	e0bffc17 	ldw	r2,-16(fp)
   45b54:	1001703a 	wrctl	status,r2
   45b58:	e0bfff17 	ldw	r2,-4(fp)
   45b5c:	00c01c84 	movi	r3,114
   45b60:	10c00005 	stb	r3,0(r2)
   45b64:	e0bffb17 	ldw	r2,-20(fp)
   45b68:	e037883a 	mov	sp,fp
   45b6c:	df000017 	ldw	fp,0(sp)
   45b70:	dec00104 	addi	sp,sp,4
   45b74:	f800283a 	ret

00045b78 <OSFlagDel>:
   45b78:	defff204 	addi	sp,sp,-56
   45b7c:	dfc00d15 	stw	ra,52(sp)
   45b80:	df000c15 	stw	fp,48(sp)
   45b84:	df000c04 	addi	fp,sp,48
   45b88:	e13ffd15 	stw	r4,-12(fp)
   45b8c:	2805883a 	mov	r2,r5
   45b90:	e1bfff15 	stw	r6,-4(fp)
   45b94:	e0bffe05 	stb	r2,-8(fp)
   45b98:	e03ff715 	stw	zero,-36(fp)
   45b9c:	e0bfff17 	ldw	r2,-4(fp)
   45ba0:	1000021e 	bne	r2,zero,45bac <OSFlagDel+0x34>
   45ba4:	e0bffd17 	ldw	r2,-12(fp)
   45ba8:	00008006 	br	45dac <OSFlagDel+0x234>
   45bac:	e0bffd17 	ldw	r2,-12(fp)
   45bb0:	1000051e 	bne	r2,zero,45bc8 <OSFlagDel+0x50>
   45bb4:	e0bfff17 	ldw	r2,-4(fp)
   45bb8:	00c01b84 	movi	r3,110
   45bbc:	10c00005 	stb	r3,0(r2)
   45bc0:	e0bffd17 	ldw	r2,-12(fp)
   45bc4:	00007906 	br	45dac <OSFlagDel+0x234>
   45bc8:	d0a70803 	ldbu	r2,-25568(gp)
   45bcc:	10803fcc 	andi	r2,r2,255
   45bd0:	10000526 	beq	r2,zero,45be8 <OSFlagDel+0x70>
   45bd4:	e0bfff17 	ldw	r2,-4(fp)
   45bd8:	00c003c4 	movi	r3,15
   45bdc:	10c00005 	stb	r3,0(r2)
   45be0:	e0bffd17 	ldw	r2,-12(fp)
   45be4:	00007106 	br	45dac <OSFlagDel+0x234>
   45be8:	e0bffd17 	ldw	r2,-12(fp)
   45bec:	10800003 	ldbu	r2,0(r2)
   45bf0:	10803fcc 	andi	r2,r2,255
   45bf4:	10800160 	cmpeqi	r2,r2,5
   45bf8:	1000051e 	bne	r2,zero,45c10 <OSFlagDel+0x98>
   45bfc:	e0bfff17 	ldw	r2,-4(fp)
   45c00:	00c00044 	movi	r3,1
   45c04:	10c00005 	stb	r3,0(r2)
   45c08:	e0bffd17 	ldw	r2,-12(fp)
   45c0c:	00006706 	br	45dac <OSFlagDel+0x234>
   45c10:	0005303a 	rdctl	r2,status
   45c14:	e0bffc15 	stw	r2,-16(fp)
   45c18:	e0fffc17 	ldw	r3,-16(fp)
   45c1c:	00bfff84 	movi	r2,-2
   45c20:	1884703a 	and	r2,r3,r2
   45c24:	1001703a 	wrctl	status,r2
   45c28:	e0bffc17 	ldw	r2,-16(fp)
   45c2c:	e0bff715 	stw	r2,-36(fp)
   45c30:	e0bffd17 	ldw	r2,-12(fp)
   45c34:	10800117 	ldw	r2,4(r2)
   45c38:	10000326 	beq	r2,zero,45c48 <OSFlagDel+0xd0>
   45c3c:	00800044 	movi	r2,1
   45c40:	e0bff405 	stb	r2,-48(fp)
   45c44:	00000106 	br	45c4c <OSFlagDel+0xd4>
   45c48:	e03ff405 	stb	zero,-48(fp)
   45c4c:	e0bffe03 	ldbu	r2,-8(fp)
   45c50:	10000326 	beq	r2,zero,45c60 <OSFlagDel+0xe8>
   45c54:	10800060 	cmpeqi	r2,r2,1
   45c58:	1000231e 	bne	r2,zero,45ce8 <OSFlagDel+0x170>
   45c5c:	00004806 	br	45d80 <OSFlagDel+0x208>
   45c60:	e0bff403 	ldbu	r2,-48(fp)
   45c64:	1000161e 	bne	r2,zero,45cc0 <OSFlagDel+0x148>
   45c68:	e0bffd17 	ldw	r2,-12(fp)
   45c6c:	00c00fc4 	movi	r3,63
   45c70:	10c00285 	stb	r3,10(r2)
   45c74:	e0bffd17 	ldw	r2,-12(fp)
   45c78:	100002c5 	stb	zero,11(r2)
   45c7c:	e0bffd17 	ldw	r2,-12(fp)
   45c80:	10000005 	stb	zero,0(r2)
   45c84:	d0e70b17 	ldw	r3,-25556(gp)
   45c88:	e0bffd17 	ldw	r2,-12(fp)
   45c8c:	10c00115 	stw	r3,4(r2)
   45c90:	e0bffd17 	ldw	r2,-12(fp)
   45c94:	1000020d 	sth	zero,8(r2)
   45c98:	e0bffd17 	ldw	r2,-12(fp)
   45c9c:	d0a70b15 	stw	r2,-25556(gp)
   45ca0:	e0bff717 	ldw	r2,-36(fp)
   45ca4:	e0bff815 	stw	r2,-32(fp)
   45ca8:	e0bff817 	ldw	r2,-32(fp)
   45cac:	1001703a 	wrctl	status,r2
   45cb0:	e0bfff17 	ldw	r2,-4(fp)
   45cb4:	10000005 	stb	zero,0(r2)
   45cb8:	e03ff615 	stw	zero,-40(fp)
   45cbc:	00003a06 	br	45da8 <OSFlagDel+0x230>
   45cc0:	e0bff717 	ldw	r2,-36(fp)
   45cc4:	e0bff915 	stw	r2,-28(fp)
   45cc8:	e0bff917 	ldw	r2,-28(fp)
   45ccc:	1001703a 	wrctl	status,r2
   45cd0:	e0bfff17 	ldw	r2,-4(fp)
   45cd4:	00c01244 	movi	r3,73
   45cd8:	10c00005 	stb	r3,0(r2)
   45cdc:	e0bffd17 	ldw	r2,-12(fp)
   45ce0:	e0bff615 	stw	r2,-40(fp)
   45ce4:	00003006 	br	45da8 <OSFlagDel+0x230>
   45ce8:	e0bffd17 	ldw	r2,-12(fp)
   45cec:	10800117 	ldw	r2,4(r2)
   45cf0:	e0bff515 	stw	r2,-44(fp)
   45cf4:	00000606 	br	45d10 <OSFlagDel+0x198>
   45cf8:	000b883a 	mov	r5,zero
   45cfc:	e13ff517 	ldw	r4,-44(fp)
   45d00:	0046ce40 	call	46ce4 <OS_FlagTaskRdy>
   45d04:	e0bff517 	ldw	r2,-44(fp)
   45d08:	10800017 	ldw	r2,0(r2)
   45d0c:	e0bff515 	stw	r2,-44(fp)
   45d10:	e0bff517 	ldw	r2,-44(fp)
   45d14:	103ff81e 	bne	r2,zero,45cf8 <__alt_data_end+0xfffe04f8>
   45d18:	e0bffd17 	ldw	r2,-12(fp)
   45d1c:	00c00fc4 	movi	r3,63
   45d20:	10c00285 	stb	r3,10(r2)
   45d24:	e0bffd17 	ldw	r2,-12(fp)
   45d28:	100002c5 	stb	zero,11(r2)
   45d2c:	e0bffd17 	ldw	r2,-12(fp)
   45d30:	10000005 	stb	zero,0(r2)
   45d34:	d0e70b17 	ldw	r3,-25556(gp)
   45d38:	e0bffd17 	ldw	r2,-12(fp)
   45d3c:	10c00115 	stw	r3,4(r2)
   45d40:	e0bffd17 	ldw	r2,-12(fp)
   45d44:	1000020d 	sth	zero,8(r2)
   45d48:	e0bffd17 	ldw	r2,-12(fp)
   45d4c:	d0a70b15 	stw	r2,-25556(gp)
   45d50:	e0bff717 	ldw	r2,-36(fp)
   45d54:	e0bffa15 	stw	r2,-24(fp)
   45d58:	e0bffa17 	ldw	r2,-24(fp)
   45d5c:	1001703a 	wrctl	status,r2
   45d60:	e0bff403 	ldbu	r2,-48(fp)
   45d64:	10800058 	cmpnei	r2,r2,1
   45d68:	1000011e 	bne	r2,zero,45d70 <OSFlagDel+0x1f8>
   45d6c:	0044f040 	call	44f04 <OS_Sched>
   45d70:	e0bfff17 	ldw	r2,-4(fp)
   45d74:	10000005 	stb	zero,0(r2)
   45d78:	e03ff615 	stw	zero,-40(fp)
   45d7c:	00000a06 	br	45da8 <OSFlagDel+0x230>
   45d80:	e0bff717 	ldw	r2,-36(fp)
   45d84:	e0bffb15 	stw	r2,-20(fp)
   45d88:	e0bffb17 	ldw	r2,-20(fp)
   45d8c:	1001703a 	wrctl	status,r2
   45d90:	e0bfff17 	ldw	r2,-4(fp)
   45d94:	00c001c4 	movi	r3,7
   45d98:	10c00005 	stb	r3,0(r2)
   45d9c:	e0bffd17 	ldw	r2,-12(fp)
   45da0:	e0bff615 	stw	r2,-40(fp)
   45da4:	0001883a 	nop
   45da8:	e0bff617 	ldw	r2,-40(fp)
   45dac:	e037883a 	mov	sp,fp
   45db0:	dfc00117 	ldw	ra,4(sp)
   45db4:	df000017 	ldw	fp,0(sp)
   45db8:	dec00204 	addi	sp,sp,8
   45dbc:	f800283a 	ret

00045dc0 <OSFlagNameGet>:
   45dc0:	defff604 	addi	sp,sp,-40
   45dc4:	dfc00915 	stw	ra,36(sp)
   45dc8:	df000815 	stw	fp,32(sp)
   45dcc:	df000804 	addi	fp,sp,32
   45dd0:	e13ffd15 	stw	r4,-12(fp)
   45dd4:	e17ffe15 	stw	r5,-8(fp)
   45dd8:	e1bfff15 	stw	r6,-4(fp)
   45ddc:	e03ff815 	stw	zero,-32(fp)
   45de0:	e0bfff17 	ldw	r2,-4(fp)
   45de4:	1000021e 	bne	r2,zero,45df0 <OSFlagNameGet+0x30>
   45de8:	0005883a 	mov	r2,zero
   45dec:	00003906 	br	45ed4 <OSFlagNameGet+0x114>
   45df0:	e0bffd17 	ldw	r2,-12(fp)
   45df4:	1000051e 	bne	r2,zero,45e0c <OSFlagNameGet+0x4c>
   45df8:	e0bfff17 	ldw	r2,-4(fp)
   45dfc:	00c01b84 	movi	r3,110
   45e00:	10c00005 	stb	r3,0(r2)
   45e04:	0005883a 	mov	r2,zero
   45e08:	00003206 	br	45ed4 <OSFlagNameGet+0x114>
   45e0c:	e0bffe17 	ldw	r2,-8(fp)
   45e10:	1000051e 	bne	r2,zero,45e28 <OSFlagNameGet+0x68>
   45e14:	e0bfff17 	ldw	r2,-4(fp)
   45e18:	00c00304 	movi	r3,12
   45e1c:	10c00005 	stb	r3,0(r2)
   45e20:	0005883a 	mov	r2,zero
   45e24:	00002b06 	br	45ed4 <OSFlagNameGet+0x114>
   45e28:	d0a70803 	ldbu	r2,-25568(gp)
   45e2c:	10803fcc 	andi	r2,r2,255
   45e30:	10000526 	beq	r2,zero,45e48 <OSFlagNameGet+0x88>
   45e34:	e0bfff17 	ldw	r2,-4(fp)
   45e38:	00c00444 	movi	r3,17
   45e3c:	10c00005 	stb	r3,0(r2)
   45e40:	0005883a 	mov	r2,zero
   45e44:	00002306 	br	45ed4 <OSFlagNameGet+0x114>
   45e48:	0005303a 	rdctl	r2,status
   45e4c:	e0bffc15 	stw	r2,-16(fp)
   45e50:	e0fffc17 	ldw	r3,-16(fp)
   45e54:	00bfff84 	movi	r2,-2
   45e58:	1884703a 	and	r2,r3,r2
   45e5c:	1001703a 	wrctl	status,r2
   45e60:	e0bffc17 	ldw	r2,-16(fp)
   45e64:	e0bff815 	stw	r2,-32(fp)
   45e68:	e0bffd17 	ldw	r2,-12(fp)
   45e6c:	10800003 	ldbu	r2,0(r2)
   45e70:	10803fcc 	andi	r2,r2,255
   45e74:	10800160 	cmpeqi	r2,r2,5
   45e78:	1000091e 	bne	r2,zero,45ea0 <OSFlagNameGet+0xe0>
   45e7c:	e0bff817 	ldw	r2,-32(fp)
   45e80:	e0bff915 	stw	r2,-28(fp)
   45e84:	e0bff917 	ldw	r2,-28(fp)
   45e88:	1001703a 	wrctl	status,r2
   45e8c:	e0bfff17 	ldw	r2,-4(fp)
   45e90:	00c00044 	movi	r3,1
   45e94:	10c00005 	stb	r3,0(r2)
   45e98:	0005883a 	mov	r2,zero
   45e9c:	00000d06 	br	45ed4 <OSFlagNameGet+0x114>
   45ea0:	e0bffd17 	ldw	r2,-12(fp)
   45ea4:	10800284 	addi	r2,r2,10
   45ea8:	100b883a 	mov	r5,r2
   45eac:	e13ffe17 	ldw	r4,-8(fp)
   45eb0:	00450480 	call	45048 <OS_StrCopy>
   45eb4:	e0bffb05 	stb	r2,-20(fp)
   45eb8:	e0bff817 	ldw	r2,-32(fp)
   45ebc:	e0bffa15 	stw	r2,-24(fp)
   45ec0:	e0bffa17 	ldw	r2,-24(fp)
   45ec4:	1001703a 	wrctl	status,r2
   45ec8:	e0bfff17 	ldw	r2,-4(fp)
   45ecc:	10000005 	stb	zero,0(r2)
   45ed0:	e0bffb03 	ldbu	r2,-20(fp)
   45ed4:	e037883a 	mov	sp,fp
   45ed8:	dfc00117 	ldw	ra,4(sp)
   45edc:	df000017 	ldw	fp,0(sp)
   45ee0:	dec00204 	addi	sp,sp,8
   45ee4:	f800283a 	ret

00045ee8 <OSFlagNameSet>:
   45ee8:	defff504 	addi	sp,sp,-44
   45eec:	dfc00a15 	stw	ra,40(sp)
   45ef0:	df000915 	stw	fp,36(sp)
   45ef4:	df000904 	addi	fp,sp,36
   45ef8:	e13ffd15 	stw	r4,-12(fp)
   45efc:	e17ffe15 	stw	r5,-8(fp)
   45f00:	e1bfff15 	stw	r6,-4(fp)
   45f04:	e03ff715 	stw	zero,-36(fp)
   45f08:	e0bfff17 	ldw	r2,-4(fp)
   45f0c:	10004326 	beq	r2,zero,4601c <OSFlagNameSet+0x134>
   45f10:	e0bffd17 	ldw	r2,-12(fp)
   45f14:	1000041e 	bne	r2,zero,45f28 <OSFlagNameSet+0x40>
   45f18:	e0bfff17 	ldw	r2,-4(fp)
   45f1c:	00c01b84 	movi	r3,110
   45f20:	10c00005 	stb	r3,0(r2)
   45f24:	00003e06 	br	46020 <OSFlagNameSet+0x138>
   45f28:	e0bffe17 	ldw	r2,-8(fp)
   45f2c:	1000041e 	bne	r2,zero,45f40 <OSFlagNameSet+0x58>
   45f30:	e0bfff17 	ldw	r2,-4(fp)
   45f34:	00c00304 	movi	r3,12
   45f38:	10c00005 	stb	r3,0(r2)
   45f3c:	00003806 	br	46020 <OSFlagNameSet+0x138>
   45f40:	d0a70803 	ldbu	r2,-25568(gp)
   45f44:	10803fcc 	andi	r2,r2,255
   45f48:	10000426 	beq	r2,zero,45f5c <OSFlagNameSet+0x74>
   45f4c:	e0bfff17 	ldw	r2,-4(fp)
   45f50:	00c00484 	movi	r3,18
   45f54:	10c00005 	stb	r3,0(r2)
   45f58:	00003106 	br	46020 <OSFlagNameSet+0x138>
   45f5c:	0005303a 	rdctl	r2,status
   45f60:	e0bffc15 	stw	r2,-16(fp)
   45f64:	e0fffc17 	ldw	r3,-16(fp)
   45f68:	00bfff84 	movi	r2,-2
   45f6c:	1884703a 	and	r2,r3,r2
   45f70:	1001703a 	wrctl	status,r2
   45f74:	e0bffc17 	ldw	r2,-16(fp)
   45f78:	e0bff715 	stw	r2,-36(fp)
   45f7c:	e0bffd17 	ldw	r2,-12(fp)
   45f80:	10800003 	ldbu	r2,0(r2)
   45f84:	10803fcc 	andi	r2,r2,255
   45f88:	10800160 	cmpeqi	r2,r2,5
   45f8c:	1000081e 	bne	r2,zero,45fb0 <OSFlagNameSet+0xc8>
   45f90:	e0bff717 	ldw	r2,-36(fp)
   45f94:	e0bff815 	stw	r2,-32(fp)
   45f98:	e0bff817 	ldw	r2,-32(fp)
   45f9c:	1001703a 	wrctl	status,r2
   45fa0:	e0bfff17 	ldw	r2,-4(fp)
   45fa4:	00c00044 	movi	r3,1
   45fa8:	10c00005 	stb	r3,0(r2)
   45fac:	00001c06 	br	46020 <OSFlagNameSet+0x138>
   45fb0:	e13ffe17 	ldw	r4,-8(fp)
   45fb4:	00450bc0 	call	450bc <OS_StrLen>
   45fb8:	e0bffa05 	stb	r2,-24(fp)
   45fbc:	e0bffa03 	ldbu	r2,-24(fp)
   45fc0:	10800830 	cmpltui	r2,r2,32
   45fc4:	1000081e 	bne	r2,zero,45fe8 <OSFlagNameSet+0x100>
   45fc8:	e0bff717 	ldw	r2,-36(fp)
   45fcc:	e0bff915 	stw	r2,-28(fp)
   45fd0:	e0bff917 	ldw	r2,-28(fp)
   45fd4:	1001703a 	wrctl	status,r2
   45fd8:	e0bfff17 	ldw	r2,-4(fp)
   45fdc:	00c01cc4 	movi	r3,115
   45fe0:	10c00005 	stb	r3,0(r2)
   45fe4:	00000e06 	br	46020 <OSFlagNameSet+0x138>
   45fe8:	e0bffd17 	ldw	r2,-12(fp)
   45fec:	10800284 	addi	r2,r2,10
   45ff0:	e17ffe17 	ldw	r5,-8(fp)
   45ff4:	1009883a 	mov	r4,r2
   45ff8:	00450480 	call	45048 <OS_StrCopy>
   45ffc:	e0bff717 	ldw	r2,-36(fp)
   46000:	e0bffb15 	stw	r2,-20(fp)
   46004:	e0bffb17 	ldw	r2,-20(fp)
   46008:	1001703a 	wrctl	status,r2
   4600c:	e0bfff17 	ldw	r2,-4(fp)
   46010:	10000005 	stb	zero,0(r2)
   46014:	0001883a 	nop
   46018:	00000106 	br	46020 <OSFlagNameSet+0x138>
   4601c:	0001883a 	nop
   46020:	e037883a 	mov	sp,fp
   46024:	dfc00117 	ldw	ra,4(sp)
   46028:	df000017 	ldw	fp,0(sp)
   4602c:	dec00204 	addi	sp,sp,8
   46030:	f800283a 	ret

00046034 <OSFlagPend>:
   46034:	deffe104 	addi	sp,sp,-124
   46038:	dfc01e15 	stw	ra,120(sp)
   4603c:	df001d15 	stw	fp,116(sp)
   46040:	df001d04 	addi	fp,sp,116
   46044:	e13ffc15 	stw	r4,-16(fp)
   46048:	2809883a 	mov	r4,r5
   4604c:	3007883a 	mov	r3,r6
   46050:	3805883a 	mov	r2,r7
   46054:	e13ffd0d 	sth	r4,-12(fp)
   46058:	e0fffe05 	stb	r3,-8(fp)
   4605c:	e0bfff0d 	sth	r2,-4(fp)
   46060:	e03fe515 	stw	zero,-108(fp)
   46064:	e0800217 	ldw	r2,8(fp)
   46068:	1000021e 	bne	r2,zero,46074 <OSFlagPend+0x40>
   4606c:	0005883a 	mov	r2,zero
   46070:	00015906 	br	465d8 <OSFlagPend+0x5a4>
   46074:	e0bffc17 	ldw	r2,-16(fp)
   46078:	1000051e 	bne	r2,zero,46090 <OSFlagPend+0x5c>
   4607c:	e0800217 	ldw	r2,8(fp)
   46080:	00c01b84 	movi	r3,110
   46084:	10c00005 	stb	r3,0(r2)
   46088:	0005883a 	mov	r2,zero
   4608c:	00015206 	br	465d8 <OSFlagPend+0x5a4>
   46090:	d0a70803 	ldbu	r2,-25568(gp)
   46094:	10803fcc 	andi	r2,r2,255
   46098:	10000526 	beq	r2,zero,460b0 <OSFlagPend+0x7c>
   4609c:	e0800217 	ldw	r2,8(fp)
   460a0:	00c00084 	movi	r3,2
   460a4:	10c00005 	stb	r3,0(r2)
   460a8:	0005883a 	mov	r2,zero
   460ac:	00014a06 	br	465d8 <OSFlagPend+0x5a4>
   460b0:	d0a6fa03 	ldbu	r2,-25624(gp)
   460b4:	10803fcc 	andi	r2,r2,255
   460b8:	10000526 	beq	r2,zero,460d0 <OSFlagPend+0x9c>
   460bc:	e0800217 	ldw	r2,8(fp)
   460c0:	00c00344 	movi	r3,13
   460c4:	10c00005 	stb	r3,0(r2)
   460c8:	0005883a 	mov	r2,zero
   460cc:	00014206 	br	465d8 <OSFlagPend+0x5a4>
   460d0:	e0bffc17 	ldw	r2,-16(fp)
   460d4:	10800003 	ldbu	r2,0(r2)
   460d8:	10803fcc 	andi	r2,r2,255
   460dc:	10800160 	cmpeqi	r2,r2,5
   460e0:	1000051e 	bne	r2,zero,460f8 <OSFlagPend+0xc4>
   460e4:	e0800217 	ldw	r2,8(fp)
   460e8:	00c00044 	movi	r3,1
   460ec:	10c00005 	stb	r3,0(r2)
   460f0:	0005883a 	mov	r2,zero
   460f4:	00013806 	br	465d8 <OSFlagPend+0x5a4>
   460f8:	e0fffe03 	ldbu	r3,-8(fp)
   460fc:	00bfe004 	movi	r2,-128
   46100:	1884703a 	and	r2,r3,r2
   46104:	e0bfe605 	stb	r2,-104(fp)
   46108:	e0bfe603 	ldbu	r2,-104(fp)
   4610c:	10000626 	beq	r2,zero,46128 <OSFlagPend+0xf4>
   46110:	e0bffe03 	ldbu	r2,-8(fp)
   46114:	10801fcc 	andi	r2,r2,127
   46118:	e0bffe05 	stb	r2,-8(fp)
   4611c:	00800044 	movi	r2,1
   46120:	e0bfe405 	stb	r2,-112(fp)
   46124:	00000106 	br	4612c <OSFlagPend+0xf8>
   46128:	e03fe405 	stb	zero,-112(fp)
   4612c:	0005303a 	rdctl	r2,status
   46130:	e0bff615 	stw	r2,-40(fp)
   46134:	e0fff617 	ldw	r3,-40(fp)
   46138:	00bfff84 	movi	r2,-2
   4613c:	1884703a 	and	r2,r3,r2
   46140:	1001703a 	wrctl	status,r2
   46144:	e0bff617 	ldw	r2,-40(fp)
   46148:	e0bfe515 	stw	r2,-108(fp)
   4614c:	e0bffe03 	ldbu	r2,-8(fp)
   46150:	10c00060 	cmpeqi	r3,r2,1
   46154:	1800921e 	bne	r3,zero,463a0 <OSFlagPend+0x36c>
   46158:	10c00088 	cmpgei	r3,r2,2
   4615c:	1800021e 	bne	r3,zero,46168 <OSFlagPend+0x134>
   46160:	10006126 	beq	r2,zero,462e8 <OSFlagPend+0x2b4>
   46164:	0000bb06 	br	46454 <OSFlagPend+0x420>
   46168:	10c000a0 	cmpeqi	r3,r2,2
   4616c:	1800031e 	bne	r3,zero,4617c <OSFlagPend+0x148>
   46170:	108000e0 	cmpeqi	r2,r2,3
   46174:	10002f1e 	bne	r2,zero,46234 <OSFlagPend+0x200>
   46178:	0000b606 	br	46454 <OSFlagPend+0x420>
   4617c:	e0bffc17 	ldw	r2,-16(fp)
   46180:	10c0020b 	ldhu	r3,8(r2)
   46184:	e0bffd0b 	ldhu	r2,-12(fp)
   46188:	1884703a 	and	r2,r3,r2
   4618c:	e0bfe80d 	sth	r2,-96(fp)
   46190:	e0ffe80b 	ldhu	r3,-96(fp)
   46194:	e0bffd0b 	ldhu	r2,-12(fp)
   46198:	1880171e 	bne	r3,r2,461f8 <OSFlagPend+0x1c4>
   4619c:	e0bfe403 	ldbu	r2,-112(fp)
   461a0:	10800058 	cmpnei	r2,r2,1
   461a4:	1000091e 	bne	r2,zero,461cc <OSFlagPend+0x198>
   461a8:	e0bffc17 	ldw	r2,-16(fp)
   461ac:	1080020b 	ldhu	r2,8(r2)
   461b0:	1007883a 	mov	r3,r2
   461b4:	e0bfe80b 	ldhu	r2,-96(fp)
   461b8:	0084303a 	nor	r2,zero,r2
   461bc:	1884703a 	and	r2,r3,r2
   461c0:	1007883a 	mov	r3,r2
   461c4:	e0bffc17 	ldw	r2,-16(fp)
   461c8:	10c0020d 	sth	r3,8(r2)
   461cc:	d0a70917 	ldw	r2,-25564(gp)
   461d0:	e0ffe80b 	ldhu	r3,-96(fp)
   461d4:	10c00b0d 	sth	r3,44(r2)
   461d8:	e0bfe517 	ldw	r2,-108(fp)
   461dc:	e0bfe715 	stw	r2,-100(fp)
   461e0:	e0bfe717 	ldw	r2,-100(fp)
   461e4:	1001703a 	wrctl	status,r2
   461e8:	e0800217 	ldw	r2,8(fp)
   461ec:	10000005 	stb	zero,0(r2)
   461f0:	e0bfe80b 	ldhu	r2,-96(fp)
   461f4:	0000f806 	br	465d8 <OSFlagPend+0x5a4>
   461f8:	e13ffd0b 	ldhu	r4,-12(fp)
   461fc:	e17ffe03 	ldbu	r5,-8(fp)
   46200:	e0bfff0b 	ldhu	r2,-4(fp)
   46204:	e0fff704 	addi	r3,fp,-36
   46208:	d8800015 	stw	r2,0(sp)
   4620c:	280f883a 	mov	r7,r5
   46210:	200d883a 	mov	r6,r4
   46214:	180b883a 	mov	r5,r3
   46218:	e13ffc17 	ldw	r4,-16(fp)
   4621c:	0046aa40 	call	46aa4 <OS_FlagBlock>
   46220:	e0bfe517 	ldw	r2,-108(fp)
   46224:	e0bfe915 	stw	r2,-92(fp)
   46228:	e0bfe917 	ldw	r2,-92(fp)
   4622c:	1001703a 	wrctl	status,r2
   46230:	00009206 	br	4647c <OSFlagPend+0x448>
   46234:	e0bffc17 	ldw	r2,-16(fp)
   46238:	10c0020b 	ldhu	r3,8(r2)
   4623c:	e0bffd0b 	ldhu	r2,-12(fp)
   46240:	1884703a 	and	r2,r3,r2
   46244:	e0bfe80d 	sth	r2,-96(fp)
   46248:	e0bfe80b 	ldhu	r2,-96(fp)
   4624c:	10001726 	beq	r2,zero,462ac <OSFlagPend+0x278>
   46250:	e0bfe403 	ldbu	r2,-112(fp)
   46254:	10800058 	cmpnei	r2,r2,1
   46258:	1000091e 	bne	r2,zero,46280 <OSFlagPend+0x24c>
   4625c:	e0bffc17 	ldw	r2,-16(fp)
   46260:	1080020b 	ldhu	r2,8(r2)
   46264:	1007883a 	mov	r3,r2
   46268:	e0bfe80b 	ldhu	r2,-96(fp)
   4626c:	0084303a 	nor	r2,zero,r2
   46270:	1884703a 	and	r2,r3,r2
   46274:	1007883a 	mov	r3,r2
   46278:	e0bffc17 	ldw	r2,-16(fp)
   4627c:	10c0020d 	sth	r3,8(r2)
   46280:	d0a70917 	ldw	r2,-25564(gp)
   46284:	e0ffe80b 	ldhu	r3,-96(fp)
   46288:	10c00b0d 	sth	r3,44(r2)
   4628c:	e0bfe517 	ldw	r2,-108(fp)
   46290:	e0bfea15 	stw	r2,-88(fp)
   46294:	e0bfea17 	ldw	r2,-88(fp)
   46298:	1001703a 	wrctl	status,r2
   4629c:	e0800217 	ldw	r2,8(fp)
   462a0:	10000005 	stb	zero,0(r2)
   462a4:	e0bfe80b 	ldhu	r2,-96(fp)
   462a8:	0000cb06 	br	465d8 <OSFlagPend+0x5a4>
   462ac:	e13ffd0b 	ldhu	r4,-12(fp)
   462b0:	e17ffe03 	ldbu	r5,-8(fp)
   462b4:	e0bfff0b 	ldhu	r2,-4(fp)
   462b8:	e0fff704 	addi	r3,fp,-36
   462bc:	d8800015 	stw	r2,0(sp)
   462c0:	280f883a 	mov	r7,r5
   462c4:	200d883a 	mov	r6,r4
   462c8:	180b883a 	mov	r5,r3
   462cc:	e13ffc17 	ldw	r4,-16(fp)
   462d0:	0046aa40 	call	46aa4 <OS_FlagBlock>
   462d4:	e0bfe517 	ldw	r2,-108(fp)
   462d8:	e0bfeb15 	stw	r2,-84(fp)
   462dc:	e0bfeb17 	ldw	r2,-84(fp)
   462e0:	1001703a 	wrctl	status,r2
   462e4:	00006506 	br	4647c <OSFlagPend+0x448>
   462e8:	e0bffc17 	ldw	r2,-16(fp)
   462ec:	1080020b 	ldhu	r2,8(r2)
   462f0:	0084303a 	nor	r2,zero,r2
   462f4:	1007883a 	mov	r3,r2
   462f8:	e0bffd0b 	ldhu	r2,-12(fp)
   462fc:	1884703a 	and	r2,r3,r2
   46300:	e0bfe80d 	sth	r2,-96(fp)
   46304:	e0ffe80b 	ldhu	r3,-96(fp)
   46308:	e0bffd0b 	ldhu	r2,-12(fp)
   4630c:	1880151e 	bne	r3,r2,46364 <OSFlagPend+0x330>
   46310:	e0bfe403 	ldbu	r2,-112(fp)
   46314:	10800058 	cmpnei	r2,r2,1
   46318:	1000071e 	bne	r2,zero,46338 <OSFlagPend+0x304>
   4631c:	e0bffc17 	ldw	r2,-16(fp)
   46320:	10c0020b 	ldhu	r3,8(r2)
   46324:	e0bfe80b 	ldhu	r2,-96(fp)
   46328:	1884b03a 	or	r2,r3,r2
   4632c:	1007883a 	mov	r3,r2
   46330:	e0bffc17 	ldw	r2,-16(fp)
   46334:	10c0020d 	sth	r3,8(r2)
   46338:	d0a70917 	ldw	r2,-25564(gp)
   4633c:	e0ffe80b 	ldhu	r3,-96(fp)
   46340:	10c00b0d 	sth	r3,44(r2)
   46344:	e0bfe517 	ldw	r2,-108(fp)
   46348:	e0bfec15 	stw	r2,-80(fp)
   4634c:	e0bfec17 	ldw	r2,-80(fp)
   46350:	1001703a 	wrctl	status,r2
   46354:	e0800217 	ldw	r2,8(fp)
   46358:	10000005 	stb	zero,0(r2)
   4635c:	e0bfe80b 	ldhu	r2,-96(fp)
   46360:	00009d06 	br	465d8 <OSFlagPend+0x5a4>
   46364:	e13ffd0b 	ldhu	r4,-12(fp)
   46368:	e17ffe03 	ldbu	r5,-8(fp)
   4636c:	e0bfff0b 	ldhu	r2,-4(fp)
   46370:	e0fff704 	addi	r3,fp,-36
   46374:	d8800015 	stw	r2,0(sp)
   46378:	280f883a 	mov	r7,r5
   4637c:	200d883a 	mov	r6,r4
   46380:	180b883a 	mov	r5,r3
   46384:	e13ffc17 	ldw	r4,-16(fp)
   46388:	0046aa40 	call	46aa4 <OS_FlagBlock>
   4638c:	e0bfe517 	ldw	r2,-108(fp)
   46390:	e0bfed15 	stw	r2,-76(fp)
   46394:	e0bfed17 	ldw	r2,-76(fp)
   46398:	1001703a 	wrctl	status,r2
   4639c:	00003706 	br	4647c <OSFlagPend+0x448>
   463a0:	e0bffc17 	ldw	r2,-16(fp)
   463a4:	1080020b 	ldhu	r2,8(r2)
   463a8:	0084303a 	nor	r2,zero,r2
   463ac:	1007883a 	mov	r3,r2
   463b0:	e0bffd0b 	ldhu	r2,-12(fp)
   463b4:	1884703a 	and	r2,r3,r2
   463b8:	e0bfe80d 	sth	r2,-96(fp)
   463bc:	e0bfe80b 	ldhu	r2,-96(fp)
   463c0:	10001526 	beq	r2,zero,46418 <OSFlagPend+0x3e4>
   463c4:	e0bfe403 	ldbu	r2,-112(fp)
   463c8:	10800058 	cmpnei	r2,r2,1
   463cc:	1000071e 	bne	r2,zero,463ec <OSFlagPend+0x3b8>
   463d0:	e0bffc17 	ldw	r2,-16(fp)
   463d4:	10c0020b 	ldhu	r3,8(r2)
   463d8:	e0bfe80b 	ldhu	r2,-96(fp)
   463dc:	1884b03a 	or	r2,r3,r2
   463e0:	1007883a 	mov	r3,r2
   463e4:	e0bffc17 	ldw	r2,-16(fp)
   463e8:	10c0020d 	sth	r3,8(r2)
   463ec:	d0a70917 	ldw	r2,-25564(gp)
   463f0:	e0ffe80b 	ldhu	r3,-96(fp)
   463f4:	10c00b0d 	sth	r3,44(r2)
   463f8:	e0bfe517 	ldw	r2,-108(fp)
   463fc:	e0bfee15 	stw	r2,-72(fp)
   46400:	e0bfee17 	ldw	r2,-72(fp)
   46404:	1001703a 	wrctl	status,r2
   46408:	e0800217 	ldw	r2,8(fp)
   4640c:	10000005 	stb	zero,0(r2)
   46410:	e0bfe80b 	ldhu	r2,-96(fp)
   46414:	00007006 	br	465d8 <OSFlagPend+0x5a4>
   46418:	e13ffd0b 	ldhu	r4,-12(fp)
   4641c:	e17ffe03 	ldbu	r5,-8(fp)
   46420:	e0bfff0b 	ldhu	r2,-4(fp)
   46424:	e0fff704 	addi	r3,fp,-36
   46428:	d8800015 	stw	r2,0(sp)
   4642c:	280f883a 	mov	r7,r5
   46430:	200d883a 	mov	r6,r4
   46434:	180b883a 	mov	r5,r3
   46438:	e13ffc17 	ldw	r4,-16(fp)
   4643c:	0046aa40 	call	46aa4 <OS_FlagBlock>
   46440:	e0bfe517 	ldw	r2,-108(fp)
   46444:	e0bfef15 	stw	r2,-68(fp)
   46448:	e0bfef17 	ldw	r2,-68(fp)
   4644c:	1001703a 	wrctl	status,r2
   46450:	00000a06 	br	4647c <OSFlagPend+0x448>
   46454:	e0bfe517 	ldw	r2,-108(fp)
   46458:	e0bff015 	stw	r2,-64(fp)
   4645c:	e0bff017 	ldw	r2,-64(fp)
   46460:	1001703a 	wrctl	status,r2
   46464:	e03fe80d 	sth	zero,-96(fp)
   46468:	e0800217 	ldw	r2,8(fp)
   4646c:	00c01bc4 	movi	r3,111
   46470:	10c00005 	stb	r3,0(r2)
   46474:	e0bfe80b 	ldhu	r2,-96(fp)
   46478:	00005706 	br	465d8 <OSFlagPend+0x5a4>
   4647c:	0044f040 	call	44f04 <OS_Sched>
   46480:	0005303a 	rdctl	r2,status
   46484:	e0bff115 	stw	r2,-60(fp)
   46488:	e0fff117 	ldw	r3,-60(fp)
   4648c:	00bfff84 	movi	r2,-2
   46490:	1884703a 	and	r2,r3,r2
   46494:	1001703a 	wrctl	status,r2
   46498:	e0bff117 	ldw	r2,-60(fp)
   4649c:	e0bfe515 	stw	r2,-108(fp)
   464a0:	d0a70917 	ldw	r2,-25564(gp)
   464a4:	10800c43 	ldbu	r2,49(r2)
   464a8:	10803fcc 	andi	r2,r2,255
   464ac:	10001c26 	beq	r2,zero,46520 <OSFlagPend+0x4ec>
   464b0:	d0a70917 	ldw	r2,-25564(gp)
   464b4:	10800c43 	ldbu	r2,49(r2)
   464b8:	e0bff305 	stb	r2,-52(fp)
   464bc:	d0a70917 	ldw	r2,-25564(gp)
   464c0:	10000c45 	stb	zero,49(r2)
   464c4:	e0bff704 	addi	r2,fp,-36
   464c8:	1009883a 	mov	r4,r2
   464cc:	0046dd80 	call	46dd8 <OS_FlagUnlink>
   464d0:	d0a70917 	ldw	r2,-25564(gp)
   464d4:	10000c05 	stb	zero,48(r2)
   464d8:	e0bfe517 	ldw	r2,-108(fp)
   464dc:	e0bff215 	stw	r2,-56(fp)
   464e0:	e0bff217 	ldw	r2,-56(fp)
   464e4:	1001703a 	wrctl	status,r2
   464e8:	e03fe80d 	sth	zero,-96(fp)
   464ec:	e0bff303 	ldbu	r2,-52(fp)
   464f0:	108000a0 	cmpeqi	r2,r2,2
   464f4:	10000426 	beq	r2,zero,46508 <OSFlagPend+0x4d4>
   464f8:	e0800217 	ldw	r2,8(fp)
   464fc:	00c00384 	movi	r3,14
   46500:	10c00005 	stb	r3,0(r2)
   46504:	00000406 	br	46518 <OSFlagPend+0x4e4>
   46508:	e0800217 	ldw	r2,8(fp)
   4650c:	00c00284 	movi	r3,10
   46510:	10c00005 	stb	r3,0(r2)
   46514:	0001883a 	nop
   46518:	e0bfe80b 	ldhu	r2,-96(fp)
   4651c:	00002e06 	br	465d8 <OSFlagPend+0x5a4>
   46520:	d0a70917 	ldw	r2,-25564(gp)
   46524:	10800b0b 	ldhu	r2,44(r2)
   46528:	e0bfe80d 	sth	r2,-96(fp)
   4652c:	e0bfe403 	ldbu	r2,-112(fp)
   46530:	10800058 	cmpnei	r2,r2,1
   46534:	1000211e 	bne	r2,zero,465bc <OSFlagPend+0x588>
   46538:	e0bffe03 	ldbu	r2,-8(fp)
   4653c:	10001616 	blt	r2,zero,46598 <OSFlagPend+0x564>
   46540:	10c00090 	cmplti	r3,r2,2
   46544:	18000c1e 	bne	r3,zero,46578 <OSFlagPend+0x544>
   46548:	10800108 	cmpgei	r2,r2,4
   4654c:	1000121e 	bne	r2,zero,46598 <OSFlagPend+0x564>
   46550:	e0bffc17 	ldw	r2,-16(fp)
   46554:	1080020b 	ldhu	r2,8(r2)
   46558:	1007883a 	mov	r3,r2
   4655c:	e0bfe80b 	ldhu	r2,-96(fp)
   46560:	0084303a 	nor	r2,zero,r2
   46564:	1884703a 	and	r2,r3,r2
   46568:	1007883a 	mov	r3,r2
   4656c:	e0bffc17 	ldw	r2,-16(fp)
   46570:	10c0020d 	sth	r3,8(r2)
   46574:	00001106 	br	465bc <OSFlagPend+0x588>
   46578:	e0bffc17 	ldw	r2,-16(fp)
   4657c:	10c0020b 	ldhu	r3,8(r2)
   46580:	e0bfe80b 	ldhu	r2,-96(fp)
   46584:	1884b03a 	or	r2,r3,r2
   46588:	1007883a 	mov	r3,r2
   4658c:	e0bffc17 	ldw	r2,-16(fp)
   46590:	10c0020d 	sth	r3,8(r2)
   46594:	00000906 	br	465bc <OSFlagPend+0x588>
   46598:	e0bfe517 	ldw	r2,-108(fp)
   4659c:	e0bff415 	stw	r2,-48(fp)
   465a0:	e0bff417 	ldw	r2,-48(fp)
   465a4:	1001703a 	wrctl	status,r2
   465a8:	e0800217 	ldw	r2,8(fp)
   465ac:	00c01bc4 	movi	r3,111
   465b0:	10c00005 	stb	r3,0(r2)
   465b4:	0005883a 	mov	r2,zero
   465b8:	00000706 	br	465d8 <OSFlagPend+0x5a4>
   465bc:	e0bfe517 	ldw	r2,-108(fp)
   465c0:	e0bff515 	stw	r2,-44(fp)
   465c4:	e0bff517 	ldw	r2,-44(fp)
   465c8:	1001703a 	wrctl	status,r2
   465cc:	e0800217 	ldw	r2,8(fp)
   465d0:	10000005 	stb	zero,0(r2)
   465d4:	e0bfe80b 	ldhu	r2,-96(fp)
   465d8:	e037883a 	mov	sp,fp
   465dc:	dfc00117 	ldw	ra,4(sp)
   465e0:	df000017 	ldw	fp,0(sp)
   465e4:	dec00204 	addi	sp,sp,8
   465e8:	f800283a 	ret

000465ec <OSFlagPendGetFlagsRdy>:
   465ec:	defffb04 	addi	sp,sp,-20
   465f0:	df000415 	stw	fp,16(sp)
   465f4:	df000404 	addi	fp,sp,16
   465f8:	e03ffc15 	stw	zero,-16(fp)
   465fc:	0005303a 	rdctl	r2,status
   46600:	e0bffe15 	stw	r2,-8(fp)
   46604:	e0fffe17 	ldw	r3,-8(fp)
   46608:	00bfff84 	movi	r2,-2
   4660c:	1884703a 	and	r2,r3,r2
   46610:	1001703a 	wrctl	status,r2
   46614:	e0bffe17 	ldw	r2,-8(fp)
   46618:	e0bffc15 	stw	r2,-16(fp)
   4661c:	d0a70917 	ldw	r2,-25564(gp)
   46620:	10800b0b 	ldhu	r2,44(r2)
   46624:	e0bffd0d 	sth	r2,-12(fp)
   46628:	e0bffc17 	ldw	r2,-16(fp)
   4662c:	e0bfff15 	stw	r2,-4(fp)
   46630:	e0bfff17 	ldw	r2,-4(fp)
   46634:	1001703a 	wrctl	status,r2
   46638:	e0bffd0b 	ldhu	r2,-12(fp)
   4663c:	e037883a 	mov	sp,fp
   46640:	df000017 	ldw	fp,0(sp)
   46644:	dec00104 	addi	sp,sp,4
   46648:	f800283a 	ret

0004664c <OSFlagPost>:
   4664c:	deffef04 	addi	sp,sp,-68
   46650:	dfc01015 	stw	ra,64(sp)
   46654:	df000f15 	stw	fp,60(sp)
   46658:	df000f04 	addi	fp,sp,60
   4665c:	e13ffc15 	stw	r4,-16(fp)
   46660:	2807883a 	mov	r3,r5
   46664:	3005883a 	mov	r2,r6
   46668:	e1ffff15 	stw	r7,-4(fp)
   4666c:	e0fffd0d 	sth	r3,-12(fp)
   46670:	e0bffe05 	stb	r2,-8(fp)
   46674:	e03ff315 	stw	zero,-52(fp)
   46678:	e0bfff17 	ldw	r2,-4(fp)
   4667c:	1000021e 	bne	r2,zero,46688 <OSFlagPost+0x3c>
   46680:	0005883a 	mov	r2,zero
   46684:	0000d106 	br	469cc <OSFlagPost+0x380>
   46688:	e0bffc17 	ldw	r2,-16(fp)
   4668c:	1000051e 	bne	r2,zero,466a4 <OSFlagPost+0x58>
   46690:	e0bfff17 	ldw	r2,-4(fp)
   46694:	00c01b84 	movi	r3,110
   46698:	10c00005 	stb	r3,0(r2)
   4669c:	0005883a 	mov	r2,zero
   466a0:	0000ca06 	br	469cc <OSFlagPost+0x380>
   466a4:	e0bffc17 	ldw	r2,-16(fp)
   466a8:	10800003 	ldbu	r2,0(r2)
   466ac:	10803fcc 	andi	r2,r2,255
   466b0:	10800160 	cmpeqi	r2,r2,5
   466b4:	1000051e 	bne	r2,zero,466cc <OSFlagPost+0x80>
   466b8:	e0bfff17 	ldw	r2,-4(fp)
   466bc:	00c00044 	movi	r3,1
   466c0:	10c00005 	stb	r3,0(r2)
   466c4:	0005883a 	mov	r2,zero
   466c8:	0000c006 	br	469cc <OSFlagPost+0x380>
   466cc:	0005303a 	rdctl	r2,status
   466d0:	e0bffb15 	stw	r2,-20(fp)
   466d4:	e0fffb17 	ldw	r3,-20(fp)
   466d8:	00bfff84 	movi	r2,-2
   466dc:	1884703a 	and	r2,r3,r2
   466e0:	1001703a 	wrctl	status,r2
   466e4:	e0bffb17 	ldw	r2,-20(fp)
   466e8:	e0bff315 	stw	r2,-52(fp)
   466ec:	e0bffe03 	ldbu	r2,-8(fp)
   466f0:	10000326 	beq	r2,zero,46700 <OSFlagPost+0xb4>
   466f4:	10800060 	cmpeqi	r2,r2,1
   466f8:	10000b1e 	bne	r2,zero,46728 <OSFlagPost+0xdc>
   466fc:	00001206 	br	46748 <OSFlagPost+0xfc>
   46700:	e0bffc17 	ldw	r2,-16(fp)
   46704:	1080020b 	ldhu	r2,8(r2)
   46708:	1007883a 	mov	r3,r2
   4670c:	e0bffd0b 	ldhu	r2,-12(fp)
   46710:	0084303a 	nor	r2,zero,r2
   46714:	1884703a 	and	r2,r3,r2
   46718:	1007883a 	mov	r3,r2
   4671c:	e0bffc17 	ldw	r2,-16(fp)
   46720:	10c0020d 	sth	r3,8(r2)
   46724:	00001106 	br	4676c <OSFlagPost+0x120>
   46728:	e0bffc17 	ldw	r2,-16(fp)
   4672c:	10c0020b 	ldhu	r3,8(r2)
   46730:	e0bffd0b 	ldhu	r2,-12(fp)
   46734:	1884b03a 	or	r2,r3,r2
   46738:	1007883a 	mov	r3,r2
   4673c:	e0bffc17 	ldw	r2,-16(fp)
   46740:	10c0020d 	sth	r3,8(r2)
   46744:	00000906 	br	4676c <OSFlagPost+0x120>
   46748:	e0bff317 	ldw	r2,-52(fp)
   4674c:	e0bff415 	stw	r2,-48(fp)
   46750:	e0bff417 	ldw	r2,-48(fp)
   46754:	1001703a 	wrctl	status,r2
   46758:	e0bfff17 	ldw	r2,-4(fp)
   4675c:	00c01c44 	movi	r3,113
   46760:	10c00005 	stb	r3,0(r2)
   46764:	0005883a 	mov	r2,zero
   46768:	00009806 	br	469cc <OSFlagPost+0x380>
   4676c:	e03ff205 	stb	zero,-56(fp)
   46770:	e0bffc17 	ldw	r2,-16(fp)
   46774:	10800117 	ldw	r2,4(r2)
   46778:	e0bff115 	stw	r2,-60(fp)
   4677c:	00007706 	br	4695c <OSFlagPost+0x310>
   46780:	e0bff117 	ldw	r2,-60(fp)
   46784:	10800483 	ldbu	r2,18(r2)
   46788:	10803fcc 	andi	r2,r2,255
   4678c:	10c00060 	cmpeqi	r3,r2,1
   46790:	18004a1e 	bne	r3,zero,468bc <OSFlagPost+0x270>
   46794:	10c00088 	cmpgei	r3,r2,2
   46798:	1800021e 	bne	r3,zero,467a4 <OSFlagPost+0x158>
   4679c:	10002f26 	beq	r2,zero,4685c <OSFlagPost+0x210>
   467a0:	00005b06 	br	46910 <OSFlagPost+0x2c4>
   467a4:	10c000a0 	cmpeqi	r3,r2,2
   467a8:	1800031e 	bne	r3,zero,467b8 <OSFlagPost+0x16c>
   467ac:	108000e0 	cmpeqi	r2,r2,3
   467b0:	1000171e 	bne	r2,zero,46810 <OSFlagPost+0x1c4>
   467b4:	00005606 	br	46910 <OSFlagPost+0x2c4>
   467b8:	e0bffc17 	ldw	r2,-16(fp)
   467bc:	10c0020b 	ldhu	r3,8(r2)
   467c0:	e0bff117 	ldw	r2,-60(fp)
   467c4:	1080040b 	ldhu	r2,16(r2)
   467c8:	1884703a 	and	r2,r3,r2
   467cc:	e0bff60d 	sth	r2,-40(fp)
   467d0:	e0bff117 	ldw	r2,-60(fp)
   467d4:	1080040b 	ldhu	r2,16(r2)
   467d8:	10ffffcc 	andi	r3,r2,65535
   467dc:	e0bff60b 	ldhu	r2,-40(fp)
   467e0:	1880541e 	bne	r3,r2,46934 <OSFlagPost+0x2e8>
   467e4:	e0bff60b 	ldhu	r2,-40(fp)
   467e8:	100b883a 	mov	r5,r2
   467ec:	e13ff117 	ldw	r4,-60(fp)
   467f0:	0046ce40 	call	46ce4 <OS_FlagTaskRdy>
   467f4:	e0bff685 	stb	r2,-38(fp)
   467f8:	e0bff683 	ldbu	r2,-38(fp)
   467fc:	10800058 	cmpnei	r2,r2,1
   46800:	10004c1e 	bne	r2,zero,46934 <OSFlagPost+0x2e8>
   46804:	00800044 	movi	r2,1
   46808:	e0bff205 	stb	r2,-56(fp)
   4680c:	00004906 	br	46934 <OSFlagPost+0x2e8>
   46810:	e0bffc17 	ldw	r2,-16(fp)
   46814:	10c0020b 	ldhu	r3,8(r2)
   46818:	e0bff117 	ldw	r2,-60(fp)
   4681c:	1080040b 	ldhu	r2,16(r2)
   46820:	1884703a 	and	r2,r3,r2
   46824:	e0bff60d 	sth	r2,-40(fp)
   46828:	e0bff60b 	ldhu	r2,-40(fp)
   4682c:	10004326 	beq	r2,zero,4693c <OSFlagPost+0x2f0>
   46830:	e0bff60b 	ldhu	r2,-40(fp)
   46834:	100b883a 	mov	r5,r2
   46838:	e13ff117 	ldw	r4,-60(fp)
   4683c:	0046ce40 	call	46ce4 <OS_FlagTaskRdy>
   46840:	e0bff685 	stb	r2,-38(fp)
   46844:	e0bff683 	ldbu	r2,-38(fp)
   46848:	10800058 	cmpnei	r2,r2,1
   4684c:	10003b1e 	bne	r2,zero,4693c <OSFlagPost+0x2f0>
   46850:	00800044 	movi	r2,1
   46854:	e0bff205 	stb	r2,-56(fp)
   46858:	00003806 	br	4693c <OSFlagPost+0x2f0>
   4685c:	e0bffc17 	ldw	r2,-16(fp)
   46860:	1080020b 	ldhu	r2,8(r2)
   46864:	0084303a 	nor	r2,zero,r2
   46868:	1007883a 	mov	r3,r2
   4686c:	e0bff117 	ldw	r2,-60(fp)
   46870:	1080040b 	ldhu	r2,16(r2)
   46874:	1884703a 	and	r2,r3,r2
   46878:	e0bff60d 	sth	r2,-40(fp)
   4687c:	e0bff117 	ldw	r2,-60(fp)
   46880:	1080040b 	ldhu	r2,16(r2)
   46884:	10ffffcc 	andi	r3,r2,65535
   46888:	e0bff60b 	ldhu	r2,-40(fp)
   4688c:	18802d1e 	bne	r3,r2,46944 <OSFlagPost+0x2f8>
   46890:	e0bff60b 	ldhu	r2,-40(fp)
   46894:	100b883a 	mov	r5,r2
   46898:	e13ff117 	ldw	r4,-60(fp)
   4689c:	0046ce40 	call	46ce4 <OS_FlagTaskRdy>
   468a0:	e0bff685 	stb	r2,-38(fp)
   468a4:	e0bff683 	ldbu	r2,-38(fp)
   468a8:	10800058 	cmpnei	r2,r2,1
   468ac:	1000251e 	bne	r2,zero,46944 <OSFlagPost+0x2f8>
   468b0:	00800044 	movi	r2,1
   468b4:	e0bff205 	stb	r2,-56(fp)
   468b8:	00002206 	br	46944 <OSFlagPost+0x2f8>
   468bc:	e0bffc17 	ldw	r2,-16(fp)
   468c0:	1080020b 	ldhu	r2,8(r2)
   468c4:	0084303a 	nor	r2,zero,r2
   468c8:	1007883a 	mov	r3,r2
   468cc:	e0bff117 	ldw	r2,-60(fp)
   468d0:	1080040b 	ldhu	r2,16(r2)
   468d4:	1884703a 	and	r2,r3,r2
   468d8:	e0bff60d 	sth	r2,-40(fp)
   468dc:	e0bff60b 	ldhu	r2,-40(fp)
   468e0:	10001a26 	beq	r2,zero,4694c <OSFlagPost+0x300>
   468e4:	e0bff60b 	ldhu	r2,-40(fp)
   468e8:	100b883a 	mov	r5,r2
   468ec:	e13ff117 	ldw	r4,-60(fp)
   468f0:	0046ce40 	call	46ce4 <OS_FlagTaskRdy>
   468f4:	e0bff685 	stb	r2,-38(fp)
   468f8:	e0bff683 	ldbu	r2,-38(fp)
   468fc:	10800058 	cmpnei	r2,r2,1
   46900:	1000121e 	bne	r2,zero,4694c <OSFlagPost+0x300>
   46904:	00800044 	movi	r2,1
   46908:	e0bff205 	stb	r2,-56(fp)
   4690c:	00000f06 	br	4694c <OSFlagPost+0x300>
   46910:	e0bff317 	ldw	r2,-52(fp)
   46914:	e0bff515 	stw	r2,-44(fp)
   46918:	e0bff517 	ldw	r2,-44(fp)
   4691c:	1001703a 	wrctl	status,r2
   46920:	e0bfff17 	ldw	r2,-4(fp)
   46924:	00c01bc4 	movi	r3,111
   46928:	10c00005 	stb	r3,0(r2)
   4692c:	0005883a 	mov	r2,zero
   46930:	00002606 	br	469cc <OSFlagPost+0x380>
   46934:	0001883a 	nop
   46938:	00000506 	br	46950 <OSFlagPost+0x304>
   4693c:	0001883a 	nop
   46940:	00000306 	br	46950 <OSFlagPost+0x304>
   46944:	0001883a 	nop
   46948:	00000106 	br	46950 <OSFlagPost+0x304>
   4694c:	0001883a 	nop
   46950:	e0bff117 	ldw	r2,-60(fp)
   46954:	10800017 	ldw	r2,0(r2)
   46958:	e0bff115 	stw	r2,-60(fp)
   4695c:	e0bff117 	ldw	r2,-60(fp)
   46960:	103f871e 	bne	r2,zero,46780 <__alt_data_end+0xfffe0f80>
   46964:	e0bff317 	ldw	r2,-52(fp)
   46968:	e0bff715 	stw	r2,-36(fp)
   4696c:	e0bff717 	ldw	r2,-36(fp)
   46970:	1001703a 	wrctl	status,r2
   46974:	e0bff203 	ldbu	r2,-56(fp)
   46978:	10800058 	cmpnei	r2,r2,1
   4697c:	1000011e 	bne	r2,zero,46984 <OSFlagPost+0x338>
   46980:	0044f040 	call	44f04 <OS_Sched>
   46984:	0005303a 	rdctl	r2,status
   46988:	e0bffa15 	stw	r2,-24(fp)
   4698c:	e0fffa17 	ldw	r3,-24(fp)
   46990:	00bfff84 	movi	r2,-2
   46994:	1884703a 	and	r2,r3,r2
   46998:	1001703a 	wrctl	status,r2
   4699c:	e0bffa17 	ldw	r2,-24(fp)
   469a0:	e0bff315 	stw	r2,-52(fp)
   469a4:	e0bffc17 	ldw	r2,-16(fp)
   469a8:	1080020b 	ldhu	r2,8(r2)
   469ac:	e0bff90d 	sth	r2,-28(fp)
   469b0:	e0bff317 	ldw	r2,-52(fp)
   469b4:	e0bff815 	stw	r2,-32(fp)
   469b8:	e0bff817 	ldw	r2,-32(fp)
   469bc:	1001703a 	wrctl	status,r2
   469c0:	e0bfff17 	ldw	r2,-4(fp)
   469c4:	10000005 	stb	zero,0(r2)
   469c8:	e0bff90b 	ldhu	r2,-28(fp)
   469cc:	e037883a 	mov	sp,fp
   469d0:	dfc00117 	ldw	ra,4(sp)
   469d4:	df000017 	ldw	fp,0(sp)
   469d8:	dec00204 	addi	sp,sp,8
   469dc:	f800283a 	ret

000469e0 <OSFlagQuery>:
   469e0:	defff904 	addi	sp,sp,-28
   469e4:	df000615 	stw	fp,24(sp)
   469e8:	df000604 	addi	fp,sp,24
   469ec:	e13ffe15 	stw	r4,-8(fp)
   469f0:	e17fff15 	stw	r5,-4(fp)
   469f4:	e03ffa15 	stw	zero,-24(fp)
   469f8:	e0bfff17 	ldw	r2,-4(fp)
   469fc:	1000021e 	bne	r2,zero,46a08 <OSFlagQuery+0x28>
   46a00:	0005883a 	mov	r2,zero
   46a04:	00002306 	br	46a94 <OSFlagQuery+0xb4>
   46a08:	e0bffe17 	ldw	r2,-8(fp)
   46a0c:	1000051e 	bne	r2,zero,46a24 <OSFlagQuery+0x44>
   46a10:	e0bfff17 	ldw	r2,-4(fp)
   46a14:	00c01b84 	movi	r3,110
   46a18:	10c00005 	stb	r3,0(r2)
   46a1c:	0005883a 	mov	r2,zero
   46a20:	00001c06 	br	46a94 <OSFlagQuery+0xb4>
   46a24:	e0bffe17 	ldw	r2,-8(fp)
   46a28:	10800003 	ldbu	r2,0(r2)
   46a2c:	10803fcc 	andi	r2,r2,255
   46a30:	10800160 	cmpeqi	r2,r2,5
   46a34:	1000051e 	bne	r2,zero,46a4c <OSFlagQuery+0x6c>
   46a38:	e0bfff17 	ldw	r2,-4(fp)
   46a3c:	00c00044 	movi	r3,1
   46a40:	10c00005 	stb	r3,0(r2)
   46a44:	0005883a 	mov	r2,zero
   46a48:	00001206 	br	46a94 <OSFlagQuery+0xb4>
   46a4c:	0005303a 	rdctl	r2,status
   46a50:	e0bffc15 	stw	r2,-16(fp)
   46a54:	e0fffc17 	ldw	r3,-16(fp)
   46a58:	00bfff84 	movi	r2,-2
   46a5c:	1884703a 	and	r2,r3,r2
   46a60:	1001703a 	wrctl	status,r2
   46a64:	e0bffc17 	ldw	r2,-16(fp)
   46a68:	e0bffa15 	stw	r2,-24(fp)
   46a6c:	e0bffe17 	ldw	r2,-8(fp)
   46a70:	1080020b 	ldhu	r2,8(r2)
   46a74:	e0bffb0d 	sth	r2,-20(fp)
   46a78:	e0bffa17 	ldw	r2,-24(fp)
   46a7c:	e0bffd15 	stw	r2,-12(fp)
   46a80:	e0bffd17 	ldw	r2,-12(fp)
   46a84:	1001703a 	wrctl	status,r2
   46a88:	e0bfff17 	ldw	r2,-4(fp)
   46a8c:	10000005 	stb	zero,0(r2)
   46a90:	e0bffb0b 	ldhu	r2,-20(fp)
   46a94:	e037883a 	mov	sp,fp
   46a98:	df000017 	ldw	fp,0(sp)
   46a9c:	dec00104 	addi	sp,sp,4
   46aa0:	f800283a 	ret

00046aa4 <OS_FlagBlock>:
   46aa4:	defff804 	addi	sp,sp,-32
   46aa8:	df000715 	stw	fp,28(sp)
   46aac:	df000704 	addi	fp,sp,28
   46ab0:	e13ffb15 	stw	r4,-20(fp)
   46ab4:	e17ffc15 	stw	r5,-16(fp)
   46ab8:	3009883a 	mov	r4,r6
   46abc:	3807883a 	mov	r3,r7
   46ac0:	e0800117 	ldw	r2,4(fp)
   46ac4:	e13ffd0d 	sth	r4,-12(fp)
   46ac8:	e0fffe05 	stb	r3,-8(fp)
   46acc:	e0bfff0d 	sth	r2,-4(fp)
   46ad0:	d0a70917 	ldw	r2,-25564(gp)
   46ad4:	d0e70917 	ldw	r3,-25564(gp)
   46ad8:	18c00c03 	ldbu	r3,48(r3)
   46adc:	18c00814 	ori	r3,r3,32
   46ae0:	10c00c05 	stb	r3,48(r2)
   46ae4:	d0a70917 	ldw	r2,-25564(gp)
   46ae8:	10000c45 	stb	zero,49(r2)
   46aec:	d0a70917 	ldw	r2,-25564(gp)
   46af0:	e0ffff0b 	ldhu	r3,-4(fp)
   46af4:	10c00b8d 	sth	r3,46(r2)
   46af8:	d0a70917 	ldw	r2,-25564(gp)
   46afc:	e0fffc17 	ldw	r3,-16(fp)
   46b00:	10c00a15 	stw	r3,40(r2)
   46b04:	e0bffc17 	ldw	r2,-16(fp)
   46b08:	e0fffd0b 	ldhu	r3,-12(fp)
   46b0c:	10c0040d 	sth	r3,16(r2)
   46b10:	e0bffc17 	ldw	r2,-16(fp)
   46b14:	e0fffe03 	ldbu	r3,-8(fp)
   46b18:	10c00485 	stb	r3,18(r2)
   46b1c:	d0e70917 	ldw	r3,-25564(gp)
   46b20:	e0bffc17 	ldw	r2,-16(fp)
   46b24:	10c00215 	stw	r3,8(r2)
   46b28:	e0bffb17 	ldw	r2,-20(fp)
   46b2c:	10c00117 	ldw	r3,4(r2)
   46b30:	e0bffc17 	ldw	r2,-16(fp)
   46b34:	10c00015 	stw	r3,0(r2)
   46b38:	e0bffc17 	ldw	r2,-16(fp)
   46b3c:	10000115 	stw	zero,4(r2)
   46b40:	e0bffc17 	ldw	r2,-16(fp)
   46b44:	e0fffb17 	ldw	r3,-20(fp)
   46b48:	10c00315 	stw	r3,12(r2)
   46b4c:	e0bffb17 	ldw	r2,-20(fp)
   46b50:	10800117 	ldw	r2,4(r2)
   46b54:	e0bff915 	stw	r2,-28(fp)
   46b58:	e0bff917 	ldw	r2,-28(fp)
   46b5c:	10000326 	beq	r2,zero,46b6c <OS_FlagBlock+0xc8>
   46b60:	e0bff917 	ldw	r2,-28(fp)
   46b64:	e0fffc17 	ldw	r3,-16(fp)
   46b68:	10c00115 	stw	r3,4(r2)
   46b6c:	e0bffb17 	ldw	r2,-20(fp)
   46b70:	e0fffc17 	ldw	r3,-16(fp)
   46b74:	10c00115 	stw	r3,4(r2)
   46b78:	d0a70917 	ldw	r2,-25564(gp)
   46b7c:	10800d03 	ldbu	r2,52(r2)
   46b80:	e0bffa05 	stb	r2,-24(fp)
   46b84:	e0fffa03 	ldbu	r3,-24(fp)
   46b88:	e13ffa03 	ldbu	r4,-24(fp)
   46b8c:	d0a70644 	addi	r2,gp,-25575
   46b90:	2085883a 	add	r2,r4,r2
   46b94:	10800003 	ldbu	r2,0(r2)
   46b98:	1009883a 	mov	r4,r2
   46b9c:	d0a70917 	ldw	r2,-25564(gp)
   46ba0:	10800d43 	ldbu	r2,53(r2)
   46ba4:	0084303a 	nor	r2,zero,r2
   46ba8:	2084703a 	and	r2,r4,r2
   46bac:	1009883a 	mov	r4,r2
   46bb0:	d0a70644 	addi	r2,gp,-25575
   46bb4:	1885883a 	add	r2,r3,r2
   46bb8:	11000005 	stb	r4,0(r2)
   46bbc:	e0fffa03 	ldbu	r3,-24(fp)
   46bc0:	d0a70644 	addi	r2,gp,-25575
   46bc4:	1885883a 	add	r2,r3,r2
   46bc8:	10800003 	ldbu	r2,0(r2)
   46bcc:	10803fcc 	andi	r2,r2,255
   46bd0:	1000071e 	bne	r2,zero,46bf0 <OS_FlagBlock+0x14c>
   46bd4:	d0a70917 	ldw	r2,-25564(gp)
   46bd8:	10800d83 	ldbu	r2,54(r2)
   46bdc:	0084303a 	nor	r2,zero,r2
   46be0:	1007883a 	mov	r3,r2
   46be4:	d0a70603 	ldbu	r2,-25576(gp)
   46be8:	1884703a 	and	r2,r3,r2
   46bec:	d0a70605 	stb	r2,-25576(gp)
   46bf0:	0001883a 	nop
   46bf4:	e037883a 	mov	sp,fp
   46bf8:	df000017 	ldw	fp,0(sp)
   46bfc:	dec00104 	addi	sp,sp,4
   46c00:	f800283a 	ret

00046c04 <OS_FlagInit>:
   46c04:	defffb04 	addi	sp,sp,-20
   46c08:	dfc00415 	stw	ra,16(sp)
   46c0c:	df000315 	stw	fp,12(sp)
   46c10:	df000304 	addi	fp,sp,12
   46c14:	0140dc04 	movi	r5,880
   46c18:	01000174 	movhi	r4,5
   46c1c:	210add04 	addi	r4,r4,11124
   46c20:	0044e480 	call	44e48 <OS_MemClr>
   46c24:	00800174 	movhi	r2,5
   46c28:	108add04 	addi	r2,r2,11124
   46c2c:	e0bffe15 	stw	r2,-8(fp)
   46c30:	00800174 	movhi	r2,5
   46c34:	108ae804 	addi	r2,r2,11168
   46c38:	e0bfff15 	stw	r2,-4(fp)
   46c3c:	e03ffd0d 	sth	zero,-12(fp)
   46c40:	00001306 	br	46c90 <OS_FlagInit+0x8c>
   46c44:	e0bffe17 	ldw	r2,-8(fp)
   46c48:	10000005 	stb	zero,0(r2)
   46c4c:	e0bffe17 	ldw	r2,-8(fp)
   46c50:	e0ffff17 	ldw	r3,-4(fp)
   46c54:	10c00115 	stw	r3,4(r2)
   46c58:	e0bffe17 	ldw	r2,-8(fp)
   46c5c:	00c00fc4 	movi	r3,63
   46c60:	10c00285 	stb	r3,10(r2)
   46c64:	e0bffe17 	ldw	r2,-8(fp)
   46c68:	100002c5 	stb	zero,11(r2)
   46c6c:	e0bffe17 	ldw	r2,-8(fp)
   46c70:	10800b04 	addi	r2,r2,44
   46c74:	e0bffe15 	stw	r2,-8(fp)
   46c78:	e0bfff17 	ldw	r2,-4(fp)
   46c7c:	10800b04 	addi	r2,r2,44
   46c80:	e0bfff15 	stw	r2,-4(fp)
   46c84:	e0bffd0b 	ldhu	r2,-12(fp)
   46c88:	10800044 	addi	r2,r2,1
   46c8c:	e0bffd0d 	sth	r2,-12(fp)
   46c90:	e0bffd0b 	ldhu	r2,-12(fp)
   46c94:	108004f0 	cmpltui	r2,r2,19
   46c98:	103fea1e 	bne	r2,zero,46c44 <__alt_data_end+0xfffe1444>
   46c9c:	e0bffe17 	ldw	r2,-8(fp)
   46ca0:	10000005 	stb	zero,0(r2)
   46ca4:	e0bffe17 	ldw	r2,-8(fp)
   46ca8:	10000115 	stw	zero,4(r2)
   46cac:	e0bffe17 	ldw	r2,-8(fp)
   46cb0:	00c00fc4 	movi	r3,63
   46cb4:	10c00285 	stb	r3,10(r2)
   46cb8:	e0bffe17 	ldw	r2,-8(fp)
   46cbc:	100002c5 	stb	zero,11(r2)
   46cc0:	00800174 	movhi	r2,5
   46cc4:	108add04 	addi	r2,r2,11124
   46cc8:	d0a70b15 	stw	r2,-25556(gp)
   46ccc:	0001883a 	nop
   46cd0:	e037883a 	mov	sp,fp
   46cd4:	dfc00117 	ldw	ra,4(sp)
   46cd8:	df000017 	ldw	fp,0(sp)
   46cdc:	dec00204 	addi	sp,sp,8
   46ce0:	f800283a 	ret

00046ce4 <OS_FlagTaskRdy>:
   46ce4:	defffa04 	addi	sp,sp,-24
   46ce8:	dfc00515 	stw	ra,20(sp)
   46cec:	df000415 	stw	fp,16(sp)
   46cf0:	df000404 	addi	fp,sp,16
   46cf4:	e13ffe15 	stw	r4,-8(fp)
   46cf8:	2805883a 	mov	r2,r5
   46cfc:	e0bfff0d 	sth	r2,-4(fp)
   46d00:	e0bffe17 	ldw	r2,-8(fp)
   46d04:	10800217 	ldw	r2,8(r2)
   46d08:	e0bffd15 	stw	r2,-12(fp)
   46d0c:	e0bffd17 	ldw	r2,-12(fp)
   46d10:	10000b8d 	sth	zero,46(r2)
   46d14:	e0bffd17 	ldw	r2,-12(fp)
   46d18:	e0ffff0b 	ldhu	r3,-4(fp)
   46d1c:	10c00b0d 	sth	r3,44(r2)
   46d20:	e0bffd17 	ldw	r2,-12(fp)
   46d24:	10c00c03 	ldbu	r3,48(r2)
   46d28:	00bff7c4 	movi	r2,-33
   46d2c:	1884703a 	and	r2,r3,r2
   46d30:	1007883a 	mov	r3,r2
   46d34:	e0bffd17 	ldw	r2,-12(fp)
   46d38:	10c00c05 	stb	r3,48(r2)
   46d3c:	e0bffd17 	ldw	r2,-12(fp)
   46d40:	10000c45 	stb	zero,49(r2)
   46d44:	e0bffd17 	ldw	r2,-12(fp)
   46d48:	10800c03 	ldbu	r2,48(r2)
   46d4c:	10803fcc 	andi	r2,r2,255
   46d50:	1000181e 	bne	r2,zero,46db4 <OS_FlagTaskRdy+0xd0>
   46d54:	e0bffd17 	ldw	r2,-12(fp)
   46d58:	10c00d83 	ldbu	r3,54(r2)
   46d5c:	d0a70603 	ldbu	r2,-25576(gp)
   46d60:	1884b03a 	or	r2,r3,r2
   46d64:	d0a70605 	stb	r2,-25576(gp)
   46d68:	e0bffd17 	ldw	r2,-12(fp)
   46d6c:	10800d03 	ldbu	r2,52(r2)
   46d70:	10c03fcc 	andi	r3,r2,255
   46d74:	e0bffd17 	ldw	r2,-12(fp)
   46d78:	10800d03 	ldbu	r2,52(r2)
   46d7c:	11003fcc 	andi	r4,r2,255
   46d80:	d0a70644 	addi	r2,gp,-25575
   46d84:	2085883a 	add	r2,r4,r2
   46d88:	11000003 	ldbu	r4,0(r2)
   46d8c:	e0bffd17 	ldw	r2,-12(fp)
   46d90:	10800d43 	ldbu	r2,53(r2)
   46d94:	2084b03a 	or	r2,r4,r2
   46d98:	1009883a 	mov	r4,r2
   46d9c:	d0a70644 	addi	r2,gp,-25575
   46da0:	1885883a 	add	r2,r3,r2
   46da4:	11000005 	stb	r4,0(r2)
   46da8:	00800044 	movi	r2,1
   46dac:	e0bffc05 	stb	r2,-16(fp)
   46db0:	00000106 	br	46db8 <OS_FlagTaskRdy+0xd4>
   46db4:	e03ffc05 	stb	zero,-16(fp)
   46db8:	e13ffe17 	ldw	r4,-8(fp)
   46dbc:	0046dd80 	call	46dd8 <OS_FlagUnlink>
   46dc0:	e0bffc03 	ldbu	r2,-16(fp)
   46dc4:	e037883a 	mov	sp,fp
   46dc8:	dfc00117 	ldw	ra,4(sp)
   46dcc:	df000017 	ldw	fp,0(sp)
   46dd0:	dec00204 	addi	sp,sp,8
   46dd4:	f800283a 	ret

00046dd8 <OS_FlagUnlink>:
   46dd8:	defffa04 	addi	sp,sp,-24
   46ddc:	df000515 	stw	fp,20(sp)
   46de0:	df000504 	addi	fp,sp,20
   46de4:	e13fff15 	stw	r4,-4(fp)
   46de8:	e0bfff17 	ldw	r2,-4(fp)
   46dec:	10800117 	ldw	r2,4(r2)
   46df0:	e0bffb15 	stw	r2,-20(fp)
   46df4:	e0bfff17 	ldw	r2,-4(fp)
   46df8:	10800017 	ldw	r2,0(r2)
   46dfc:	e0bffc15 	stw	r2,-16(fp)
   46e00:	e0bffb17 	ldw	r2,-20(fp)
   46e04:	10000b1e 	bne	r2,zero,46e34 <OS_FlagUnlink+0x5c>
   46e08:	e0bfff17 	ldw	r2,-4(fp)
   46e0c:	10800317 	ldw	r2,12(r2)
   46e10:	e0bffd15 	stw	r2,-12(fp)
   46e14:	e0bffd17 	ldw	r2,-12(fp)
   46e18:	e0fffc17 	ldw	r3,-16(fp)
   46e1c:	10c00115 	stw	r3,4(r2)
   46e20:	e0bffc17 	ldw	r2,-16(fp)
   46e24:	10000b26 	beq	r2,zero,46e54 <OS_FlagUnlink+0x7c>
   46e28:	e0bffc17 	ldw	r2,-16(fp)
   46e2c:	10000115 	stw	zero,4(r2)
   46e30:	00000806 	br	46e54 <OS_FlagUnlink+0x7c>
   46e34:	e0bffb17 	ldw	r2,-20(fp)
   46e38:	e0fffc17 	ldw	r3,-16(fp)
   46e3c:	10c00015 	stw	r3,0(r2)
   46e40:	e0bffc17 	ldw	r2,-16(fp)
   46e44:	10000326 	beq	r2,zero,46e54 <OS_FlagUnlink+0x7c>
   46e48:	e0bffc17 	ldw	r2,-16(fp)
   46e4c:	e0fffb17 	ldw	r3,-20(fp)
   46e50:	10c00115 	stw	r3,4(r2)
   46e54:	e0bfff17 	ldw	r2,-4(fp)
   46e58:	10800217 	ldw	r2,8(r2)
   46e5c:	e0bffe15 	stw	r2,-8(fp)
   46e60:	e0bffe17 	ldw	r2,-8(fp)
   46e64:	10000a15 	stw	zero,40(r2)
   46e68:	0001883a 	nop
   46e6c:	e037883a 	mov	sp,fp
   46e70:	df000017 	ldw	fp,0(sp)
   46e74:	dec00104 	addi	sp,sp,4
   46e78:	f800283a 	ret

00046e7c <OSMemCreate>:
   46e7c:	defff404 	addi	sp,sp,-48
   46e80:	df000b15 	stw	fp,44(sp)
   46e84:	df000b04 	addi	fp,sp,44
   46e88:	e13ffc15 	stw	r4,-16(fp)
   46e8c:	e17ffd15 	stw	r5,-12(fp)
   46e90:	e1bffe15 	stw	r6,-8(fp)
   46e94:	e1ffff15 	stw	r7,-4(fp)
   46e98:	e03ff815 	stw	zero,-32(fp)
   46e9c:	e0bfff17 	ldw	r2,-4(fp)
   46ea0:	1000021e 	bne	r2,zero,46eac <OSMemCreate+0x30>
   46ea4:	0005883a 	mov	r2,zero
   46ea8:	00006506 	br	47040 <OSMemCreate+0x1c4>
   46eac:	e0bffc17 	ldw	r2,-16(fp)
   46eb0:	1000051e 	bne	r2,zero,46ec8 <OSMemCreate+0x4c>
   46eb4:	e0bfff17 	ldw	r2,-4(fp)
   46eb8:	00c01884 	movi	r3,98
   46ebc:	10c00005 	stb	r3,0(r2)
   46ec0:	0005883a 	mov	r2,zero
   46ec4:	00005e06 	br	47040 <OSMemCreate+0x1c4>
   46ec8:	e0bffc17 	ldw	r2,-16(fp)
   46ecc:	108000cc 	andi	r2,r2,3
   46ed0:	10000526 	beq	r2,zero,46ee8 <OSMemCreate+0x6c>
   46ed4:	e0bfff17 	ldw	r2,-4(fp)
   46ed8:	00c01884 	movi	r3,98
   46edc:	10c00005 	stb	r3,0(r2)
   46ee0:	0005883a 	mov	r2,zero
   46ee4:	00005606 	br	47040 <OSMemCreate+0x1c4>
   46ee8:	e0bffd17 	ldw	r2,-12(fp)
   46eec:	108000a8 	cmpgeui	r2,r2,2
   46ef0:	1000051e 	bne	r2,zero,46f08 <OSMemCreate+0x8c>
   46ef4:	e0bfff17 	ldw	r2,-4(fp)
   46ef8:	00c016c4 	movi	r3,91
   46efc:	10c00005 	stb	r3,0(r2)
   46f00:	0005883a 	mov	r2,zero
   46f04:	00004e06 	br	47040 <OSMemCreate+0x1c4>
   46f08:	e0bffe17 	ldw	r2,-8(fp)
   46f0c:	10800128 	cmpgeui	r2,r2,4
   46f10:	1000051e 	bne	r2,zero,46f28 <OSMemCreate+0xac>
   46f14:	e0bfff17 	ldw	r2,-4(fp)
   46f18:	00c01704 	movi	r3,92
   46f1c:	10c00005 	stb	r3,0(r2)
   46f20:	0005883a 	mov	r2,zero
   46f24:	00004606 	br	47040 <OSMemCreate+0x1c4>
   46f28:	0005303a 	rdctl	r2,status
   46f2c:	e0bffb15 	stw	r2,-20(fp)
   46f30:	e0fffb17 	ldw	r3,-20(fp)
   46f34:	00bfff84 	movi	r2,-2
   46f38:	1884703a 	and	r2,r3,r2
   46f3c:	1001703a 	wrctl	status,r2
   46f40:	e0bffb17 	ldw	r2,-20(fp)
   46f44:	e0bff815 	stw	r2,-32(fp)
   46f48:	d0a70317 	ldw	r2,-25588(gp)
   46f4c:	e0bffa15 	stw	r2,-24(fp)
   46f50:	d0a70317 	ldw	r2,-25588(gp)
   46f54:	10000326 	beq	r2,zero,46f64 <OSMemCreate+0xe8>
   46f58:	d0a70317 	ldw	r2,-25588(gp)
   46f5c:	10800117 	ldw	r2,4(r2)
   46f60:	d0a70315 	stw	r2,-25588(gp)
   46f64:	e0bff817 	ldw	r2,-32(fp)
   46f68:	e0bff915 	stw	r2,-28(fp)
   46f6c:	e0bff917 	ldw	r2,-28(fp)
   46f70:	1001703a 	wrctl	status,r2
   46f74:	e0bffa17 	ldw	r2,-24(fp)
   46f78:	1000051e 	bne	r2,zero,46f90 <OSMemCreate+0x114>
   46f7c:	e0bfff17 	ldw	r2,-4(fp)
   46f80:	00c01684 	movi	r3,90
   46f84:	10c00005 	stb	r3,0(r2)
   46f88:	0005883a 	mov	r2,zero
   46f8c:	00002c06 	br	47040 <OSMemCreate+0x1c4>
   46f90:	e0bffc17 	ldw	r2,-16(fp)
   46f94:	e0bff615 	stw	r2,-40(fp)
   46f98:	e0fffc17 	ldw	r3,-16(fp)
   46f9c:	e0bffe17 	ldw	r2,-8(fp)
   46fa0:	1885883a 	add	r2,r3,r2
   46fa4:	e0bff515 	stw	r2,-44(fp)
   46fa8:	e03ff715 	stw	zero,-36(fp)
   46fac:	00000c06 	br	46fe0 <OSMemCreate+0x164>
   46fb0:	e0bff617 	ldw	r2,-40(fp)
   46fb4:	e0fff517 	ldw	r3,-44(fp)
   46fb8:	10c00015 	stw	r3,0(r2)
   46fbc:	e0bff517 	ldw	r2,-44(fp)
   46fc0:	e0bff615 	stw	r2,-40(fp)
   46fc4:	e0fff517 	ldw	r3,-44(fp)
   46fc8:	e0bffe17 	ldw	r2,-8(fp)
   46fcc:	1885883a 	add	r2,r3,r2
   46fd0:	e0bff515 	stw	r2,-44(fp)
   46fd4:	e0bff717 	ldw	r2,-36(fp)
   46fd8:	10800044 	addi	r2,r2,1
   46fdc:	e0bff715 	stw	r2,-36(fp)
   46fe0:	e0bffd17 	ldw	r2,-12(fp)
   46fe4:	10bfffc4 	addi	r2,r2,-1
   46fe8:	e0fff717 	ldw	r3,-36(fp)
   46fec:	18bff036 	bltu	r3,r2,46fb0 <__alt_data_end+0xfffe17b0>
   46ff0:	e0bff617 	ldw	r2,-40(fp)
   46ff4:	10000015 	stw	zero,0(r2)
   46ff8:	e0bffa17 	ldw	r2,-24(fp)
   46ffc:	e0fffc17 	ldw	r3,-16(fp)
   47000:	10c00015 	stw	r3,0(r2)
   47004:	e0bffa17 	ldw	r2,-24(fp)
   47008:	e0fffc17 	ldw	r3,-16(fp)
   4700c:	10c00115 	stw	r3,4(r2)
   47010:	e0bffa17 	ldw	r2,-24(fp)
   47014:	e0fffd17 	ldw	r3,-12(fp)
   47018:	10c00415 	stw	r3,16(r2)
   4701c:	e0bffa17 	ldw	r2,-24(fp)
   47020:	e0fffd17 	ldw	r3,-12(fp)
   47024:	10c00315 	stw	r3,12(r2)
   47028:	e0bffa17 	ldw	r2,-24(fp)
   4702c:	e0fffe17 	ldw	r3,-8(fp)
   47030:	10c00215 	stw	r3,8(r2)
   47034:	e0bfff17 	ldw	r2,-4(fp)
   47038:	10000005 	stb	zero,0(r2)
   4703c:	e0bffa17 	ldw	r2,-24(fp)
   47040:	e037883a 	mov	sp,fp
   47044:	df000017 	ldw	fp,0(sp)
   47048:	dec00104 	addi	sp,sp,4
   4704c:	f800283a 	ret

00047050 <OSMemGet>:
   47050:	defff804 	addi	sp,sp,-32
   47054:	df000715 	stw	fp,28(sp)
   47058:	df000704 	addi	fp,sp,28
   4705c:	e13ffe15 	stw	r4,-8(fp)
   47060:	e17fff15 	stw	r5,-4(fp)
   47064:	e03ff915 	stw	zero,-28(fp)
   47068:	e0bfff17 	ldw	r2,-4(fp)
   4706c:	1000021e 	bne	r2,zero,47078 <OSMemGet+0x28>
   47070:	0005883a 	mov	r2,zero
   47074:	00002e06 	br	47130 <OSMemGet+0xe0>
   47078:	e0bffe17 	ldw	r2,-8(fp)
   4707c:	1000051e 	bne	r2,zero,47094 <OSMemGet+0x44>
   47080:	e0bfff17 	ldw	r2,-4(fp)
   47084:	00c01804 	movi	r3,96
   47088:	10c00005 	stb	r3,0(r2)
   4708c:	0005883a 	mov	r2,zero
   47090:	00002706 	br	47130 <OSMemGet+0xe0>
   47094:	0005303a 	rdctl	r2,status
   47098:	e0bffd15 	stw	r2,-12(fp)
   4709c:	e0fffd17 	ldw	r3,-12(fp)
   470a0:	00bfff84 	movi	r2,-2
   470a4:	1884703a 	and	r2,r3,r2
   470a8:	1001703a 	wrctl	status,r2
   470ac:	e0bffd17 	ldw	r2,-12(fp)
   470b0:	e0bff915 	stw	r2,-28(fp)
   470b4:	e0bffe17 	ldw	r2,-8(fp)
   470b8:	10800417 	ldw	r2,16(r2)
   470bc:	10001426 	beq	r2,zero,47110 <OSMemGet+0xc0>
   470c0:	e0bffe17 	ldw	r2,-8(fp)
   470c4:	10800117 	ldw	r2,4(r2)
   470c8:	e0bffb15 	stw	r2,-20(fp)
   470cc:	e0bffb17 	ldw	r2,-20(fp)
   470d0:	10c00017 	ldw	r3,0(r2)
   470d4:	e0bffe17 	ldw	r2,-8(fp)
   470d8:	10c00115 	stw	r3,4(r2)
   470dc:	e0bffe17 	ldw	r2,-8(fp)
   470e0:	10800417 	ldw	r2,16(r2)
   470e4:	10ffffc4 	addi	r3,r2,-1
   470e8:	e0bffe17 	ldw	r2,-8(fp)
   470ec:	10c00415 	stw	r3,16(r2)
   470f0:	e0bff917 	ldw	r2,-28(fp)
   470f4:	e0bffa15 	stw	r2,-24(fp)
   470f8:	e0bffa17 	ldw	r2,-24(fp)
   470fc:	1001703a 	wrctl	status,r2
   47100:	e0bfff17 	ldw	r2,-4(fp)
   47104:	10000005 	stb	zero,0(r2)
   47108:	e0bffb17 	ldw	r2,-20(fp)
   4710c:	00000806 	br	47130 <OSMemGet+0xe0>
   47110:	e0bff917 	ldw	r2,-28(fp)
   47114:	e0bffc15 	stw	r2,-16(fp)
   47118:	e0bffc17 	ldw	r2,-16(fp)
   4711c:	1001703a 	wrctl	status,r2
   47120:	e0bfff17 	ldw	r2,-4(fp)
   47124:	00c01744 	movi	r3,93
   47128:	10c00005 	stb	r3,0(r2)
   4712c:	0005883a 	mov	r2,zero
   47130:	e037883a 	mov	sp,fp
   47134:	df000017 	ldw	fp,0(sp)
   47138:	dec00104 	addi	sp,sp,4
   4713c:	f800283a 	ret

00047140 <OSMemNameGet>:
   47140:	defff704 	addi	sp,sp,-36
   47144:	dfc00815 	stw	ra,32(sp)
   47148:	df000715 	stw	fp,28(sp)
   4714c:	df000704 	addi	fp,sp,28
   47150:	e13ffd15 	stw	r4,-12(fp)
   47154:	e17ffe15 	stw	r5,-8(fp)
   47158:	e1bfff15 	stw	r6,-4(fp)
   4715c:	e03ff915 	stw	zero,-28(fp)
   47160:	e0bfff17 	ldw	r2,-4(fp)
   47164:	1000021e 	bne	r2,zero,47170 <OSMemNameGet+0x30>
   47168:	0005883a 	mov	r2,zero
   4716c:	00002b06 	br	4721c <OSMemNameGet+0xdc>
   47170:	e0bffd17 	ldw	r2,-12(fp)
   47174:	1000051e 	bne	r2,zero,4718c <OSMemNameGet+0x4c>
   47178:	e0bfff17 	ldw	r2,-4(fp)
   4717c:	00c01804 	movi	r3,96
   47180:	10c00005 	stb	r3,0(r2)
   47184:	0005883a 	mov	r2,zero
   47188:	00002406 	br	4721c <OSMemNameGet+0xdc>
   4718c:	e0bffe17 	ldw	r2,-8(fp)
   47190:	1000051e 	bne	r2,zero,471a8 <OSMemNameGet+0x68>
   47194:	e0bfff17 	ldw	r2,-4(fp)
   47198:	00c00304 	movi	r3,12
   4719c:	10c00005 	stb	r3,0(r2)
   471a0:	0005883a 	mov	r2,zero
   471a4:	00001d06 	br	4721c <OSMemNameGet+0xdc>
   471a8:	d0a70803 	ldbu	r2,-25568(gp)
   471ac:	10803fcc 	andi	r2,r2,255
   471b0:	10000526 	beq	r2,zero,471c8 <OSMemNameGet+0x88>
   471b4:	e0bfff17 	ldw	r2,-4(fp)
   471b8:	00c00444 	movi	r3,17
   471bc:	10c00005 	stb	r3,0(r2)
   471c0:	0005883a 	mov	r2,zero
   471c4:	00001506 	br	4721c <OSMemNameGet+0xdc>
   471c8:	0005303a 	rdctl	r2,status
   471cc:	e0bffb15 	stw	r2,-20(fp)
   471d0:	e0fffb17 	ldw	r3,-20(fp)
   471d4:	00bfff84 	movi	r2,-2
   471d8:	1884703a 	and	r2,r3,r2
   471dc:	1001703a 	wrctl	status,r2
   471e0:	e0bffb17 	ldw	r2,-20(fp)
   471e4:	e0bff915 	stw	r2,-28(fp)
   471e8:	e0bffd17 	ldw	r2,-12(fp)
   471ec:	10800504 	addi	r2,r2,20
   471f0:	100b883a 	mov	r5,r2
   471f4:	e13ffe17 	ldw	r4,-8(fp)
   471f8:	00450480 	call	45048 <OS_StrCopy>
   471fc:	e0bffa05 	stb	r2,-24(fp)
   47200:	e0bff917 	ldw	r2,-28(fp)
   47204:	e0bffc15 	stw	r2,-16(fp)
   47208:	e0bffc17 	ldw	r2,-16(fp)
   4720c:	1001703a 	wrctl	status,r2
   47210:	e0bfff17 	ldw	r2,-4(fp)
   47214:	10000005 	stb	zero,0(r2)
   47218:	e0bffa03 	ldbu	r2,-24(fp)
   4721c:	e037883a 	mov	sp,fp
   47220:	dfc00117 	ldw	ra,4(sp)
   47224:	df000017 	ldw	fp,0(sp)
   47228:	dec00204 	addi	sp,sp,8
   4722c:	f800283a 	ret

00047230 <OSMemNameSet>:
   47230:	defff604 	addi	sp,sp,-40
   47234:	dfc00915 	stw	ra,36(sp)
   47238:	df000815 	stw	fp,32(sp)
   4723c:	df000804 	addi	fp,sp,32
   47240:	e13ffd15 	stw	r4,-12(fp)
   47244:	e17ffe15 	stw	r5,-8(fp)
   47248:	e1bfff15 	stw	r6,-4(fp)
   4724c:	e03ff815 	stw	zero,-32(fp)
   47250:	e0bfff17 	ldw	r2,-4(fp)
   47254:	10003526 	beq	r2,zero,4732c <OSMemNameSet+0xfc>
   47258:	e0bffd17 	ldw	r2,-12(fp)
   4725c:	1000041e 	bne	r2,zero,47270 <OSMemNameSet+0x40>
   47260:	e0bfff17 	ldw	r2,-4(fp)
   47264:	00c01804 	movi	r3,96
   47268:	10c00005 	stb	r3,0(r2)
   4726c:	00003006 	br	47330 <OSMemNameSet+0x100>
   47270:	e0bffe17 	ldw	r2,-8(fp)
   47274:	1000041e 	bne	r2,zero,47288 <OSMemNameSet+0x58>
   47278:	e0bfff17 	ldw	r2,-4(fp)
   4727c:	00c00304 	movi	r3,12
   47280:	10c00005 	stb	r3,0(r2)
   47284:	00002a06 	br	47330 <OSMemNameSet+0x100>
   47288:	d0a70803 	ldbu	r2,-25568(gp)
   4728c:	10803fcc 	andi	r2,r2,255
   47290:	10000426 	beq	r2,zero,472a4 <OSMemNameSet+0x74>
   47294:	e0bfff17 	ldw	r2,-4(fp)
   47298:	00c00484 	movi	r3,18
   4729c:	10c00005 	stb	r3,0(r2)
   472a0:	00002306 	br	47330 <OSMemNameSet+0x100>
   472a4:	0005303a 	rdctl	r2,status
   472a8:	e0bffc15 	stw	r2,-16(fp)
   472ac:	e0fffc17 	ldw	r3,-16(fp)
   472b0:	00bfff84 	movi	r2,-2
   472b4:	1884703a 	and	r2,r3,r2
   472b8:	1001703a 	wrctl	status,r2
   472bc:	e0bffc17 	ldw	r2,-16(fp)
   472c0:	e0bff815 	stw	r2,-32(fp)
   472c4:	e13ffe17 	ldw	r4,-8(fp)
   472c8:	00450bc0 	call	450bc <OS_StrLen>
   472cc:	e0bffa05 	stb	r2,-24(fp)
   472d0:	e0bffa03 	ldbu	r2,-24(fp)
   472d4:	10800830 	cmpltui	r2,r2,32
   472d8:	1000081e 	bne	r2,zero,472fc <OSMemNameSet+0xcc>
   472dc:	e0bff817 	ldw	r2,-32(fp)
   472e0:	e0bff915 	stw	r2,-28(fp)
   472e4:	e0bff917 	ldw	r2,-28(fp)
   472e8:	1001703a 	wrctl	status,r2
   472ec:	e0bfff17 	ldw	r2,-4(fp)
   472f0:	00c018c4 	movi	r3,99
   472f4:	10c00005 	stb	r3,0(r2)
   472f8:	00000d06 	br	47330 <OSMemNameSet+0x100>
   472fc:	e0bffd17 	ldw	r2,-12(fp)
   47300:	10800504 	addi	r2,r2,20
   47304:	e17ffe17 	ldw	r5,-8(fp)
   47308:	1009883a 	mov	r4,r2
   4730c:	00450480 	call	45048 <OS_StrCopy>
   47310:	e0bff817 	ldw	r2,-32(fp)
   47314:	e0bffb15 	stw	r2,-20(fp)
   47318:	e0bffb17 	ldw	r2,-20(fp)
   4731c:	1001703a 	wrctl	status,r2
   47320:	e0bfff17 	ldw	r2,-4(fp)
   47324:	10000005 	stb	zero,0(r2)
   47328:	00000106 	br	47330 <OSMemNameSet+0x100>
   4732c:	0001883a 	nop
   47330:	e037883a 	mov	sp,fp
   47334:	dfc00117 	ldw	ra,4(sp)
   47338:	df000017 	ldw	fp,0(sp)
   4733c:	dec00204 	addi	sp,sp,8
   47340:	f800283a 	ret

00047344 <OSMemPut>:
   47344:	defff904 	addi	sp,sp,-28
   47348:	df000615 	stw	fp,24(sp)
   4734c:	df000604 	addi	fp,sp,24
   47350:	e13ffe15 	stw	r4,-8(fp)
   47354:	e17fff15 	stw	r5,-4(fp)
   47358:	e03ffa15 	stw	zero,-24(fp)
   4735c:	e0bffe17 	ldw	r2,-8(fp)
   47360:	1000021e 	bne	r2,zero,4736c <OSMemPut+0x28>
   47364:	00801804 	movi	r2,96
   47368:	00002806 	br	4740c <OSMemPut+0xc8>
   4736c:	e0bfff17 	ldw	r2,-4(fp)
   47370:	1000021e 	bne	r2,zero,4737c <OSMemPut+0x38>
   47374:	008017c4 	movi	r2,95
   47378:	00002406 	br	4740c <OSMemPut+0xc8>
   4737c:	0005303a 	rdctl	r2,status
   47380:	e0bffd15 	stw	r2,-12(fp)
   47384:	e0fffd17 	ldw	r3,-12(fp)
   47388:	00bfff84 	movi	r2,-2
   4738c:	1884703a 	and	r2,r3,r2
   47390:	1001703a 	wrctl	status,r2
   47394:	e0bffd17 	ldw	r2,-12(fp)
   47398:	e0bffa15 	stw	r2,-24(fp)
   4739c:	e0bffe17 	ldw	r2,-8(fp)
   473a0:	10c00417 	ldw	r3,16(r2)
   473a4:	e0bffe17 	ldw	r2,-8(fp)
   473a8:	10800317 	ldw	r2,12(r2)
   473ac:	18800636 	bltu	r3,r2,473c8 <OSMemPut+0x84>
   473b0:	e0bffa17 	ldw	r2,-24(fp)
   473b4:	e0bffb15 	stw	r2,-20(fp)
   473b8:	e0bffb17 	ldw	r2,-20(fp)
   473bc:	1001703a 	wrctl	status,r2
   473c0:	00801784 	movi	r2,94
   473c4:	00001106 	br	4740c <OSMemPut+0xc8>
   473c8:	e0bffe17 	ldw	r2,-8(fp)
   473cc:	10c00117 	ldw	r3,4(r2)
   473d0:	e0bfff17 	ldw	r2,-4(fp)
   473d4:	10c00015 	stw	r3,0(r2)
   473d8:	e0bffe17 	ldw	r2,-8(fp)
   473dc:	e0ffff17 	ldw	r3,-4(fp)
   473e0:	10c00115 	stw	r3,4(r2)
   473e4:	e0bffe17 	ldw	r2,-8(fp)
   473e8:	10800417 	ldw	r2,16(r2)
   473ec:	10c00044 	addi	r3,r2,1
   473f0:	e0bffe17 	ldw	r2,-8(fp)
   473f4:	10c00415 	stw	r3,16(r2)
   473f8:	e0bffa17 	ldw	r2,-24(fp)
   473fc:	e0bffc15 	stw	r2,-16(fp)
   47400:	e0bffc17 	ldw	r2,-16(fp)
   47404:	1001703a 	wrctl	status,r2
   47408:	0005883a 	mov	r2,zero
   4740c:	e037883a 	mov	sp,fp
   47410:	df000017 	ldw	fp,0(sp)
   47414:	dec00104 	addi	sp,sp,4
   47418:	f800283a 	ret

0004741c <OSMemQuery>:
   4741c:	defffa04 	addi	sp,sp,-24
   47420:	df000515 	stw	fp,20(sp)
   47424:	df000504 	addi	fp,sp,20
   47428:	e13ffe15 	stw	r4,-8(fp)
   4742c:	e17fff15 	stw	r5,-4(fp)
   47430:	e03ffb15 	stw	zero,-20(fp)
   47434:	e0bffe17 	ldw	r2,-8(fp)
   47438:	1000021e 	bne	r2,zero,47444 <OSMemQuery+0x28>
   4743c:	00801804 	movi	r2,96
   47440:	00002c06 	br	474f4 <OSMemQuery+0xd8>
   47444:	e0bfff17 	ldw	r2,-4(fp)
   47448:	1000021e 	bne	r2,zero,47454 <OSMemQuery+0x38>
   4744c:	00801844 	movi	r2,97
   47450:	00002806 	br	474f4 <OSMemQuery+0xd8>
   47454:	0005303a 	rdctl	r2,status
   47458:	e0bffc15 	stw	r2,-16(fp)
   4745c:	e0fffc17 	ldw	r3,-16(fp)
   47460:	00bfff84 	movi	r2,-2
   47464:	1884703a 	and	r2,r3,r2
   47468:	1001703a 	wrctl	status,r2
   4746c:	e0bffc17 	ldw	r2,-16(fp)
   47470:	e0bffb15 	stw	r2,-20(fp)
   47474:	e0bffe17 	ldw	r2,-8(fp)
   47478:	10c00017 	ldw	r3,0(r2)
   4747c:	e0bfff17 	ldw	r2,-4(fp)
   47480:	10c00015 	stw	r3,0(r2)
   47484:	e0bffe17 	ldw	r2,-8(fp)
   47488:	10c00117 	ldw	r3,4(r2)
   4748c:	e0bfff17 	ldw	r2,-4(fp)
   47490:	10c00115 	stw	r3,4(r2)
   47494:	e0bffe17 	ldw	r2,-8(fp)
   47498:	10c00217 	ldw	r3,8(r2)
   4749c:	e0bfff17 	ldw	r2,-4(fp)
   474a0:	10c00215 	stw	r3,8(r2)
   474a4:	e0bffe17 	ldw	r2,-8(fp)
   474a8:	10c00317 	ldw	r3,12(r2)
   474ac:	e0bfff17 	ldw	r2,-4(fp)
   474b0:	10c00315 	stw	r3,12(r2)
   474b4:	e0bffe17 	ldw	r2,-8(fp)
   474b8:	10c00417 	ldw	r3,16(r2)
   474bc:	e0bfff17 	ldw	r2,-4(fp)
   474c0:	10c00415 	stw	r3,16(r2)
   474c4:	e0bffb17 	ldw	r2,-20(fp)
   474c8:	e0bffd15 	stw	r2,-12(fp)
   474cc:	e0bffd17 	ldw	r2,-12(fp)
   474d0:	1001703a 	wrctl	status,r2
   474d4:	e0bfff17 	ldw	r2,-4(fp)
   474d8:	10c00317 	ldw	r3,12(r2)
   474dc:	e0bfff17 	ldw	r2,-4(fp)
   474e0:	10800417 	ldw	r2,16(r2)
   474e4:	1887c83a 	sub	r3,r3,r2
   474e8:	e0bfff17 	ldw	r2,-4(fp)
   474ec:	10c00515 	stw	r3,20(r2)
   474f0:	0005883a 	mov	r2,zero
   474f4:	e037883a 	mov	sp,fp
   474f8:	df000017 	ldw	fp,0(sp)
   474fc:	dec00104 	addi	sp,sp,4
   47500:	f800283a 	ret

00047504 <OS_MemInit>:
   47504:	defffc04 	addi	sp,sp,-16
   47508:	dfc00315 	stw	ra,12(sp)
   4750c:	df000215 	stw	fp,8(sp)
   47510:	df000204 	addi	fp,sp,8
   47514:	01430c04 	movi	r5,3120
   47518:	01000174 	movhi	r4,5
   4751c:	210bb904 	addi	r4,r4,12004
   47520:	0044e480 	call	44e48 <OS_MemClr>
   47524:	00800174 	movhi	r2,5
   47528:	108bb904 	addi	r2,r2,12004
   4752c:	e0bffe15 	stw	r2,-8(fp)
   47530:	e03fff0d 	sth	zero,-4(fp)
   47534:	00001606 	br	47590 <OS_MemInit+0x8c>
   47538:	e0bfff0b 	ldhu	r2,-4(fp)
   4753c:	10800044 	addi	r2,r2,1
   47540:	01400d04 	movi	r5,52
   47544:	1009883a 	mov	r4,r2
   47548:	00426600 	call	42660 <__mulsi3>
   4754c:	1007883a 	mov	r3,r2
   47550:	00800174 	movhi	r2,5
   47554:	108bb904 	addi	r2,r2,12004
   47558:	1887883a 	add	r3,r3,r2
   4755c:	e0bffe17 	ldw	r2,-8(fp)
   47560:	10c00115 	stw	r3,4(r2)
   47564:	e0bffe17 	ldw	r2,-8(fp)
   47568:	00c00fc4 	movi	r3,63
   4756c:	10c00505 	stb	r3,20(r2)
   47570:	e0bffe17 	ldw	r2,-8(fp)
   47574:	10000545 	stb	zero,21(r2)
   47578:	e0bffe17 	ldw	r2,-8(fp)
   4757c:	10800d04 	addi	r2,r2,52
   47580:	e0bffe15 	stw	r2,-8(fp)
   47584:	e0bfff0b 	ldhu	r2,-4(fp)
   47588:	10800044 	addi	r2,r2,1
   4758c:	e0bfff0d 	sth	r2,-4(fp)
   47590:	e0bfff0b 	ldhu	r2,-4(fp)
   47594:	10800ef0 	cmpltui	r2,r2,59
   47598:	103fe71e 	bne	r2,zero,47538 <__alt_data_end+0xfffe1d38>
   4759c:	e0bffe17 	ldw	r2,-8(fp)
   475a0:	10000115 	stw	zero,4(r2)
   475a4:	e0bffe17 	ldw	r2,-8(fp)
   475a8:	00c00fc4 	movi	r3,63
   475ac:	10c00505 	stb	r3,20(r2)
   475b0:	e0bffe17 	ldw	r2,-8(fp)
   475b4:	10000545 	stb	zero,21(r2)
   475b8:	00800174 	movhi	r2,5
   475bc:	108bb904 	addi	r2,r2,12004
   475c0:	d0a70315 	stw	r2,-25588(gp)
   475c4:	0001883a 	nop
   475c8:	e037883a 	mov	sp,fp
   475cc:	dfc00117 	ldw	ra,4(sp)
   475d0:	df000017 	ldw	fp,0(sp)
   475d4:	dec00204 	addi	sp,sp,8
   475d8:	f800283a 	ret

000475dc <OSQAccept>:
   475dc:	defff804 	addi	sp,sp,-32
   475e0:	df000715 	stw	fp,28(sp)
   475e4:	df000704 	addi	fp,sp,28
   475e8:	e13ffe15 	stw	r4,-8(fp)
   475ec:	e17fff15 	stw	r5,-4(fp)
   475f0:	e03ffa15 	stw	zero,-24(fp)
   475f4:	e0bfff17 	ldw	r2,-4(fp)
   475f8:	1000021e 	bne	r2,zero,47604 <OSQAccept+0x28>
   475fc:	0005883a 	mov	r2,zero
   47600:	00004206 	br	4770c <OSQAccept+0x130>
   47604:	e0bffe17 	ldw	r2,-8(fp)
   47608:	1000051e 	bne	r2,zero,47620 <OSQAccept+0x44>
   4760c:	e0bfff17 	ldw	r2,-4(fp)
   47610:	00c00104 	movi	r3,4
   47614:	10c00005 	stb	r3,0(r2)
   47618:	0005883a 	mov	r2,zero
   4761c:	00003b06 	br	4770c <OSQAccept+0x130>
   47620:	e0bffe17 	ldw	r2,-8(fp)
   47624:	10800003 	ldbu	r2,0(r2)
   47628:	10803fcc 	andi	r2,r2,255
   4762c:	108000a0 	cmpeqi	r2,r2,2
   47630:	1000051e 	bne	r2,zero,47648 <OSQAccept+0x6c>
   47634:	e0bfff17 	ldw	r2,-4(fp)
   47638:	00c00044 	movi	r3,1
   4763c:	10c00005 	stb	r3,0(r2)
   47640:	0005883a 	mov	r2,zero
   47644:	00003106 	br	4770c <OSQAccept+0x130>
   47648:	0005303a 	rdctl	r2,status
   4764c:	e0bffd15 	stw	r2,-12(fp)
   47650:	e0fffd17 	ldw	r3,-12(fp)
   47654:	00bfff84 	movi	r2,-2
   47658:	1884703a 	and	r2,r3,r2
   4765c:	1001703a 	wrctl	status,r2
   47660:	e0bffd17 	ldw	r2,-12(fp)
   47664:	e0bffa15 	stw	r2,-24(fp)
   47668:	e0bffe17 	ldw	r2,-8(fp)
   4766c:	10800117 	ldw	r2,4(r2)
   47670:	e0bffc15 	stw	r2,-16(fp)
   47674:	e0bffc17 	ldw	r2,-16(fp)
   47678:	1080058b 	ldhu	r2,22(r2)
   4767c:	10bfffcc 	andi	r2,r2,65535
   47680:	10001926 	beq	r2,zero,476e8 <OSQAccept+0x10c>
   47684:	e0bffc17 	ldw	r2,-16(fp)
   47688:	10800417 	ldw	r2,16(r2)
   4768c:	11000104 	addi	r4,r2,4
   47690:	e0fffc17 	ldw	r3,-16(fp)
   47694:	19000415 	stw	r4,16(r3)
   47698:	10800017 	ldw	r2,0(r2)
   4769c:	e0bff915 	stw	r2,-28(fp)
   476a0:	e0bffc17 	ldw	r2,-16(fp)
   476a4:	1080058b 	ldhu	r2,22(r2)
   476a8:	10bfffc4 	addi	r2,r2,-1
   476ac:	1007883a 	mov	r3,r2
   476b0:	e0bffc17 	ldw	r2,-16(fp)
   476b4:	10c0058d 	sth	r3,22(r2)
   476b8:	e0bffc17 	ldw	r2,-16(fp)
   476bc:	10c00417 	ldw	r3,16(r2)
   476c0:	e0bffc17 	ldw	r2,-16(fp)
   476c4:	10800217 	ldw	r2,8(r2)
   476c8:	1880041e 	bne	r3,r2,476dc <OSQAccept+0x100>
   476cc:	e0bffc17 	ldw	r2,-16(fp)
   476d0:	10c00117 	ldw	r3,4(r2)
   476d4:	e0bffc17 	ldw	r2,-16(fp)
   476d8:	10c00415 	stw	r3,16(r2)
   476dc:	e0bfff17 	ldw	r2,-4(fp)
   476e0:	10000005 	stb	zero,0(r2)
   476e4:	00000406 	br	476f8 <OSQAccept+0x11c>
   476e8:	e0bfff17 	ldw	r2,-4(fp)
   476ec:	00c007c4 	movi	r3,31
   476f0:	10c00005 	stb	r3,0(r2)
   476f4:	e03ff915 	stw	zero,-28(fp)
   476f8:	e0bffa17 	ldw	r2,-24(fp)
   476fc:	e0bffb15 	stw	r2,-20(fp)
   47700:	e0bffb17 	ldw	r2,-20(fp)
   47704:	1001703a 	wrctl	status,r2
   47708:	e0bff917 	ldw	r2,-28(fp)
   4770c:	e037883a 	mov	sp,fp
   47710:	df000017 	ldw	fp,0(sp)
   47714:	dec00104 	addi	sp,sp,4
   47718:	f800283a 	ret

0004771c <OSQCreate>:
   4771c:	defff404 	addi	sp,sp,-48
   47720:	dfc00b15 	stw	ra,44(sp)
   47724:	df000a15 	stw	fp,40(sp)
   47728:	df000a04 	addi	fp,sp,40
   4772c:	e13ffe15 	stw	r4,-8(fp)
   47730:	2805883a 	mov	r2,r5
   47734:	e0bfff0d 	sth	r2,-4(fp)
   47738:	e03ff715 	stw	zero,-36(fp)
   4773c:	d0a70803 	ldbu	r2,-25568(gp)
   47740:	10803fcc 	andi	r2,r2,255
   47744:	10000226 	beq	r2,zero,47750 <OSQCreate+0x34>
   47748:	0005883a 	mov	r2,zero
   4774c:	00005906 	br	478b4 <OSQCreate+0x198>
   47750:	0005303a 	rdctl	r2,status
   47754:	e0bffd15 	stw	r2,-12(fp)
   47758:	e0fffd17 	ldw	r3,-12(fp)
   4775c:	00bfff84 	movi	r2,-2
   47760:	1884703a 	and	r2,r3,r2
   47764:	1001703a 	wrctl	status,r2
   47768:	e0bffd17 	ldw	r2,-12(fp)
   4776c:	e0bff715 	stw	r2,-36(fp)
   47770:	d0a70717 	ldw	r2,-25572(gp)
   47774:	e0bff615 	stw	r2,-40(fp)
   47778:	d0a70717 	ldw	r2,-25572(gp)
   4777c:	10000326 	beq	r2,zero,4778c <OSQCreate+0x70>
   47780:	d0a70717 	ldw	r2,-25572(gp)
   47784:	10800117 	ldw	r2,4(r2)
   47788:	d0a70715 	stw	r2,-25572(gp)
   4778c:	e0bff717 	ldw	r2,-36(fp)
   47790:	e0bff815 	stw	r2,-32(fp)
   47794:	e0bff817 	ldw	r2,-32(fp)
   47798:	1001703a 	wrctl	status,r2
   4779c:	e0bff617 	ldw	r2,-40(fp)
   477a0:	10004326 	beq	r2,zero,478b0 <OSQCreate+0x194>
   477a4:	0005303a 	rdctl	r2,status
   477a8:	e0bff915 	stw	r2,-28(fp)
   477ac:	e0fff917 	ldw	r3,-28(fp)
   477b0:	00bfff84 	movi	r2,-2
   477b4:	1884703a 	and	r2,r3,r2
   477b8:	1001703a 	wrctl	status,r2
   477bc:	e0bff917 	ldw	r2,-28(fp)
   477c0:	e0bff715 	stw	r2,-36(fp)
   477c4:	d0a70517 	ldw	r2,-25580(gp)
   477c8:	e0bffb15 	stw	r2,-20(fp)
   477cc:	e0bffb17 	ldw	r2,-20(fp)
   477d0:	10002d26 	beq	r2,zero,47888 <OSQCreate+0x16c>
   477d4:	d0a70517 	ldw	r2,-25580(gp)
   477d8:	10800017 	ldw	r2,0(r2)
   477dc:	d0a70515 	stw	r2,-25580(gp)
   477e0:	e0bff717 	ldw	r2,-36(fp)
   477e4:	e0bffa15 	stw	r2,-24(fp)
   477e8:	e0bffa17 	ldw	r2,-24(fp)
   477ec:	1001703a 	wrctl	status,r2
   477f0:	e0bffb17 	ldw	r2,-20(fp)
   477f4:	e0fffe17 	ldw	r3,-8(fp)
   477f8:	10c00115 	stw	r3,4(r2)
   477fc:	e0bfff0b 	ldhu	r2,-4(fp)
   47800:	1085883a 	add	r2,r2,r2
   47804:	1085883a 	add	r2,r2,r2
   47808:	1007883a 	mov	r3,r2
   4780c:	e0bffe17 	ldw	r2,-8(fp)
   47810:	10c7883a 	add	r3,r2,r3
   47814:	e0bffb17 	ldw	r2,-20(fp)
   47818:	10c00215 	stw	r3,8(r2)
   4781c:	e0bffb17 	ldw	r2,-20(fp)
   47820:	e0fffe17 	ldw	r3,-8(fp)
   47824:	10c00315 	stw	r3,12(r2)
   47828:	e0bffb17 	ldw	r2,-20(fp)
   4782c:	e0fffe17 	ldw	r3,-8(fp)
   47830:	10c00415 	stw	r3,16(r2)
   47834:	e0bffb17 	ldw	r2,-20(fp)
   47838:	e0ffff0b 	ldhu	r3,-4(fp)
   4783c:	10c0050d 	sth	r3,20(r2)
   47840:	e0bffb17 	ldw	r2,-20(fp)
   47844:	1000058d 	sth	zero,22(r2)
   47848:	e0bff617 	ldw	r2,-40(fp)
   4784c:	00c00084 	movi	r3,2
   47850:	10c00005 	stb	r3,0(r2)
   47854:	e0bff617 	ldw	r2,-40(fp)
   47858:	1000020d 	sth	zero,8(r2)
   4785c:	e0bff617 	ldw	r2,-40(fp)
   47860:	e0fffb17 	ldw	r3,-20(fp)
   47864:	10c00115 	stw	r3,4(r2)
   47868:	e0bff617 	ldw	r2,-40(fp)
   4786c:	00c00fc4 	movi	r3,63
   47870:	10c00385 	stb	r3,14(r2)
   47874:	e0bff617 	ldw	r2,-40(fp)
   47878:	100003c5 	stb	zero,15(r2)
   4787c:	e13ff617 	ldw	r4,-40(fp)
   47880:	0044a680 	call	44a68 <OS_EventWaitListInit>
   47884:	00000a06 	br	478b0 <OSQCreate+0x194>
   47888:	d0e70717 	ldw	r3,-25572(gp)
   4788c:	e0bff617 	ldw	r2,-40(fp)
   47890:	10c00115 	stw	r3,4(r2)
   47894:	e0bff617 	ldw	r2,-40(fp)
   47898:	d0a70715 	stw	r2,-25572(gp)
   4789c:	e0bff717 	ldw	r2,-36(fp)
   478a0:	e0bffc15 	stw	r2,-16(fp)
   478a4:	e0bffc17 	ldw	r2,-16(fp)
   478a8:	1001703a 	wrctl	status,r2
   478ac:	e03ff615 	stw	zero,-40(fp)
   478b0:	e0bff617 	ldw	r2,-40(fp)
   478b4:	e037883a 	mov	sp,fp
   478b8:	dfc00117 	ldw	ra,4(sp)
   478bc:	df000017 	ldw	fp,0(sp)
   478c0:	dec00204 	addi	sp,sp,8
   478c4:	f800283a 	ret

000478c8 <OSQDel>:
   478c8:	defff204 	addi	sp,sp,-56
   478cc:	dfc00d15 	stw	ra,52(sp)
   478d0:	df000c15 	stw	fp,48(sp)
   478d4:	df000c04 	addi	fp,sp,48
   478d8:	e13ffd15 	stw	r4,-12(fp)
   478dc:	2805883a 	mov	r2,r5
   478e0:	e1bfff15 	stw	r6,-4(fp)
   478e4:	e0bffe05 	stb	r2,-8(fp)
   478e8:	e03ff615 	stw	zero,-40(fp)
   478ec:	e0bfff17 	ldw	r2,-4(fp)
   478f0:	1000021e 	bne	r2,zero,478fc <OSQDel+0x34>
   478f4:	e0bffd17 	ldw	r2,-12(fp)
   478f8:	00008e06 	br	47b34 <OSQDel+0x26c>
   478fc:	e0bffd17 	ldw	r2,-12(fp)
   47900:	1000051e 	bne	r2,zero,47918 <OSQDel+0x50>
   47904:	e0bfff17 	ldw	r2,-4(fp)
   47908:	00c00104 	movi	r3,4
   4790c:	10c00005 	stb	r3,0(r2)
   47910:	e0bffd17 	ldw	r2,-12(fp)
   47914:	00008706 	br	47b34 <OSQDel+0x26c>
   47918:	e0bffd17 	ldw	r2,-12(fp)
   4791c:	10800003 	ldbu	r2,0(r2)
   47920:	10803fcc 	andi	r2,r2,255
   47924:	108000a0 	cmpeqi	r2,r2,2
   47928:	1000051e 	bne	r2,zero,47940 <OSQDel+0x78>
   4792c:	e0bfff17 	ldw	r2,-4(fp)
   47930:	00c00044 	movi	r3,1
   47934:	10c00005 	stb	r3,0(r2)
   47938:	e0bffd17 	ldw	r2,-12(fp)
   4793c:	00007d06 	br	47b34 <OSQDel+0x26c>
   47940:	d0a70803 	ldbu	r2,-25568(gp)
   47944:	10803fcc 	andi	r2,r2,255
   47948:	10000526 	beq	r2,zero,47960 <OSQDel+0x98>
   4794c:	e0bfff17 	ldw	r2,-4(fp)
   47950:	00c003c4 	movi	r3,15
   47954:	10c00005 	stb	r3,0(r2)
   47958:	e0bffd17 	ldw	r2,-12(fp)
   4795c:	00007506 	br	47b34 <OSQDel+0x26c>
   47960:	0005303a 	rdctl	r2,status
   47964:	e0bffc15 	stw	r2,-16(fp)
   47968:	e0fffc17 	ldw	r3,-16(fp)
   4796c:	00bfff84 	movi	r2,-2
   47970:	1884703a 	and	r2,r3,r2
   47974:	1001703a 	wrctl	status,r2
   47978:	e0bffc17 	ldw	r2,-16(fp)
   4797c:	e0bff615 	stw	r2,-40(fp)
   47980:	e0bffd17 	ldw	r2,-12(fp)
   47984:	10800283 	ldbu	r2,10(r2)
   47988:	10803fcc 	andi	r2,r2,255
   4798c:	10000326 	beq	r2,zero,4799c <OSQDel+0xd4>
   47990:	00800044 	movi	r2,1
   47994:	e0bff405 	stb	r2,-48(fp)
   47998:	00000106 	br	479a0 <OSQDel+0xd8>
   4799c:	e03ff405 	stb	zero,-48(fp)
   479a0:	e0bffe03 	ldbu	r2,-8(fp)
   479a4:	10000326 	beq	r2,zero,479b4 <OSQDel+0xec>
   479a8:	10800060 	cmpeqi	r2,r2,1
   479ac:	1000301e 	bne	r2,zero,47a70 <OSQDel+0x1a8>
   479b0:	00005506 	br	47b08 <OSQDel+0x240>
   479b4:	e0bff403 	ldbu	r2,-48(fp)
   479b8:	10001e1e 	bne	r2,zero,47a34 <OSQDel+0x16c>
   479bc:	e0bffd17 	ldw	r2,-12(fp)
   479c0:	00c00fc4 	movi	r3,63
   479c4:	10c00385 	stb	r3,14(r2)
   479c8:	e0bffd17 	ldw	r2,-12(fp)
   479cc:	100003c5 	stb	zero,15(r2)
   479d0:	e0bffd17 	ldw	r2,-12(fp)
   479d4:	10800117 	ldw	r2,4(r2)
   479d8:	e0bff815 	stw	r2,-32(fp)
   479dc:	d0e70517 	ldw	r3,-25580(gp)
   479e0:	e0bff817 	ldw	r2,-32(fp)
   479e4:	10c00015 	stw	r3,0(r2)
   479e8:	e0bff817 	ldw	r2,-32(fp)
   479ec:	d0a70515 	stw	r2,-25580(gp)
   479f0:	e0bffd17 	ldw	r2,-12(fp)
   479f4:	10000005 	stb	zero,0(r2)
   479f8:	d0e70717 	ldw	r3,-25572(gp)
   479fc:	e0bffd17 	ldw	r2,-12(fp)
   47a00:	10c00115 	stw	r3,4(r2)
   47a04:	e0bffd17 	ldw	r2,-12(fp)
   47a08:	1000020d 	sth	zero,8(r2)
   47a0c:	e0bffd17 	ldw	r2,-12(fp)
   47a10:	d0a70715 	stw	r2,-25572(gp)
   47a14:	e0bff617 	ldw	r2,-40(fp)
   47a18:	e0bff715 	stw	r2,-36(fp)
   47a1c:	e0bff717 	ldw	r2,-36(fp)
   47a20:	1001703a 	wrctl	status,r2
   47a24:	e0bfff17 	ldw	r2,-4(fp)
   47a28:	10000005 	stb	zero,0(r2)
   47a2c:	e03ff515 	stw	zero,-44(fp)
   47a30:	00003f06 	br	47b30 <OSQDel+0x268>
   47a34:	e0bff617 	ldw	r2,-40(fp)
   47a38:	e0bff915 	stw	r2,-28(fp)
   47a3c:	e0bff917 	ldw	r2,-28(fp)
   47a40:	1001703a 	wrctl	status,r2
   47a44:	e0bfff17 	ldw	r2,-4(fp)
   47a48:	00c01244 	movi	r3,73
   47a4c:	10c00005 	stb	r3,0(r2)
   47a50:	e0bffd17 	ldw	r2,-12(fp)
   47a54:	e0bff515 	stw	r2,-44(fp)
   47a58:	00003506 	br	47b30 <OSQDel+0x268>
   47a5c:	000f883a 	mov	r7,zero
   47a60:	01800104 	movi	r6,4
   47a64:	000b883a 	mov	r5,zero
   47a68:	e13ffd17 	ldw	r4,-12(fp)
   47a6c:	00444b80 	call	444b8 <OS_EventTaskRdy>
   47a70:	e0bffd17 	ldw	r2,-12(fp)
   47a74:	10800283 	ldbu	r2,10(r2)
   47a78:	10803fcc 	andi	r2,r2,255
   47a7c:	103ff71e 	bne	r2,zero,47a5c <__alt_data_end+0xfffe225c>
   47a80:	e0bffd17 	ldw	r2,-12(fp)
   47a84:	00c00fc4 	movi	r3,63
   47a88:	10c00385 	stb	r3,14(r2)
   47a8c:	e0bffd17 	ldw	r2,-12(fp)
   47a90:	100003c5 	stb	zero,15(r2)
   47a94:	e0bffd17 	ldw	r2,-12(fp)
   47a98:	10800117 	ldw	r2,4(r2)
   47a9c:	e0bff815 	stw	r2,-32(fp)
   47aa0:	d0e70517 	ldw	r3,-25580(gp)
   47aa4:	e0bff817 	ldw	r2,-32(fp)
   47aa8:	10c00015 	stw	r3,0(r2)
   47aac:	e0bff817 	ldw	r2,-32(fp)
   47ab0:	d0a70515 	stw	r2,-25580(gp)
   47ab4:	e0bffd17 	ldw	r2,-12(fp)
   47ab8:	10000005 	stb	zero,0(r2)
   47abc:	d0e70717 	ldw	r3,-25572(gp)
   47ac0:	e0bffd17 	ldw	r2,-12(fp)
   47ac4:	10c00115 	stw	r3,4(r2)
   47ac8:	e0bffd17 	ldw	r2,-12(fp)
   47acc:	1000020d 	sth	zero,8(r2)
   47ad0:	e0bffd17 	ldw	r2,-12(fp)
   47ad4:	d0a70715 	stw	r2,-25572(gp)
   47ad8:	e0bff617 	ldw	r2,-40(fp)
   47adc:	e0bffa15 	stw	r2,-24(fp)
   47ae0:	e0bffa17 	ldw	r2,-24(fp)
   47ae4:	1001703a 	wrctl	status,r2
   47ae8:	e0bff403 	ldbu	r2,-48(fp)
   47aec:	10800058 	cmpnei	r2,r2,1
   47af0:	1000011e 	bne	r2,zero,47af8 <OSQDel+0x230>
   47af4:	0044f040 	call	44f04 <OS_Sched>
   47af8:	e0bfff17 	ldw	r2,-4(fp)
   47afc:	10000005 	stb	zero,0(r2)
   47b00:	e03ff515 	stw	zero,-44(fp)
   47b04:	00000a06 	br	47b30 <OSQDel+0x268>
   47b08:	e0bff617 	ldw	r2,-40(fp)
   47b0c:	e0bffb15 	stw	r2,-20(fp)
   47b10:	e0bffb17 	ldw	r2,-20(fp)
   47b14:	1001703a 	wrctl	status,r2
   47b18:	e0bfff17 	ldw	r2,-4(fp)
   47b1c:	00c001c4 	movi	r3,7
   47b20:	10c00005 	stb	r3,0(r2)
   47b24:	e0bffd17 	ldw	r2,-12(fp)
   47b28:	e0bff515 	stw	r2,-44(fp)
   47b2c:	0001883a 	nop
   47b30:	e0bff517 	ldw	r2,-44(fp)
   47b34:	e037883a 	mov	sp,fp
   47b38:	dfc00117 	ldw	ra,4(sp)
   47b3c:	df000017 	ldw	fp,0(sp)
   47b40:	dec00204 	addi	sp,sp,8
   47b44:	f800283a 	ret

00047b48 <OSQFlush>:
   47b48:	defffa04 	addi	sp,sp,-24
   47b4c:	df000515 	stw	fp,20(sp)
   47b50:	df000504 	addi	fp,sp,20
   47b54:	e13fff15 	stw	r4,-4(fp)
   47b58:	e03ffb15 	stw	zero,-20(fp)
   47b5c:	e0bfff17 	ldw	r2,-4(fp)
   47b60:	1000021e 	bne	r2,zero,47b6c <OSQFlush+0x24>
   47b64:	00800104 	movi	r2,4
   47b68:	00002106 	br	47bf0 <OSQFlush+0xa8>
   47b6c:	e0bfff17 	ldw	r2,-4(fp)
   47b70:	10800003 	ldbu	r2,0(r2)
   47b74:	10803fcc 	andi	r2,r2,255
   47b78:	108000a0 	cmpeqi	r2,r2,2
   47b7c:	1000021e 	bne	r2,zero,47b88 <OSQFlush+0x40>
   47b80:	00800044 	movi	r2,1
   47b84:	00001a06 	br	47bf0 <OSQFlush+0xa8>
   47b88:	0005303a 	rdctl	r2,status
   47b8c:	e0bffd15 	stw	r2,-12(fp)
   47b90:	e0fffd17 	ldw	r3,-12(fp)
   47b94:	00bfff84 	movi	r2,-2
   47b98:	1884703a 	and	r2,r3,r2
   47b9c:	1001703a 	wrctl	status,r2
   47ba0:	e0bffd17 	ldw	r2,-12(fp)
   47ba4:	e0bffb15 	stw	r2,-20(fp)
   47ba8:	e0bfff17 	ldw	r2,-4(fp)
   47bac:	10800117 	ldw	r2,4(r2)
   47bb0:	e0bffc15 	stw	r2,-16(fp)
   47bb4:	e0bffc17 	ldw	r2,-16(fp)
   47bb8:	10c00117 	ldw	r3,4(r2)
   47bbc:	e0bffc17 	ldw	r2,-16(fp)
   47bc0:	10c00315 	stw	r3,12(r2)
   47bc4:	e0bffc17 	ldw	r2,-16(fp)
   47bc8:	10c00117 	ldw	r3,4(r2)
   47bcc:	e0bffc17 	ldw	r2,-16(fp)
   47bd0:	10c00415 	stw	r3,16(r2)
   47bd4:	e0bffc17 	ldw	r2,-16(fp)
   47bd8:	1000058d 	sth	zero,22(r2)
   47bdc:	e0bffb17 	ldw	r2,-20(fp)
   47be0:	e0bffe15 	stw	r2,-8(fp)
   47be4:	e0bffe17 	ldw	r2,-8(fp)
   47be8:	1001703a 	wrctl	status,r2
   47bec:	0005883a 	mov	r2,zero
   47bf0:	e037883a 	mov	sp,fp
   47bf4:	df000017 	ldw	fp,0(sp)
   47bf8:	dec00104 	addi	sp,sp,4
   47bfc:	f800283a 	ret

00047c00 <OSQPend>:
   47c00:	defff304 	addi	sp,sp,-52
   47c04:	dfc00c15 	stw	ra,48(sp)
   47c08:	df000b15 	stw	fp,44(sp)
   47c0c:	df000b04 	addi	fp,sp,44
   47c10:	e13ffd15 	stw	r4,-12(fp)
   47c14:	2805883a 	mov	r2,r5
   47c18:	e1bfff15 	stw	r6,-4(fp)
   47c1c:	e0bffe0d 	sth	r2,-8(fp)
   47c20:	e03ff615 	stw	zero,-40(fp)
   47c24:	e0bfff17 	ldw	r2,-4(fp)
   47c28:	1000021e 	bne	r2,zero,47c34 <OSQPend+0x34>
   47c2c:	0005883a 	mov	r2,zero
   47c30:	00009106 	br	47e78 <OSQPend+0x278>
   47c34:	e0bffd17 	ldw	r2,-12(fp)
   47c38:	1000051e 	bne	r2,zero,47c50 <OSQPend+0x50>
   47c3c:	e0bfff17 	ldw	r2,-4(fp)
   47c40:	00c00104 	movi	r3,4
   47c44:	10c00005 	stb	r3,0(r2)
   47c48:	0005883a 	mov	r2,zero
   47c4c:	00008a06 	br	47e78 <OSQPend+0x278>
   47c50:	e0bffd17 	ldw	r2,-12(fp)
   47c54:	10800003 	ldbu	r2,0(r2)
   47c58:	10803fcc 	andi	r2,r2,255
   47c5c:	108000a0 	cmpeqi	r2,r2,2
   47c60:	1000051e 	bne	r2,zero,47c78 <OSQPend+0x78>
   47c64:	e0bfff17 	ldw	r2,-4(fp)
   47c68:	00c00044 	movi	r3,1
   47c6c:	10c00005 	stb	r3,0(r2)
   47c70:	0005883a 	mov	r2,zero
   47c74:	00008006 	br	47e78 <OSQPend+0x278>
   47c78:	d0a70803 	ldbu	r2,-25568(gp)
   47c7c:	10803fcc 	andi	r2,r2,255
   47c80:	10000526 	beq	r2,zero,47c98 <OSQPend+0x98>
   47c84:	e0bfff17 	ldw	r2,-4(fp)
   47c88:	00c00084 	movi	r3,2
   47c8c:	10c00005 	stb	r3,0(r2)
   47c90:	0005883a 	mov	r2,zero
   47c94:	00007806 	br	47e78 <OSQPend+0x278>
   47c98:	d0a6fa03 	ldbu	r2,-25624(gp)
   47c9c:	10803fcc 	andi	r2,r2,255
   47ca0:	10000526 	beq	r2,zero,47cb8 <OSQPend+0xb8>
   47ca4:	e0bfff17 	ldw	r2,-4(fp)
   47ca8:	00c00344 	movi	r3,13
   47cac:	10c00005 	stb	r3,0(r2)
   47cb0:	0005883a 	mov	r2,zero
   47cb4:	00007006 	br	47e78 <OSQPend+0x278>
   47cb8:	0005303a 	rdctl	r2,status
   47cbc:	e0bffc15 	stw	r2,-16(fp)
   47cc0:	e0fffc17 	ldw	r3,-16(fp)
   47cc4:	00bfff84 	movi	r2,-2
   47cc8:	1884703a 	and	r2,r3,r2
   47ccc:	1001703a 	wrctl	status,r2
   47cd0:	e0bffc17 	ldw	r2,-16(fp)
   47cd4:	e0bff615 	stw	r2,-40(fp)
   47cd8:	e0bffd17 	ldw	r2,-12(fp)
   47cdc:	10800117 	ldw	r2,4(r2)
   47ce0:	e0bff815 	stw	r2,-32(fp)
   47ce4:	e0bff817 	ldw	r2,-32(fp)
   47ce8:	1080058b 	ldhu	r2,22(r2)
   47cec:	10bfffcc 	andi	r2,r2,65535
   47cf0:	10001e26 	beq	r2,zero,47d6c <OSQPend+0x16c>
   47cf4:	e0bff817 	ldw	r2,-32(fp)
   47cf8:	10800417 	ldw	r2,16(r2)
   47cfc:	11000104 	addi	r4,r2,4
   47d00:	e0fff817 	ldw	r3,-32(fp)
   47d04:	19000415 	stw	r4,16(r3)
   47d08:	10800017 	ldw	r2,0(r2)
   47d0c:	e0bff515 	stw	r2,-44(fp)
   47d10:	e0bff817 	ldw	r2,-32(fp)
   47d14:	1080058b 	ldhu	r2,22(r2)
   47d18:	10bfffc4 	addi	r2,r2,-1
   47d1c:	1007883a 	mov	r3,r2
   47d20:	e0bff817 	ldw	r2,-32(fp)
   47d24:	10c0058d 	sth	r3,22(r2)
   47d28:	e0bff817 	ldw	r2,-32(fp)
   47d2c:	10c00417 	ldw	r3,16(r2)
   47d30:	e0bff817 	ldw	r2,-32(fp)
   47d34:	10800217 	ldw	r2,8(r2)
   47d38:	1880041e 	bne	r3,r2,47d4c <OSQPend+0x14c>
   47d3c:	e0bff817 	ldw	r2,-32(fp)
   47d40:	10c00117 	ldw	r3,4(r2)
   47d44:	e0bff817 	ldw	r2,-32(fp)
   47d48:	10c00415 	stw	r3,16(r2)
   47d4c:	e0bff617 	ldw	r2,-40(fp)
   47d50:	e0bff715 	stw	r2,-36(fp)
   47d54:	e0bff717 	ldw	r2,-36(fp)
   47d58:	1001703a 	wrctl	status,r2
   47d5c:	e0bfff17 	ldw	r2,-4(fp)
   47d60:	10000005 	stb	zero,0(r2)
   47d64:	e0bff517 	ldw	r2,-44(fp)
   47d68:	00004306 	br	47e78 <OSQPend+0x278>
   47d6c:	d0a70917 	ldw	r2,-25564(gp)
   47d70:	d0e70917 	ldw	r3,-25564(gp)
   47d74:	18c00c03 	ldbu	r3,48(r3)
   47d78:	18c00114 	ori	r3,r3,4
   47d7c:	10c00c05 	stb	r3,48(r2)
   47d80:	d0a70917 	ldw	r2,-25564(gp)
   47d84:	10000c45 	stb	zero,49(r2)
   47d88:	d0a70917 	ldw	r2,-25564(gp)
   47d8c:	e0fffe0b 	ldhu	r3,-8(fp)
   47d90:	10c00b8d 	sth	r3,46(r2)
   47d94:	e13ffd17 	ldw	r4,-12(fp)
   47d98:	00446500 	call	44650 <OS_EventTaskWait>
   47d9c:	e0bff617 	ldw	r2,-40(fp)
   47da0:	e0bffb15 	stw	r2,-20(fp)
   47da4:	e0bffb17 	ldw	r2,-20(fp)
   47da8:	1001703a 	wrctl	status,r2
   47dac:	0044f040 	call	44f04 <OS_Sched>
   47db0:	0005303a 	rdctl	r2,status
   47db4:	e0bff915 	stw	r2,-28(fp)
   47db8:	e0fff917 	ldw	r3,-28(fp)
   47dbc:	00bfff84 	movi	r2,-2
   47dc0:	1884703a 	and	r2,r3,r2
   47dc4:	1001703a 	wrctl	status,r2
   47dc8:	e0bff917 	ldw	r2,-28(fp)
   47dcc:	e0bff615 	stw	r2,-40(fp)
   47dd0:	d0a70917 	ldw	r2,-25564(gp)
   47dd4:	10800c43 	ldbu	r2,49(r2)
   47dd8:	10803fcc 	andi	r2,r2,255
   47ddc:	10000326 	beq	r2,zero,47dec <OSQPend+0x1ec>
   47de0:	108000a0 	cmpeqi	r2,r2,2
   47de4:	1000071e 	bne	r2,zero,47e04 <OSQPend+0x204>
   47de8:	00000b06 	br	47e18 <OSQPend+0x218>
   47dec:	d0a70917 	ldw	r2,-25564(gp)
   47df0:	10800917 	ldw	r2,36(r2)
   47df4:	e0bff515 	stw	r2,-44(fp)
   47df8:	e0bfff17 	ldw	r2,-4(fp)
   47dfc:	10000005 	stb	zero,0(r2)
   47e00:	00000e06 	br	47e3c <OSQPend+0x23c>
   47e04:	e03ff515 	stw	zero,-44(fp)
   47e08:	e0bfff17 	ldw	r2,-4(fp)
   47e0c:	00c00384 	movi	r3,14
   47e10:	10c00005 	stb	r3,0(r2)
   47e14:	00000906 	br	47e3c <OSQPend+0x23c>
   47e18:	d0a70917 	ldw	r2,-25564(gp)
   47e1c:	e17ffd17 	ldw	r5,-12(fp)
   47e20:	1009883a 	mov	r4,r2
   47e24:	00448b00 	call	448b0 <OS_EventTaskRemove>
   47e28:	e03ff515 	stw	zero,-44(fp)
   47e2c:	e0bfff17 	ldw	r2,-4(fp)
   47e30:	00c00284 	movi	r3,10
   47e34:	10c00005 	stb	r3,0(r2)
   47e38:	0001883a 	nop
   47e3c:	d0a70917 	ldw	r2,-25564(gp)
   47e40:	10000c05 	stb	zero,48(r2)
   47e44:	d0a70917 	ldw	r2,-25564(gp)
   47e48:	10000c45 	stb	zero,49(r2)
   47e4c:	d0a70917 	ldw	r2,-25564(gp)
   47e50:	10000715 	stw	zero,28(r2)
   47e54:	d0a70917 	ldw	r2,-25564(gp)
   47e58:	10000815 	stw	zero,32(r2)
   47e5c:	d0a70917 	ldw	r2,-25564(gp)
   47e60:	10000915 	stw	zero,36(r2)
   47e64:	e0bff617 	ldw	r2,-40(fp)
   47e68:	e0bffa15 	stw	r2,-24(fp)
   47e6c:	e0bffa17 	ldw	r2,-24(fp)
   47e70:	1001703a 	wrctl	status,r2
   47e74:	e0bff517 	ldw	r2,-44(fp)
   47e78:	e037883a 	mov	sp,fp
   47e7c:	dfc00117 	ldw	ra,4(sp)
   47e80:	df000017 	ldw	fp,0(sp)
   47e84:	dec00204 	addi	sp,sp,8
   47e88:	f800283a 	ret

00047e8c <OSQPendAbort>:
   47e8c:	defff604 	addi	sp,sp,-40
   47e90:	dfc00915 	stw	ra,36(sp)
   47e94:	df000815 	stw	fp,32(sp)
   47e98:	df000804 	addi	fp,sp,32
   47e9c:	e13ffd15 	stw	r4,-12(fp)
   47ea0:	2805883a 	mov	r2,r5
   47ea4:	e1bfff15 	stw	r6,-4(fp)
   47ea8:	e0bffe05 	stb	r2,-8(fp)
   47eac:	e03ff915 	stw	zero,-28(fp)
   47eb0:	e0bfff17 	ldw	r2,-4(fp)
   47eb4:	1000021e 	bne	r2,zero,47ec0 <OSQPendAbort+0x34>
   47eb8:	0005883a 	mov	r2,zero
   47ebc:	00004906 	br	47fe4 <OSQPendAbort+0x158>
   47ec0:	e0bffd17 	ldw	r2,-12(fp)
   47ec4:	1000051e 	bne	r2,zero,47edc <OSQPendAbort+0x50>
   47ec8:	e0bfff17 	ldw	r2,-4(fp)
   47ecc:	00c00104 	movi	r3,4
   47ed0:	10c00005 	stb	r3,0(r2)
   47ed4:	0005883a 	mov	r2,zero
   47ed8:	00004206 	br	47fe4 <OSQPendAbort+0x158>
   47edc:	e0bffd17 	ldw	r2,-12(fp)
   47ee0:	10800003 	ldbu	r2,0(r2)
   47ee4:	10803fcc 	andi	r2,r2,255
   47ee8:	108000a0 	cmpeqi	r2,r2,2
   47eec:	1000051e 	bne	r2,zero,47f04 <OSQPendAbort+0x78>
   47ef0:	e0bfff17 	ldw	r2,-4(fp)
   47ef4:	00c00044 	movi	r3,1
   47ef8:	10c00005 	stb	r3,0(r2)
   47efc:	0005883a 	mov	r2,zero
   47f00:	00003806 	br	47fe4 <OSQPendAbort+0x158>
   47f04:	0005303a 	rdctl	r2,status
   47f08:	e0bffc15 	stw	r2,-16(fp)
   47f0c:	e0fffc17 	ldw	r3,-16(fp)
   47f10:	00bfff84 	movi	r2,-2
   47f14:	1884703a 	and	r2,r3,r2
   47f18:	1001703a 	wrctl	status,r2
   47f1c:	e0bffc17 	ldw	r2,-16(fp)
   47f20:	e0bff915 	stw	r2,-28(fp)
   47f24:	e0bffd17 	ldw	r2,-12(fp)
   47f28:	10800283 	ldbu	r2,10(r2)
   47f2c:	10803fcc 	andi	r2,r2,255
   47f30:	10002526 	beq	r2,zero,47fc8 <OSQPendAbort+0x13c>
   47f34:	e03ff805 	stb	zero,-32(fp)
   47f38:	e0bffe03 	ldbu	r2,-8(fp)
   47f3c:	10800060 	cmpeqi	r2,r2,1
   47f40:	10000e26 	beq	r2,zero,47f7c <OSQPendAbort+0xf0>
   47f44:	00000806 	br	47f68 <OSQPendAbort+0xdc>
   47f48:	01c00084 	movi	r7,2
   47f4c:	01800104 	movi	r6,4
   47f50:	000b883a 	mov	r5,zero
   47f54:	e13ffd17 	ldw	r4,-12(fp)
   47f58:	00444b80 	call	444b8 <OS_EventTaskRdy>
   47f5c:	e0bff803 	ldbu	r2,-32(fp)
   47f60:	10800044 	addi	r2,r2,1
   47f64:	e0bff805 	stb	r2,-32(fp)
   47f68:	e0bffd17 	ldw	r2,-12(fp)
   47f6c:	10800283 	ldbu	r2,10(r2)
   47f70:	10803fcc 	andi	r2,r2,255
   47f74:	103ff41e 	bne	r2,zero,47f48 <__alt_data_end+0xfffe2748>
   47f78:	00000906 	br	47fa0 <OSQPendAbort+0x114>
   47f7c:	01c00084 	movi	r7,2
   47f80:	01800104 	movi	r6,4
   47f84:	000b883a 	mov	r5,zero
   47f88:	e13ffd17 	ldw	r4,-12(fp)
   47f8c:	00444b80 	call	444b8 <OS_EventTaskRdy>
   47f90:	e0bff803 	ldbu	r2,-32(fp)
   47f94:	10800044 	addi	r2,r2,1
   47f98:	e0bff805 	stb	r2,-32(fp)
   47f9c:	0001883a 	nop
   47fa0:	e0bff917 	ldw	r2,-28(fp)
   47fa4:	e0bffa15 	stw	r2,-24(fp)
   47fa8:	e0bffa17 	ldw	r2,-24(fp)
   47fac:	1001703a 	wrctl	status,r2
   47fb0:	0044f040 	call	44f04 <OS_Sched>
   47fb4:	e0bfff17 	ldw	r2,-4(fp)
   47fb8:	00c00384 	movi	r3,14
   47fbc:	10c00005 	stb	r3,0(r2)
   47fc0:	e0bff803 	ldbu	r2,-32(fp)
   47fc4:	00000706 	br	47fe4 <OSQPendAbort+0x158>
   47fc8:	e0bff917 	ldw	r2,-28(fp)
   47fcc:	e0bffb15 	stw	r2,-20(fp)
   47fd0:	e0bffb17 	ldw	r2,-20(fp)
   47fd4:	1001703a 	wrctl	status,r2
   47fd8:	e0bfff17 	ldw	r2,-4(fp)
   47fdc:	10000005 	stb	zero,0(r2)
   47fe0:	0005883a 	mov	r2,zero
   47fe4:	e037883a 	mov	sp,fp
   47fe8:	dfc00117 	ldw	ra,4(sp)
   47fec:	df000017 	ldw	fp,0(sp)
   47ff0:	dec00204 	addi	sp,sp,8
   47ff4:	f800283a 	ret

00047ff8 <OSQPost>:
   47ff8:	defff604 	addi	sp,sp,-40
   47ffc:	dfc00915 	stw	ra,36(sp)
   48000:	df000815 	stw	fp,32(sp)
   48004:	df000804 	addi	fp,sp,32
   48008:	e13ffe15 	stw	r4,-8(fp)
   4800c:	e17fff15 	stw	r5,-4(fp)
   48010:	e03ff815 	stw	zero,-32(fp)
   48014:	e0bffe17 	ldw	r2,-8(fp)
   48018:	1000021e 	bne	r2,zero,48024 <OSQPost+0x2c>
   4801c:	00800104 	movi	r2,4
   48020:	00004a06 	br	4814c <OSQPost+0x154>
   48024:	e0bffe17 	ldw	r2,-8(fp)
   48028:	10800003 	ldbu	r2,0(r2)
   4802c:	10803fcc 	andi	r2,r2,255
   48030:	108000a0 	cmpeqi	r2,r2,2
   48034:	1000021e 	bne	r2,zero,48040 <OSQPost+0x48>
   48038:	00800044 	movi	r2,1
   4803c:	00004306 	br	4814c <OSQPost+0x154>
   48040:	0005303a 	rdctl	r2,status
   48044:	e0bffd15 	stw	r2,-12(fp)
   48048:	e0fffd17 	ldw	r3,-12(fp)
   4804c:	00bfff84 	movi	r2,-2
   48050:	1884703a 	and	r2,r3,r2
   48054:	1001703a 	wrctl	status,r2
   48058:	e0bffd17 	ldw	r2,-12(fp)
   4805c:	e0bff815 	stw	r2,-32(fp)
   48060:	e0bffe17 	ldw	r2,-8(fp)
   48064:	10800283 	ldbu	r2,10(r2)
   48068:	10803fcc 	andi	r2,r2,255
   4806c:	10000c26 	beq	r2,zero,480a0 <OSQPost+0xa8>
   48070:	000f883a 	mov	r7,zero
   48074:	01800104 	movi	r6,4
   48078:	e17fff17 	ldw	r5,-4(fp)
   4807c:	e13ffe17 	ldw	r4,-8(fp)
   48080:	00444b80 	call	444b8 <OS_EventTaskRdy>
   48084:	e0bff817 	ldw	r2,-32(fp)
   48088:	e0bff915 	stw	r2,-28(fp)
   4808c:	e0bff917 	ldw	r2,-28(fp)
   48090:	1001703a 	wrctl	status,r2
   48094:	0044f040 	call	44f04 <OS_Sched>
   48098:	0005883a 	mov	r2,zero
   4809c:	00002b06 	br	4814c <OSQPost+0x154>
   480a0:	e0bffe17 	ldw	r2,-8(fp)
   480a4:	10800117 	ldw	r2,4(r2)
   480a8:	e0bffb15 	stw	r2,-20(fp)
   480ac:	e0bffb17 	ldw	r2,-20(fp)
   480b0:	10c0058b 	ldhu	r3,22(r2)
   480b4:	e0bffb17 	ldw	r2,-20(fp)
   480b8:	1080050b 	ldhu	r2,20(r2)
   480bc:	18ffffcc 	andi	r3,r3,65535
   480c0:	10bfffcc 	andi	r2,r2,65535
   480c4:	18800636 	bltu	r3,r2,480e0 <OSQPost+0xe8>
   480c8:	e0bff817 	ldw	r2,-32(fp)
   480cc:	e0bffa15 	stw	r2,-24(fp)
   480d0:	e0bffa17 	ldw	r2,-24(fp)
   480d4:	1001703a 	wrctl	status,r2
   480d8:	00800784 	movi	r2,30
   480dc:	00001b06 	br	4814c <OSQPost+0x154>
   480e0:	e0bffb17 	ldw	r2,-20(fp)
   480e4:	10800317 	ldw	r2,12(r2)
   480e8:	11000104 	addi	r4,r2,4
   480ec:	e0fffb17 	ldw	r3,-20(fp)
   480f0:	19000315 	stw	r4,12(r3)
   480f4:	e0ffff17 	ldw	r3,-4(fp)
   480f8:	10c00015 	stw	r3,0(r2)
   480fc:	e0bffb17 	ldw	r2,-20(fp)
   48100:	1080058b 	ldhu	r2,22(r2)
   48104:	10800044 	addi	r2,r2,1
   48108:	1007883a 	mov	r3,r2
   4810c:	e0bffb17 	ldw	r2,-20(fp)
   48110:	10c0058d 	sth	r3,22(r2)
   48114:	e0bffb17 	ldw	r2,-20(fp)
   48118:	10c00317 	ldw	r3,12(r2)
   4811c:	e0bffb17 	ldw	r2,-20(fp)
   48120:	10800217 	ldw	r2,8(r2)
   48124:	1880041e 	bne	r3,r2,48138 <OSQPost+0x140>
   48128:	e0bffb17 	ldw	r2,-20(fp)
   4812c:	10c00117 	ldw	r3,4(r2)
   48130:	e0bffb17 	ldw	r2,-20(fp)
   48134:	10c00315 	stw	r3,12(r2)
   48138:	e0bff817 	ldw	r2,-32(fp)
   4813c:	e0bffc15 	stw	r2,-16(fp)
   48140:	e0bffc17 	ldw	r2,-16(fp)
   48144:	1001703a 	wrctl	status,r2
   48148:	0005883a 	mov	r2,zero
   4814c:	e037883a 	mov	sp,fp
   48150:	dfc00117 	ldw	ra,4(sp)
   48154:	df000017 	ldw	fp,0(sp)
   48158:	dec00204 	addi	sp,sp,8
   4815c:	f800283a 	ret

00048160 <OSQPostFront>:
   48160:	defff604 	addi	sp,sp,-40
   48164:	dfc00915 	stw	ra,36(sp)
   48168:	df000815 	stw	fp,32(sp)
   4816c:	df000804 	addi	fp,sp,32
   48170:	e13ffe15 	stw	r4,-8(fp)
   48174:	e17fff15 	stw	r5,-4(fp)
   48178:	e03ff815 	stw	zero,-32(fp)
   4817c:	e0bffe17 	ldw	r2,-8(fp)
   48180:	1000021e 	bne	r2,zero,4818c <OSQPostFront+0x2c>
   48184:	00800104 	movi	r2,4
   48188:	00004c06 	br	482bc <OSQPostFront+0x15c>
   4818c:	e0bffe17 	ldw	r2,-8(fp)
   48190:	10800003 	ldbu	r2,0(r2)
   48194:	10803fcc 	andi	r2,r2,255
   48198:	108000a0 	cmpeqi	r2,r2,2
   4819c:	1000021e 	bne	r2,zero,481a8 <OSQPostFront+0x48>
   481a0:	00800044 	movi	r2,1
   481a4:	00004506 	br	482bc <OSQPostFront+0x15c>
   481a8:	0005303a 	rdctl	r2,status
   481ac:	e0bffd15 	stw	r2,-12(fp)
   481b0:	e0fffd17 	ldw	r3,-12(fp)
   481b4:	00bfff84 	movi	r2,-2
   481b8:	1884703a 	and	r2,r3,r2
   481bc:	1001703a 	wrctl	status,r2
   481c0:	e0bffd17 	ldw	r2,-12(fp)
   481c4:	e0bff815 	stw	r2,-32(fp)
   481c8:	e0bffe17 	ldw	r2,-8(fp)
   481cc:	10800283 	ldbu	r2,10(r2)
   481d0:	10803fcc 	andi	r2,r2,255
   481d4:	10000c26 	beq	r2,zero,48208 <OSQPostFront+0xa8>
   481d8:	000f883a 	mov	r7,zero
   481dc:	01800104 	movi	r6,4
   481e0:	e17fff17 	ldw	r5,-4(fp)
   481e4:	e13ffe17 	ldw	r4,-8(fp)
   481e8:	00444b80 	call	444b8 <OS_EventTaskRdy>
   481ec:	e0bff817 	ldw	r2,-32(fp)
   481f0:	e0bff915 	stw	r2,-28(fp)
   481f4:	e0bff917 	ldw	r2,-28(fp)
   481f8:	1001703a 	wrctl	status,r2
   481fc:	0044f040 	call	44f04 <OS_Sched>
   48200:	0005883a 	mov	r2,zero
   48204:	00002d06 	br	482bc <OSQPostFront+0x15c>
   48208:	e0bffe17 	ldw	r2,-8(fp)
   4820c:	10800117 	ldw	r2,4(r2)
   48210:	e0bffb15 	stw	r2,-20(fp)
   48214:	e0bffb17 	ldw	r2,-20(fp)
   48218:	10c0058b 	ldhu	r3,22(r2)
   4821c:	e0bffb17 	ldw	r2,-20(fp)
   48220:	1080050b 	ldhu	r2,20(r2)
   48224:	18ffffcc 	andi	r3,r3,65535
   48228:	10bfffcc 	andi	r2,r2,65535
   4822c:	18800636 	bltu	r3,r2,48248 <OSQPostFront+0xe8>
   48230:	e0bff817 	ldw	r2,-32(fp)
   48234:	e0bffa15 	stw	r2,-24(fp)
   48238:	e0bffa17 	ldw	r2,-24(fp)
   4823c:	1001703a 	wrctl	status,r2
   48240:	00800784 	movi	r2,30
   48244:	00001d06 	br	482bc <OSQPostFront+0x15c>
   48248:	e0bffb17 	ldw	r2,-20(fp)
   4824c:	10c00417 	ldw	r3,16(r2)
   48250:	e0bffb17 	ldw	r2,-20(fp)
   48254:	10800117 	ldw	r2,4(r2)
   48258:	1880041e 	bne	r3,r2,4826c <OSQPostFront+0x10c>
   4825c:	e0bffb17 	ldw	r2,-20(fp)
   48260:	10c00217 	ldw	r3,8(r2)
   48264:	e0bffb17 	ldw	r2,-20(fp)
   48268:	10c00415 	stw	r3,16(r2)
   4826c:	e0bffb17 	ldw	r2,-20(fp)
   48270:	10800417 	ldw	r2,16(r2)
   48274:	10ffff04 	addi	r3,r2,-4
   48278:	e0bffb17 	ldw	r2,-20(fp)
   4827c:	10c00415 	stw	r3,16(r2)
   48280:	e0bffb17 	ldw	r2,-20(fp)
   48284:	10800417 	ldw	r2,16(r2)
   48288:	e0ffff17 	ldw	r3,-4(fp)
   4828c:	10c00015 	stw	r3,0(r2)
   48290:	e0bffb17 	ldw	r2,-20(fp)
   48294:	1080058b 	ldhu	r2,22(r2)
   48298:	10800044 	addi	r2,r2,1
   4829c:	1007883a 	mov	r3,r2
   482a0:	e0bffb17 	ldw	r2,-20(fp)
   482a4:	10c0058d 	sth	r3,22(r2)
   482a8:	e0bff817 	ldw	r2,-32(fp)
   482ac:	e0bffc15 	stw	r2,-16(fp)
   482b0:	e0bffc17 	ldw	r2,-16(fp)
   482b4:	1001703a 	wrctl	status,r2
   482b8:	0005883a 	mov	r2,zero
   482bc:	e037883a 	mov	sp,fp
   482c0:	dfc00117 	ldw	ra,4(sp)
   482c4:	df000017 	ldw	fp,0(sp)
   482c8:	dec00204 	addi	sp,sp,8
   482cc:	f800283a 	ret

000482d0 <OSQPostOpt>:
   482d0:	defff504 	addi	sp,sp,-44
   482d4:	dfc00a15 	stw	ra,40(sp)
   482d8:	df000915 	stw	fp,36(sp)
   482dc:	df000904 	addi	fp,sp,36
   482e0:	e13ffd15 	stw	r4,-12(fp)
   482e4:	e17ffe15 	stw	r5,-8(fp)
   482e8:	3005883a 	mov	r2,r6
   482ec:	e0bfff05 	stb	r2,-4(fp)
   482f0:	e03ff715 	stw	zero,-36(fp)
   482f4:	e0bffd17 	ldw	r2,-12(fp)
   482f8:	1000021e 	bne	r2,zero,48304 <OSQPostOpt+0x34>
   482fc:	00800104 	movi	r2,4
   48300:	00007106 	br	484c8 <OSQPostOpt+0x1f8>
   48304:	e0bffd17 	ldw	r2,-12(fp)
   48308:	10800003 	ldbu	r2,0(r2)
   4830c:	10803fcc 	andi	r2,r2,255
   48310:	108000a0 	cmpeqi	r2,r2,2
   48314:	1000021e 	bne	r2,zero,48320 <OSQPostOpt+0x50>
   48318:	00800044 	movi	r2,1
   4831c:	00006a06 	br	484c8 <OSQPostOpt+0x1f8>
   48320:	0005303a 	rdctl	r2,status
   48324:	e0bffc15 	stw	r2,-16(fp)
   48328:	e0fffc17 	ldw	r3,-16(fp)
   4832c:	00bfff84 	movi	r2,-2
   48330:	1884703a 	and	r2,r3,r2
   48334:	1001703a 	wrctl	status,r2
   48338:	e0bffc17 	ldw	r2,-16(fp)
   4833c:	e0bff715 	stw	r2,-36(fp)
   48340:	e0bffd17 	ldw	r2,-12(fp)
   48344:	10800283 	ldbu	r2,10(r2)
   48348:	10803fcc 	andi	r2,r2,255
   4834c:	10001d26 	beq	r2,zero,483c4 <OSQPostOpt+0xf4>
   48350:	e0bfff03 	ldbu	r2,-4(fp)
   48354:	1080004c 	andi	r2,r2,1
   48358:	10000b26 	beq	r2,zero,48388 <OSQPostOpt+0xb8>
   4835c:	00000506 	br	48374 <OSQPostOpt+0xa4>
   48360:	000f883a 	mov	r7,zero
   48364:	01800104 	movi	r6,4
   48368:	e17ffe17 	ldw	r5,-8(fp)
   4836c:	e13ffd17 	ldw	r4,-12(fp)
   48370:	00444b80 	call	444b8 <OS_EventTaskRdy>
   48374:	e0bffd17 	ldw	r2,-12(fp)
   48378:	10800283 	ldbu	r2,10(r2)
   4837c:	10803fcc 	andi	r2,r2,255
   48380:	103ff71e 	bne	r2,zero,48360 <__alt_data_end+0xfffe2b60>
   48384:	00000506 	br	4839c <OSQPostOpt+0xcc>
   48388:	000f883a 	mov	r7,zero
   4838c:	01800104 	movi	r6,4
   48390:	e17ffe17 	ldw	r5,-8(fp)
   48394:	e13ffd17 	ldw	r4,-12(fp)
   48398:	00444b80 	call	444b8 <OS_EventTaskRdy>
   4839c:	e0bff717 	ldw	r2,-36(fp)
   483a0:	e0bff815 	stw	r2,-32(fp)
   483a4:	e0bff817 	ldw	r2,-32(fp)
   483a8:	1001703a 	wrctl	status,r2
   483ac:	e0bfff03 	ldbu	r2,-4(fp)
   483b0:	1080010c 	andi	r2,r2,4
   483b4:	1000011e 	bne	r2,zero,483bc <OSQPostOpt+0xec>
   483b8:	0044f040 	call	44f04 <OS_Sched>
   483bc:	0005883a 	mov	r2,zero
   483c0:	00004106 	br	484c8 <OSQPostOpt+0x1f8>
   483c4:	e0bffd17 	ldw	r2,-12(fp)
   483c8:	10800117 	ldw	r2,4(r2)
   483cc:	e0bffa15 	stw	r2,-24(fp)
   483d0:	e0bffa17 	ldw	r2,-24(fp)
   483d4:	10c0058b 	ldhu	r3,22(r2)
   483d8:	e0bffa17 	ldw	r2,-24(fp)
   483dc:	1080050b 	ldhu	r2,20(r2)
   483e0:	18ffffcc 	andi	r3,r3,65535
   483e4:	10bfffcc 	andi	r2,r2,65535
   483e8:	18800636 	bltu	r3,r2,48404 <OSQPostOpt+0x134>
   483ec:	e0bff717 	ldw	r2,-36(fp)
   483f0:	e0bff915 	stw	r2,-28(fp)
   483f4:	e0bff917 	ldw	r2,-28(fp)
   483f8:	1001703a 	wrctl	status,r2
   483fc:	00800784 	movi	r2,30
   48400:	00003106 	br	484c8 <OSQPostOpt+0x1f8>
   48404:	e0bfff03 	ldbu	r2,-4(fp)
   48408:	1080008c 	andi	r2,r2,2
   4840c:	10001326 	beq	r2,zero,4845c <OSQPostOpt+0x18c>
   48410:	e0bffa17 	ldw	r2,-24(fp)
   48414:	10c00417 	ldw	r3,16(r2)
   48418:	e0bffa17 	ldw	r2,-24(fp)
   4841c:	10800117 	ldw	r2,4(r2)
   48420:	1880041e 	bne	r3,r2,48434 <OSQPostOpt+0x164>
   48424:	e0bffa17 	ldw	r2,-24(fp)
   48428:	10c00217 	ldw	r3,8(r2)
   4842c:	e0bffa17 	ldw	r2,-24(fp)
   48430:	10c00415 	stw	r3,16(r2)
   48434:	e0bffa17 	ldw	r2,-24(fp)
   48438:	10800417 	ldw	r2,16(r2)
   4843c:	10ffff04 	addi	r3,r2,-4
   48440:	e0bffa17 	ldw	r2,-24(fp)
   48444:	10c00415 	stw	r3,16(r2)
   48448:	e0bffa17 	ldw	r2,-24(fp)
   4844c:	10800417 	ldw	r2,16(r2)
   48450:	e0fffe17 	ldw	r3,-8(fp)
   48454:	10c00015 	stw	r3,0(r2)
   48458:	00001006 	br	4849c <OSQPostOpt+0x1cc>
   4845c:	e0bffa17 	ldw	r2,-24(fp)
   48460:	10800317 	ldw	r2,12(r2)
   48464:	11000104 	addi	r4,r2,4
   48468:	e0fffa17 	ldw	r3,-24(fp)
   4846c:	19000315 	stw	r4,12(r3)
   48470:	e0fffe17 	ldw	r3,-8(fp)
   48474:	10c00015 	stw	r3,0(r2)
   48478:	e0bffa17 	ldw	r2,-24(fp)
   4847c:	10c00317 	ldw	r3,12(r2)
   48480:	e0bffa17 	ldw	r2,-24(fp)
   48484:	10800217 	ldw	r2,8(r2)
   48488:	1880041e 	bne	r3,r2,4849c <OSQPostOpt+0x1cc>
   4848c:	e0bffa17 	ldw	r2,-24(fp)
   48490:	10c00117 	ldw	r3,4(r2)
   48494:	e0bffa17 	ldw	r2,-24(fp)
   48498:	10c00315 	stw	r3,12(r2)
   4849c:	e0bffa17 	ldw	r2,-24(fp)
   484a0:	1080058b 	ldhu	r2,22(r2)
   484a4:	10800044 	addi	r2,r2,1
   484a8:	1007883a 	mov	r3,r2
   484ac:	e0bffa17 	ldw	r2,-24(fp)
   484b0:	10c0058d 	sth	r3,22(r2)
   484b4:	e0bff717 	ldw	r2,-36(fp)
   484b8:	e0bffb15 	stw	r2,-20(fp)
   484bc:	e0bffb17 	ldw	r2,-20(fp)
   484c0:	1001703a 	wrctl	status,r2
   484c4:	0005883a 	mov	r2,zero
   484c8:	e037883a 	mov	sp,fp
   484cc:	dfc00117 	ldw	ra,4(sp)
   484d0:	df000017 	ldw	fp,0(sp)
   484d4:	dec00204 	addi	sp,sp,8
   484d8:	f800283a 	ret

000484dc <OSQQuery>:
   484dc:	defff604 	addi	sp,sp,-40
   484e0:	df000915 	stw	fp,36(sp)
   484e4:	df000904 	addi	fp,sp,36
   484e8:	e13ffe15 	stw	r4,-8(fp)
   484ec:	e17fff15 	stw	r5,-4(fp)
   484f0:	e03ffa15 	stw	zero,-24(fp)
   484f4:	e0bffe17 	ldw	r2,-8(fp)
   484f8:	1000021e 	bne	r2,zero,48504 <OSQQuery+0x28>
   484fc:	00800104 	movi	r2,4
   48500:	00004906 	br	48628 <OSQQuery+0x14c>
   48504:	e0bfff17 	ldw	r2,-4(fp)
   48508:	1000021e 	bne	r2,zero,48514 <OSQQuery+0x38>
   4850c:	00800244 	movi	r2,9
   48510:	00004506 	br	48628 <OSQQuery+0x14c>
   48514:	e0bffe17 	ldw	r2,-8(fp)
   48518:	10800003 	ldbu	r2,0(r2)
   4851c:	10803fcc 	andi	r2,r2,255
   48520:	108000a0 	cmpeqi	r2,r2,2
   48524:	1000021e 	bne	r2,zero,48530 <OSQQuery+0x54>
   48528:	00800044 	movi	r2,1
   4852c:	00003e06 	br	48628 <OSQQuery+0x14c>
   48530:	0005303a 	rdctl	r2,status
   48534:	e0bffd15 	stw	r2,-12(fp)
   48538:	e0fffd17 	ldw	r3,-12(fp)
   4853c:	00bfff84 	movi	r2,-2
   48540:	1884703a 	and	r2,r3,r2
   48544:	1001703a 	wrctl	status,r2
   48548:	e0bffd17 	ldw	r2,-12(fp)
   4854c:	e0bffa15 	stw	r2,-24(fp)
   48550:	e0bffe17 	ldw	r2,-8(fp)
   48554:	10c00283 	ldbu	r3,10(r2)
   48558:	e0bfff17 	ldw	r2,-4(fp)
   4855c:	10c002c5 	stb	r3,11(r2)
   48560:	e0bffe17 	ldw	r2,-8(fp)
   48564:	108002c4 	addi	r2,r2,11
   48568:	e0bff815 	stw	r2,-32(fp)
   4856c:	e0bfff17 	ldw	r2,-4(fp)
   48570:	10800204 	addi	r2,r2,8
   48574:	e0bff915 	stw	r2,-28(fp)
   48578:	e03ff705 	stb	zero,-36(fp)
   4857c:	00000b06 	br	485ac <OSQQuery+0xd0>
   48580:	e0bff917 	ldw	r2,-28(fp)
   48584:	10c00044 	addi	r3,r2,1
   48588:	e0fff915 	stw	r3,-28(fp)
   4858c:	e0fff817 	ldw	r3,-32(fp)
   48590:	19000044 	addi	r4,r3,1
   48594:	e13ff815 	stw	r4,-32(fp)
   48598:	18c00003 	ldbu	r3,0(r3)
   4859c:	10c00005 	stb	r3,0(r2)
   485a0:	e0bff703 	ldbu	r2,-36(fp)
   485a4:	10800044 	addi	r2,r2,1
   485a8:	e0bff705 	stb	r2,-36(fp)
   485ac:	e0bff703 	ldbu	r2,-36(fp)
   485b0:	108000f0 	cmpltui	r2,r2,3
   485b4:	103ff21e 	bne	r2,zero,48580 <__alt_data_end+0xfffe2d80>
   485b8:	e0bffe17 	ldw	r2,-8(fp)
   485bc:	10800117 	ldw	r2,4(r2)
   485c0:	e0bffc15 	stw	r2,-16(fp)
   485c4:	e0bffc17 	ldw	r2,-16(fp)
   485c8:	1080058b 	ldhu	r2,22(r2)
   485cc:	10bfffcc 	andi	r2,r2,65535
   485d0:	10000626 	beq	r2,zero,485ec <OSQQuery+0x110>
   485d4:	e0bffc17 	ldw	r2,-16(fp)
   485d8:	10800417 	ldw	r2,16(r2)
   485dc:	10c00017 	ldw	r3,0(r2)
   485e0:	e0bfff17 	ldw	r2,-4(fp)
   485e4:	10c00015 	stw	r3,0(r2)
   485e8:	00000206 	br	485f4 <OSQQuery+0x118>
   485ec:	e0bfff17 	ldw	r2,-4(fp)
   485f0:	10000015 	stw	zero,0(r2)
   485f4:	e0bffc17 	ldw	r2,-16(fp)
   485f8:	10c0058b 	ldhu	r3,22(r2)
   485fc:	e0bfff17 	ldw	r2,-4(fp)
   48600:	10c0010d 	sth	r3,4(r2)
   48604:	e0bffc17 	ldw	r2,-16(fp)
   48608:	10c0050b 	ldhu	r3,20(r2)
   4860c:	e0bfff17 	ldw	r2,-4(fp)
   48610:	10c0018d 	sth	r3,6(r2)
   48614:	e0bffa17 	ldw	r2,-24(fp)
   48618:	e0bffb15 	stw	r2,-20(fp)
   4861c:	e0bffb17 	ldw	r2,-20(fp)
   48620:	1001703a 	wrctl	status,r2
   48624:	0005883a 	mov	r2,zero
   48628:	e037883a 	mov	sp,fp
   4862c:	df000017 	ldw	fp,0(sp)
   48630:	dec00104 	addi	sp,sp,4
   48634:	f800283a 	ret

00048638 <OS_QInit>:
   48638:	defffb04 	addi	sp,sp,-20
   4863c:	dfc00415 	stw	ra,16(sp)
   48640:	df000315 	stw	fp,12(sp)
   48644:	df000304 	addi	fp,sp,12
   48648:	01407804 	movi	r5,480
   4864c:	01000174 	movhi	r4,5
   48650:	2110c504 	addi	r4,r4,17172
   48654:	0044e480 	call	44e48 <OS_MemClr>
   48658:	00800174 	movhi	r2,5
   4865c:	1090c504 	addi	r2,r2,17172
   48660:	e0bffe15 	stw	r2,-8(fp)
   48664:	00800174 	movhi	r2,5
   48668:	1090cb04 	addi	r2,r2,17196
   4866c:	e0bfff15 	stw	r2,-4(fp)
   48670:	e03ffd0d 	sth	zero,-12(fp)
   48674:	00000c06 	br	486a8 <OS_QInit+0x70>
   48678:	e0bffe17 	ldw	r2,-8(fp)
   4867c:	e0ffff17 	ldw	r3,-4(fp)
   48680:	10c00015 	stw	r3,0(r2)
   48684:	e0bffe17 	ldw	r2,-8(fp)
   48688:	10800604 	addi	r2,r2,24
   4868c:	e0bffe15 	stw	r2,-8(fp)
   48690:	e0bfff17 	ldw	r2,-4(fp)
   48694:	10800604 	addi	r2,r2,24
   48698:	e0bfff15 	stw	r2,-4(fp)
   4869c:	e0bffd0b 	ldhu	r2,-12(fp)
   486a0:	10800044 	addi	r2,r2,1
   486a4:	e0bffd0d 	sth	r2,-12(fp)
   486a8:	e0bffd0b 	ldhu	r2,-12(fp)
   486ac:	108004f0 	cmpltui	r2,r2,19
   486b0:	103ff11e 	bne	r2,zero,48678 <__alt_data_end+0xfffe2e78>
   486b4:	e0bffe17 	ldw	r2,-8(fp)
   486b8:	10000015 	stw	zero,0(r2)
   486bc:	00800174 	movhi	r2,5
   486c0:	1090c504 	addi	r2,r2,17172
   486c4:	d0a70515 	stw	r2,-25580(gp)
   486c8:	0001883a 	nop
   486cc:	e037883a 	mov	sp,fp
   486d0:	dfc00117 	ldw	ra,4(sp)
   486d4:	df000017 	ldw	fp,0(sp)
   486d8:	dec00204 	addi	sp,sp,8
   486dc:	f800283a 	ret

000486e0 <OSSemAccept>:
   486e0:	defffa04 	addi	sp,sp,-24
   486e4:	df000515 	stw	fp,20(sp)
   486e8:	df000504 	addi	fp,sp,20
   486ec:	e13fff15 	stw	r4,-4(fp)
   486f0:	e03ffb15 	stw	zero,-20(fp)
   486f4:	e0bfff17 	ldw	r2,-4(fp)
   486f8:	1000021e 	bne	r2,zero,48704 <OSSemAccept+0x24>
   486fc:	0005883a 	mov	r2,zero
   48700:	00001f06 	br	48780 <OSSemAccept+0xa0>
   48704:	e0bfff17 	ldw	r2,-4(fp)
   48708:	10800003 	ldbu	r2,0(r2)
   4870c:	10803fcc 	andi	r2,r2,255
   48710:	108000e0 	cmpeqi	r2,r2,3
   48714:	1000021e 	bne	r2,zero,48720 <OSSemAccept+0x40>
   48718:	0005883a 	mov	r2,zero
   4871c:	00001806 	br	48780 <OSSemAccept+0xa0>
   48720:	0005303a 	rdctl	r2,status
   48724:	e0bffe15 	stw	r2,-8(fp)
   48728:	e0fffe17 	ldw	r3,-8(fp)
   4872c:	00bfff84 	movi	r2,-2
   48730:	1884703a 	and	r2,r3,r2
   48734:	1001703a 	wrctl	status,r2
   48738:	e0bffe17 	ldw	r2,-8(fp)
   4873c:	e0bffb15 	stw	r2,-20(fp)
   48740:	e0bfff17 	ldw	r2,-4(fp)
   48744:	1080020b 	ldhu	r2,8(r2)
   48748:	e0bffd0d 	sth	r2,-12(fp)
   4874c:	e0bffd0b 	ldhu	r2,-12(fp)
   48750:	10000626 	beq	r2,zero,4876c <OSSemAccept+0x8c>
   48754:	e0bfff17 	ldw	r2,-4(fp)
   48758:	1080020b 	ldhu	r2,8(r2)
   4875c:	10bfffc4 	addi	r2,r2,-1
   48760:	1007883a 	mov	r3,r2
   48764:	e0bfff17 	ldw	r2,-4(fp)
   48768:	10c0020d 	sth	r3,8(r2)
   4876c:	e0bffb17 	ldw	r2,-20(fp)
   48770:	e0bffc15 	stw	r2,-16(fp)
   48774:	e0bffc17 	ldw	r2,-16(fp)
   48778:	1001703a 	wrctl	status,r2
   4877c:	e0bffd0b 	ldhu	r2,-12(fp)
   48780:	e037883a 	mov	sp,fp
   48784:	df000017 	ldw	fp,0(sp)
   48788:	dec00104 	addi	sp,sp,4
   4878c:	f800283a 	ret

00048790 <OSSemCreate>:
   48790:	defff904 	addi	sp,sp,-28
   48794:	dfc00615 	stw	ra,24(sp)
   48798:	df000515 	stw	fp,20(sp)
   4879c:	df000504 	addi	fp,sp,20
   487a0:	2005883a 	mov	r2,r4
   487a4:	e0bfff0d 	sth	r2,-4(fp)
   487a8:	e03ffb15 	stw	zero,-20(fp)
   487ac:	d0a70803 	ldbu	r2,-25568(gp)
   487b0:	10803fcc 	andi	r2,r2,255
   487b4:	10000226 	beq	r2,zero,487c0 <OSSemCreate+0x30>
   487b8:	0005883a 	mov	r2,zero
   487bc:	00002506 	br	48854 <OSSemCreate+0xc4>
   487c0:	0005303a 	rdctl	r2,status
   487c4:	e0bffe15 	stw	r2,-8(fp)
   487c8:	e0fffe17 	ldw	r3,-8(fp)
   487cc:	00bfff84 	movi	r2,-2
   487d0:	1884703a 	and	r2,r3,r2
   487d4:	1001703a 	wrctl	status,r2
   487d8:	e0bffe17 	ldw	r2,-8(fp)
   487dc:	e0bffb15 	stw	r2,-20(fp)
   487e0:	d0a70717 	ldw	r2,-25572(gp)
   487e4:	e0bffd15 	stw	r2,-12(fp)
   487e8:	d0a70717 	ldw	r2,-25572(gp)
   487ec:	10000326 	beq	r2,zero,487fc <OSSemCreate+0x6c>
   487f0:	d0a70717 	ldw	r2,-25572(gp)
   487f4:	10800117 	ldw	r2,4(r2)
   487f8:	d0a70715 	stw	r2,-25572(gp)
   487fc:	e0bffb17 	ldw	r2,-20(fp)
   48800:	e0bffc15 	stw	r2,-16(fp)
   48804:	e0bffc17 	ldw	r2,-16(fp)
   48808:	1001703a 	wrctl	status,r2
   4880c:	e0bffd17 	ldw	r2,-12(fp)
   48810:	10000f26 	beq	r2,zero,48850 <OSSemCreate+0xc0>
   48814:	e0bffd17 	ldw	r2,-12(fp)
   48818:	00c000c4 	movi	r3,3
   4881c:	10c00005 	stb	r3,0(r2)
   48820:	e0bffd17 	ldw	r2,-12(fp)
   48824:	e0ffff0b 	ldhu	r3,-4(fp)
   48828:	10c0020d 	sth	r3,8(r2)
   4882c:	e0bffd17 	ldw	r2,-12(fp)
   48830:	10000115 	stw	zero,4(r2)
   48834:	e0bffd17 	ldw	r2,-12(fp)
   48838:	00c00fc4 	movi	r3,63
   4883c:	10c00385 	stb	r3,14(r2)
   48840:	e0bffd17 	ldw	r2,-12(fp)
   48844:	100003c5 	stb	zero,15(r2)
   48848:	e13ffd17 	ldw	r4,-12(fp)
   4884c:	0044a680 	call	44a68 <OS_EventWaitListInit>
   48850:	e0bffd17 	ldw	r2,-12(fp)
   48854:	e037883a 	mov	sp,fp
   48858:	dfc00117 	ldw	ra,4(sp)
   4885c:	df000017 	ldw	fp,0(sp)
   48860:	dec00204 	addi	sp,sp,8
   48864:	f800283a 	ret

00048868 <OSSemDel>:
   48868:	defff304 	addi	sp,sp,-52
   4886c:	dfc00c15 	stw	ra,48(sp)
   48870:	df000b15 	stw	fp,44(sp)
   48874:	df000b04 	addi	fp,sp,44
   48878:	e13ffd15 	stw	r4,-12(fp)
   4887c:	2805883a 	mov	r2,r5
   48880:	e1bfff15 	stw	r6,-4(fp)
   48884:	e0bffe05 	stb	r2,-8(fp)
   48888:	e03ff715 	stw	zero,-36(fp)
   4888c:	e0bfff17 	ldw	r2,-4(fp)
   48890:	1000021e 	bne	r2,zero,4889c <OSSemDel+0x34>
   48894:	e0bffd17 	ldw	r2,-12(fp)
   48898:	00007e06 	br	48a94 <OSSemDel+0x22c>
   4889c:	e0bffd17 	ldw	r2,-12(fp)
   488a0:	1000051e 	bne	r2,zero,488b8 <OSSemDel+0x50>
   488a4:	e0bfff17 	ldw	r2,-4(fp)
   488a8:	00c00104 	movi	r3,4
   488ac:	10c00005 	stb	r3,0(r2)
   488b0:	e0bffd17 	ldw	r2,-12(fp)
   488b4:	00007706 	br	48a94 <OSSemDel+0x22c>
   488b8:	e0bffd17 	ldw	r2,-12(fp)
   488bc:	10800003 	ldbu	r2,0(r2)
   488c0:	10803fcc 	andi	r2,r2,255
   488c4:	108000e0 	cmpeqi	r2,r2,3
   488c8:	1000051e 	bne	r2,zero,488e0 <OSSemDel+0x78>
   488cc:	e0bfff17 	ldw	r2,-4(fp)
   488d0:	00c00044 	movi	r3,1
   488d4:	10c00005 	stb	r3,0(r2)
   488d8:	e0bffd17 	ldw	r2,-12(fp)
   488dc:	00006d06 	br	48a94 <OSSemDel+0x22c>
   488e0:	d0a70803 	ldbu	r2,-25568(gp)
   488e4:	10803fcc 	andi	r2,r2,255
   488e8:	10000526 	beq	r2,zero,48900 <OSSemDel+0x98>
   488ec:	e0bfff17 	ldw	r2,-4(fp)
   488f0:	00c003c4 	movi	r3,15
   488f4:	10c00005 	stb	r3,0(r2)
   488f8:	e0bffd17 	ldw	r2,-12(fp)
   488fc:	00006506 	br	48a94 <OSSemDel+0x22c>
   48900:	0005303a 	rdctl	r2,status
   48904:	e0bffc15 	stw	r2,-16(fp)
   48908:	e0fffc17 	ldw	r3,-16(fp)
   4890c:	00bfff84 	movi	r2,-2
   48910:	1884703a 	and	r2,r3,r2
   48914:	1001703a 	wrctl	status,r2
   48918:	e0bffc17 	ldw	r2,-16(fp)
   4891c:	e0bff715 	stw	r2,-36(fp)
   48920:	e0bffd17 	ldw	r2,-12(fp)
   48924:	10800283 	ldbu	r2,10(r2)
   48928:	10803fcc 	andi	r2,r2,255
   4892c:	10000326 	beq	r2,zero,4893c <OSSemDel+0xd4>
   48930:	00800044 	movi	r2,1
   48934:	e0bff505 	stb	r2,-44(fp)
   48938:	00000106 	br	48940 <OSSemDel+0xd8>
   4893c:	e03ff505 	stb	zero,-44(fp)
   48940:	e0bffe03 	ldbu	r2,-8(fp)
   48944:	10000326 	beq	r2,zero,48954 <OSSemDel+0xec>
   48948:	10800060 	cmpeqi	r2,r2,1
   4894c:	1000281e 	bne	r2,zero,489f0 <OSSemDel+0x188>
   48950:	00004506 	br	48a68 <OSSemDel+0x200>
   48954:	e0bff503 	ldbu	r2,-44(fp)
   48958:	1000161e 	bne	r2,zero,489b4 <OSSemDel+0x14c>
   4895c:	e0bffd17 	ldw	r2,-12(fp)
   48960:	00c00fc4 	movi	r3,63
   48964:	10c00385 	stb	r3,14(r2)
   48968:	e0bffd17 	ldw	r2,-12(fp)
   4896c:	100003c5 	stb	zero,15(r2)
   48970:	e0bffd17 	ldw	r2,-12(fp)
   48974:	10000005 	stb	zero,0(r2)
   48978:	d0e70717 	ldw	r3,-25572(gp)
   4897c:	e0bffd17 	ldw	r2,-12(fp)
   48980:	10c00115 	stw	r3,4(r2)
   48984:	e0bffd17 	ldw	r2,-12(fp)
   48988:	1000020d 	sth	zero,8(r2)
   4898c:	e0bffd17 	ldw	r2,-12(fp)
   48990:	d0a70715 	stw	r2,-25572(gp)
   48994:	e0bff717 	ldw	r2,-36(fp)
   48998:	e0bff815 	stw	r2,-32(fp)
   4899c:	e0bff817 	ldw	r2,-32(fp)
   489a0:	1001703a 	wrctl	status,r2
   489a4:	e0bfff17 	ldw	r2,-4(fp)
   489a8:	10000005 	stb	zero,0(r2)
   489ac:	e03ff615 	stw	zero,-40(fp)
   489b0:	00003706 	br	48a90 <OSSemDel+0x228>
   489b4:	e0bff717 	ldw	r2,-36(fp)
   489b8:	e0bff915 	stw	r2,-28(fp)
   489bc:	e0bff917 	ldw	r2,-28(fp)
   489c0:	1001703a 	wrctl	status,r2
   489c4:	e0bfff17 	ldw	r2,-4(fp)
   489c8:	00c01244 	movi	r3,73
   489cc:	10c00005 	stb	r3,0(r2)
   489d0:	e0bffd17 	ldw	r2,-12(fp)
   489d4:	e0bff615 	stw	r2,-40(fp)
   489d8:	00002d06 	br	48a90 <OSSemDel+0x228>
   489dc:	000f883a 	mov	r7,zero
   489e0:	01800044 	movi	r6,1
   489e4:	000b883a 	mov	r5,zero
   489e8:	e13ffd17 	ldw	r4,-12(fp)
   489ec:	00444b80 	call	444b8 <OS_EventTaskRdy>
   489f0:	e0bffd17 	ldw	r2,-12(fp)
   489f4:	10800283 	ldbu	r2,10(r2)
   489f8:	10803fcc 	andi	r2,r2,255
   489fc:	103ff71e 	bne	r2,zero,489dc <__alt_data_end+0xfffe31dc>
   48a00:	e0bffd17 	ldw	r2,-12(fp)
   48a04:	00c00fc4 	movi	r3,63
   48a08:	10c00385 	stb	r3,14(r2)
   48a0c:	e0bffd17 	ldw	r2,-12(fp)
   48a10:	100003c5 	stb	zero,15(r2)
   48a14:	e0bffd17 	ldw	r2,-12(fp)
   48a18:	10000005 	stb	zero,0(r2)
   48a1c:	d0e70717 	ldw	r3,-25572(gp)
   48a20:	e0bffd17 	ldw	r2,-12(fp)
   48a24:	10c00115 	stw	r3,4(r2)
   48a28:	e0bffd17 	ldw	r2,-12(fp)
   48a2c:	1000020d 	sth	zero,8(r2)
   48a30:	e0bffd17 	ldw	r2,-12(fp)
   48a34:	d0a70715 	stw	r2,-25572(gp)
   48a38:	e0bff717 	ldw	r2,-36(fp)
   48a3c:	e0bffa15 	stw	r2,-24(fp)
   48a40:	e0bffa17 	ldw	r2,-24(fp)
   48a44:	1001703a 	wrctl	status,r2
   48a48:	e0bff503 	ldbu	r2,-44(fp)
   48a4c:	10800058 	cmpnei	r2,r2,1
   48a50:	1000011e 	bne	r2,zero,48a58 <OSSemDel+0x1f0>
   48a54:	0044f040 	call	44f04 <OS_Sched>
   48a58:	e0bfff17 	ldw	r2,-4(fp)
   48a5c:	10000005 	stb	zero,0(r2)
   48a60:	e03ff615 	stw	zero,-40(fp)
   48a64:	00000a06 	br	48a90 <OSSemDel+0x228>
   48a68:	e0bff717 	ldw	r2,-36(fp)
   48a6c:	e0bffb15 	stw	r2,-20(fp)
   48a70:	e0bffb17 	ldw	r2,-20(fp)
   48a74:	1001703a 	wrctl	status,r2
   48a78:	e0bfff17 	ldw	r2,-4(fp)
   48a7c:	00c001c4 	movi	r3,7
   48a80:	10c00005 	stb	r3,0(r2)
   48a84:	e0bffd17 	ldw	r2,-12(fp)
   48a88:	e0bff615 	stw	r2,-40(fp)
   48a8c:	0001883a 	nop
   48a90:	e0bff617 	ldw	r2,-40(fp)
   48a94:	e037883a 	mov	sp,fp
   48a98:	dfc00117 	ldw	ra,4(sp)
   48a9c:	df000017 	ldw	fp,0(sp)
   48aa0:	dec00204 	addi	sp,sp,8
   48aa4:	f800283a 	ret

00048aa8 <OSSemPend>:
   48aa8:	defff504 	addi	sp,sp,-44
   48aac:	dfc00a15 	stw	ra,40(sp)
   48ab0:	df000915 	stw	fp,36(sp)
   48ab4:	df000904 	addi	fp,sp,36
   48ab8:	e13ffd15 	stw	r4,-12(fp)
   48abc:	2805883a 	mov	r2,r5
   48ac0:	e1bfff15 	stw	r6,-4(fp)
   48ac4:	e0bffe0d 	sth	r2,-8(fp)
   48ac8:	e03ff715 	stw	zero,-36(fp)
   48acc:	e0bfff17 	ldw	r2,-4(fp)
   48ad0:	10007226 	beq	r2,zero,48c9c <OSSemPend+0x1f4>
   48ad4:	e0bffd17 	ldw	r2,-12(fp)
   48ad8:	1000041e 	bne	r2,zero,48aec <OSSemPend+0x44>
   48adc:	e0bfff17 	ldw	r2,-4(fp)
   48ae0:	00c00104 	movi	r3,4
   48ae4:	10c00005 	stb	r3,0(r2)
   48ae8:	00006d06 	br	48ca0 <OSSemPend+0x1f8>
   48aec:	e0bffd17 	ldw	r2,-12(fp)
   48af0:	10800003 	ldbu	r2,0(r2)
   48af4:	10803fcc 	andi	r2,r2,255
   48af8:	108000e0 	cmpeqi	r2,r2,3
   48afc:	1000041e 	bne	r2,zero,48b10 <OSSemPend+0x68>
   48b00:	e0bfff17 	ldw	r2,-4(fp)
   48b04:	00c00044 	movi	r3,1
   48b08:	10c00005 	stb	r3,0(r2)
   48b0c:	00006406 	br	48ca0 <OSSemPend+0x1f8>
   48b10:	d0a70803 	ldbu	r2,-25568(gp)
   48b14:	10803fcc 	andi	r2,r2,255
   48b18:	10000426 	beq	r2,zero,48b2c <OSSemPend+0x84>
   48b1c:	e0bfff17 	ldw	r2,-4(fp)
   48b20:	00c00084 	movi	r3,2
   48b24:	10c00005 	stb	r3,0(r2)
   48b28:	00005d06 	br	48ca0 <OSSemPend+0x1f8>
   48b2c:	d0a6fa03 	ldbu	r2,-25624(gp)
   48b30:	10803fcc 	andi	r2,r2,255
   48b34:	10000426 	beq	r2,zero,48b48 <OSSemPend+0xa0>
   48b38:	e0bfff17 	ldw	r2,-4(fp)
   48b3c:	00c00344 	movi	r3,13
   48b40:	10c00005 	stb	r3,0(r2)
   48b44:	00005606 	br	48ca0 <OSSemPend+0x1f8>
   48b48:	0005303a 	rdctl	r2,status
   48b4c:	e0bffc15 	stw	r2,-16(fp)
   48b50:	e0fffc17 	ldw	r3,-16(fp)
   48b54:	00bfff84 	movi	r2,-2
   48b58:	1884703a 	and	r2,r3,r2
   48b5c:	1001703a 	wrctl	status,r2
   48b60:	e0bffc17 	ldw	r2,-16(fp)
   48b64:	e0bff715 	stw	r2,-36(fp)
   48b68:	e0bffd17 	ldw	r2,-12(fp)
   48b6c:	1080020b 	ldhu	r2,8(r2)
   48b70:	10bfffcc 	andi	r2,r2,65535
   48b74:	10000d26 	beq	r2,zero,48bac <OSSemPend+0x104>
   48b78:	e0bffd17 	ldw	r2,-12(fp)
   48b7c:	1080020b 	ldhu	r2,8(r2)
   48b80:	10bfffc4 	addi	r2,r2,-1
   48b84:	1007883a 	mov	r3,r2
   48b88:	e0bffd17 	ldw	r2,-12(fp)
   48b8c:	10c0020d 	sth	r3,8(r2)
   48b90:	e0bff717 	ldw	r2,-36(fp)
   48b94:	e0bff815 	stw	r2,-32(fp)
   48b98:	e0bff817 	ldw	r2,-32(fp)
   48b9c:	1001703a 	wrctl	status,r2
   48ba0:	e0bfff17 	ldw	r2,-4(fp)
   48ba4:	10000005 	stb	zero,0(r2)
   48ba8:	00003d06 	br	48ca0 <OSSemPend+0x1f8>
   48bac:	d0a70917 	ldw	r2,-25564(gp)
   48bb0:	d0e70917 	ldw	r3,-25564(gp)
   48bb4:	18c00c03 	ldbu	r3,48(r3)
   48bb8:	18c00054 	ori	r3,r3,1
   48bbc:	10c00c05 	stb	r3,48(r2)
   48bc0:	d0a70917 	ldw	r2,-25564(gp)
   48bc4:	10000c45 	stb	zero,49(r2)
   48bc8:	d0a70917 	ldw	r2,-25564(gp)
   48bcc:	e0fffe0b 	ldhu	r3,-8(fp)
   48bd0:	10c00b8d 	sth	r3,46(r2)
   48bd4:	e13ffd17 	ldw	r4,-12(fp)
   48bd8:	00446500 	call	44650 <OS_EventTaskWait>
   48bdc:	e0bff717 	ldw	r2,-36(fp)
   48be0:	e0bffb15 	stw	r2,-20(fp)
   48be4:	e0bffb17 	ldw	r2,-20(fp)
   48be8:	1001703a 	wrctl	status,r2
   48bec:	0044f040 	call	44f04 <OS_Sched>
   48bf0:	0005303a 	rdctl	r2,status
   48bf4:	e0bff915 	stw	r2,-28(fp)
   48bf8:	e0fff917 	ldw	r3,-28(fp)
   48bfc:	00bfff84 	movi	r2,-2
   48c00:	1884703a 	and	r2,r3,r2
   48c04:	1001703a 	wrctl	status,r2
   48c08:	e0bff917 	ldw	r2,-28(fp)
   48c0c:	e0bff715 	stw	r2,-36(fp)
   48c10:	d0a70917 	ldw	r2,-25564(gp)
   48c14:	10800c43 	ldbu	r2,49(r2)
   48c18:	10803fcc 	andi	r2,r2,255
   48c1c:	10000326 	beq	r2,zero,48c2c <OSSemPend+0x184>
   48c20:	108000a0 	cmpeqi	r2,r2,2
   48c24:	1000041e 	bne	r2,zero,48c38 <OSSemPend+0x190>
   48c28:	00000706 	br	48c48 <OSSemPend+0x1a0>
   48c2c:	e0bfff17 	ldw	r2,-4(fp)
   48c30:	10000005 	stb	zero,0(r2)
   48c34:	00000c06 	br	48c68 <OSSemPend+0x1c0>
   48c38:	e0bfff17 	ldw	r2,-4(fp)
   48c3c:	00c00384 	movi	r3,14
   48c40:	10c00005 	stb	r3,0(r2)
   48c44:	00000806 	br	48c68 <OSSemPend+0x1c0>
   48c48:	d0a70917 	ldw	r2,-25564(gp)
   48c4c:	e17ffd17 	ldw	r5,-12(fp)
   48c50:	1009883a 	mov	r4,r2
   48c54:	00448b00 	call	448b0 <OS_EventTaskRemove>
   48c58:	e0bfff17 	ldw	r2,-4(fp)
   48c5c:	00c00284 	movi	r3,10
   48c60:	10c00005 	stb	r3,0(r2)
   48c64:	0001883a 	nop
   48c68:	d0a70917 	ldw	r2,-25564(gp)
   48c6c:	10000c05 	stb	zero,48(r2)
   48c70:	d0a70917 	ldw	r2,-25564(gp)
   48c74:	10000c45 	stb	zero,49(r2)
   48c78:	d0a70917 	ldw	r2,-25564(gp)
   48c7c:	10000715 	stw	zero,28(r2)
   48c80:	d0a70917 	ldw	r2,-25564(gp)
   48c84:	10000815 	stw	zero,32(r2)
   48c88:	e0bff717 	ldw	r2,-36(fp)
   48c8c:	e0bffa15 	stw	r2,-24(fp)
   48c90:	e0bffa17 	ldw	r2,-24(fp)
   48c94:	1001703a 	wrctl	status,r2
   48c98:	00000106 	br	48ca0 <OSSemPend+0x1f8>
   48c9c:	0001883a 	nop
   48ca0:	e037883a 	mov	sp,fp
   48ca4:	dfc00117 	ldw	ra,4(sp)
   48ca8:	df000017 	ldw	fp,0(sp)
   48cac:	dec00204 	addi	sp,sp,8
   48cb0:	f800283a 	ret

00048cb4 <OSSemPendAbort>:
   48cb4:	defff604 	addi	sp,sp,-40
   48cb8:	dfc00915 	stw	ra,36(sp)
   48cbc:	df000815 	stw	fp,32(sp)
   48cc0:	df000804 	addi	fp,sp,32
   48cc4:	e13ffd15 	stw	r4,-12(fp)
   48cc8:	2805883a 	mov	r2,r5
   48ccc:	e1bfff15 	stw	r6,-4(fp)
   48cd0:	e0bffe05 	stb	r2,-8(fp)
   48cd4:	e03ff915 	stw	zero,-28(fp)
   48cd8:	e0bfff17 	ldw	r2,-4(fp)
   48cdc:	1000021e 	bne	r2,zero,48ce8 <OSSemPendAbort+0x34>
   48ce0:	0005883a 	mov	r2,zero
   48ce4:	00004906 	br	48e0c <OSSemPendAbort+0x158>
   48ce8:	e0bffd17 	ldw	r2,-12(fp)
   48cec:	1000051e 	bne	r2,zero,48d04 <OSSemPendAbort+0x50>
   48cf0:	e0bfff17 	ldw	r2,-4(fp)
   48cf4:	00c00104 	movi	r3,4
   48cf8:	10c00005 	stb	r3,0(r2)
   48cfc:	0005883a 	mov	r2,zero
   48d00:	00004206 	br	48e0c <OSSemPendAbort+0x158>
   48d04:	e0bffd17 	ldw	r2,-12(fp)
   48d08:	10800003 	ldbu	r2,0(r2)
   48d0c:	10803fcc 	andi	r2,r2,255
   48d10:	108000e0 	cmpeqi	r2,r2,3
   48d14:	1000051e 	bne	r2,zero,48d2c <OSSemPendAbort+0x78>
   48d18:	e0bfff17 	ldw	r2,-4(fp)
   48d1c:	00c00044 	movi	r3,1
   48d20:	10c00005 	stb	r3,0(r2)
   48d24:	0005883a 	mov	r2,zero
   48d28:	00003806 	br	48e0c <OSSemPendAbort+0x158>
   48d2c:	0005303a 	rdctl	r2,status
   48d30:	e0bffc15 	stw	r2,-16(fp)
   48d34:	e0fffc17 	ldw	r3,-16(fp)
   48d38:	00bfff84 	movi	r2,-2
   48d3c:	1884703a 	and	r2,r3,r2
   48d40:	1001703a 	wrctl	status,r2
   48d44:	e0bffc17 	ldw	r2,-16(fp)
   48d48:	e0bff915 	stw	r2,-28(fp)
   48d4c:	e0bffd17 	ldw	r2,-12(fp)
   48d50:	10800283 	ldbu	r2,10(r2)
   48d54:	10803fcc 	andi	r2,r2,255
   48d58:	10002526 	beq	r2,zero,48df0 <OSSemPendAbort+0x13c>
   48d5c:	e03ff805 	stb	zero,-32(fp)
   48d60:	e0bffe03 	ldbu	r2,-8(fp)
   48d64:	10800060 	cmpeqi	r2,r2,1
   48d68:	10000e26 	beq	r2,zero,48da4 <OSSemPendAbort+0xf0>
   48d6c:	00000806 	br	48d90 <OSSemPendAbort+0xdc>
   48d70:	01c00084 	movi	r7,2
   48d74:	01800044 	movi	r6,1
   48d78:	000b883a 	mov	r5,zero
   48d7c:	e13ffd17 	ldw	r4,-12(fp)
   48d80:	00444b80 	call	444b8 <OS_EventTaskRdy>
   48d84:	e0bff803 	ldbu	r2,-32(fp)
   48d88:	10800044 	addi	r2,r2,1
   48d8c:	e0bff805 	stb	r2,-32(fp)
   48d90:	e0bffd17 	ldw	r2,-12(fp)
   48d94:	10800283 	ldbu	r2,10(r2)
   48d98:	10803fcc 	andi	r2,r2,255
   48d9c:	103ff41e 	bne	r2,zero,48d70 <__alt_data_end+0xfffe3570>
   48da0:	00000906 	br	48dc8 <OSSemPendAbort+0x114>
   48da4:	01c00084 	movi	r7,2
   48da8:	01800044 	movi	r6,1
   48dac:	000b883a 	mov	r5,zero
   48db0:	e13ffd17 	ldw	r4,-12(fp)
   48db4:	00444b80 	call	444b8 <OS_EventTaskRdy>
   48db8:	e0bff803 	ldbu	r2,-32(fp)
   48dbc:	10800044 	addi	r2,r2,1
   48dc0:	e0bff805 	stb	r2,-32(fp)
   48dc4:	0001883a 	nop
   48dc8:	e0bff917 	ldw	r2,-28(fp)
   48dcc:	e0bffa15 	stw	r2,-24(fp)
   48dd0:	e0bffa17 	ldw	r2,-24(fp)
   48dd4:	1001703a 	wrctl	status,r2
   48dd8:	0044f040 	call	44f04 <OS_Sched>
   48ddc:	e0bfff17 	ldw	r2,-4(fp)
   48de0:	00c00384 	movi	r3,14
   48de4:	10c00005 	stb	r3,0(r2)
   48de8:	e0bff803 	ldbu	r2,-32(fp)
   48dec:	00000706 	br	48e0c <OSSemPendAbort+0x158>
   48df0:	e0bff917 	ldw	r2,-28(fp)
   48df4:	e0bffb15 	stw	r2,-20(fp)
   48df8:	e0bffb17 	ldw	r2,-20(fp)
   48dfc:	1001703a 	wrctl	status,r2
   48e00:	e0bfff17 	ldw	r2,-4(fp)
   48e04:	10000005 	stb	zero,0(r2)
   48e08:	0005883a 	mov	r2,zero
   48e0c:	e037883a 	mov	sp,fp
   48e10:	dfc00117 	ldw	ra,4(sp)
   48e14:	df000017 	ldw	fp,0(sp)
   48e18:	dec00204 	addi	sp,sp,8
   48e1c:	f800283a 	ret

00048e20 <OSSemPost>:
   48e20:	defff804 	addi	sp,sp,-32
   48e24:	dfc00715 	stw	ra,28(sp)
   48e28:	df000615 	stw	fp,24(sp)
   48e2c:	df000604 	addi	fp,sp,24
   48e30:	e13fff15 	stw	r4,-4(fp)
   48e34:	e03ffa15 	stw	zero,-24(fp)
   48e38:	e0bfff17 	ldw	r2,-4(fp)
   48e3c:	1000021e 	bne	r2,zero,48e48 <OSSemPost+0x28>
   48e40:	00800104 	movi	r2,4
   48e44:	00003506 	br	48f1c <OSSemPost+0xfc>
   48e48:	e0bfff17 	ldw	r2,-4(fp)
   48e4c:	10800003 	ldbu	r2,0(r2)
   48e50:	10803fcc 	andi	r2,r2,255
   48e54:	108000e0 	cmpeqi	r2,r2,3
   48e58:	1000021e 	bne	r2,zero,48e64 <OSSemPost+0x44>
   48e5c:	00800044 	movi	r2,1
   48e60:	00002e06 	br	48f1c <OSSemPost+0xfc>
   48e64:	0005303a 	rdctl	r2,status
   48e68:	e0bffe15 	stw	r2,-8(fp)
   48e6c:	e0fffe17 	ldw	r3,-8(fp)
   48e70:	00bfff84 	movi	r2,-2
   48e74:	1884703a 	and	r2,r3,r2
   48e78:	1001703a 	wrctl	status,r2
   48e7c:	e0bffe17 	ldw	r2,-8(fp)
   48e80:	e0bffa15 	stw	r2,-24(fp)
   48e84:	e0bfff17 	ldw	r2,-4(fp)
   48e88:	10800283 	ldbu	r2,10(r2)
   48e8c:	10803fcc 	andi	r2,r2,255
   48e90:	10000c26 	beq	r2,zero,48ec4 <OSSemPost+0xa4>
   48e94:	000f883a 	mov	r7,zero
   48e98:	01800044 	movi	r6,1
   48e9c:	000b883a 	mov	r5,zero
   48ea0:	e13fff17 	ldw	r4,-4(fp)
   48ea4:	00444b80 	call	444b8 <OS_EventTaskRdy>
   48ea8:	e0bffa17 	ldw	r2,-24(fp)
   48eac:	e0bffb15 	stw	r2,-20(fp)
   48eb0:	e0bffb17 	ldw	r2,-20(fp)
   48eb4:	1001703a 	wrctl	status,r2
   48eb8:	0044f040 	call	44f04 <OS_Sched>
   48ebc:	0005883a 	mov	r2,zero
   48ec0:	00001606 	br	48f1c <OSSemPost+0xfc>
   48ec4:	e0bfff17 	ldw	r2,-4(fp)
   48ec8:	1080020b 	ldhu	r2,8(r2)
   48ecc:	10ffffcc 	andi	r3,r2,65535
   48ed0:	00bfffd4 	movui	r2,65535
   48ed4:	18800c26 	beq	r3,r2,48f08 <OSSemPost+0xe8>
   48ed8:	e0bfff17 	ldw	r2,-4(fp)
   48edc:	1080020b 	ldhu	r2,8(r2)
   48ee0:	10800044 	addi	r2,r2,1
   48ee4:	1007883a 	mov	r3,r2
   48ee8:	e0bfff17 	ldw	r2,-4(fp)
   48eec:	10c0020d 	sth	r3,8(r2)
   48ef0:	e0bffa17 	ldw	r2,-24(fp)
   48ef4:	e0bffc15 	stw	r2,-16(fp)
   48ef8:	e0bffc17 	ldw	r2,-16(fp)
   48efc:	1001703a 	wrctl	status,r2
   48f00:	0005883a 	mov	r2,zero
   48f04:	00000506 	br	48f1c <OSSemPost+0xfc>
   48f08:	e0bffa17 	ldw	r2,-24(fp)
   48f0c:	e0bffd15 	stw	r2,-12(fp)
   48f10:	e0bffd17 	ldw	r2,-12(fp)
   48f14:	1001703a 	wrctl	status,r2
   48f18:	00800c84 	movi	r2,50
   48f1c:	e037883a 	mov	sp,fp
   48f20:	dfc00117 	ldw	ra,4(sp)
   48f24:	df000017 	ldw	fp,0(sp)
   48f28:	dec00204 	addi	sp,sp,8
   48f2c:	f800283a 	ret

00048f30 <OSSemQuery>:
   48f30:	defff704 	addi	sp,sp,-36
   48f34:	df000815 	stw	fp,32(sp)
   48f38:	df000804 	addi	fp,sp,32
   48f3c:	e13ffe15 	stw	r4,-8(fp)
   48f40:	e17fff15 	stw	r5,-4(fp)
   48f44:	e03ffb15 	stw	zero,-20(fp)
   48f48:	e0bffe17 	ldw	r2,-8(fp)
   48f4c:	1000021e 	bne	r2,zero,48f58 <OSSemQuery+0x28>
   48f50:	00800104 	movi	r2,4
   48f54:	00003606 	br	49030 <OSSemQuery+0x100>
   48f58:	e0bfff17 	ldw	r2,-4(fp)
   48f5c:	1000021e 	bne	r2,zero,48f68 <OSSemQuery+0x38>
   48f60:	00800244 	movi	r2,9
   48f64:	00003206 	br	49030 <OSSemQuery+0x100>
   48f68:	e0bffe17 	ldw	r2,-8(fp)
   48f6c:	10800003 	ldbu	r2,0(r2)
   48f70:	10803fcc 	andi	r2,r2,255
   48f74:	108000e0 	cmpeqi	r2,r2,3
   48f78:	1000021e 	bne	r2,zero,48f84 <OSSemQuery+0x54>
   48f7c:	00800044 	movi	r2,1
   48f80:	00002b06 	br	49030 <OSSemQuery+0x100>
   48f84:	0005303a 	rdctl	r2,status
   48f88:	e0bffd15 	stw	r2,-12(fp)
   48f8c:	e0fffd17 	ldw	r3,-12(fp)
   48f90:	00bfff84 	movi	r2,-2
   48f94:	1884703a 	and	r2,r3,r2
   48f98:	1001703a 	wrctl	status,r2
   48f9c:	e0bffd17 	ldw	r2,-12(fp)
   48fa0:	e0bffb15 	stw	r2,-20(fp)
   48fa4:	e0bffe17 	ldw	r2,-8(fp)
   48fa8:	10c00283 	ldbu	r3,10(r2)
   48fac:	e0bfff17 	ldw	r2,-4(fp)
   48fb0:	10c00145 	stb	r3,5(r2)
   48fb4:	e0bffe17 	ldw	r2,-8(fp)
   48fb8:	108002c4 	addi	r2,r2,11
   48fbc:	e0bff815 	stw	r2,-32(fp)
   48fc0:	e0bfff17 	ldw	r2,-4(fp)
   48fc4:	10800084 	addi	r2,r2,2
   48fc8:	e0bff915 	stw	r2,-28(fp)
   48fcc:	e03ffa05 	stb	zero,-24(fp)
   48fd0:	00000b06 	br	49000 <OSSemQuery+0xd0>
   48fd4:	e0bff917 	ldw	r2,-28(fp)
   48fd8:	10c00044 	addi	r3,r2,1
   48fdc:	e0fff915 	stw	r3,-28(fp)
   48fe0:	e0fff817 	ldw	r3,-32(fp)
   48fe4:	19000044 	addi	r4,r3,1
   48fe8:	e13ff815 	stw	r4,-32(fp)
   48fec:	18c00003 	ldbu	r3,0(r3)
   48ff0:	10c00005 	stb	r3,0(r2)
   48ff4:	e0bffa03 	ldbu	r2,-24(fp)
   48ff8:	10800044 	addi	r2,r2,1
   48ffc:	e0bffa05 	stb	r2,-24(fp)
   49000:	e0bffa03 	ldbu	r2,-24(fp)
   49004:	108000f0 	cmpltui	r2,r2,3
   49008:	103ff21e 	bne	r2,zero,48fd4 <__alt_data_end+0xfffe37d4>
   4900c:	e0bffe17 	ldw	r2,-8(fp)
   49010:	10c0020b 	ldhu	r3,8(r2)
   49014:	e0bfff17 	ldw	r2,-4(fp)
   49018:	10c0000d 	sth	r3,0(r2)
   4901c:	e0bffb17 	ldw	r2,-20(fp)
   49020:	e0bffc15 	stw	r2,-16(fp)
   49024:	e0bffc17 	ldw	r2,-16(fp)
   49028:	1001703a 	wrctl	status,r2
   4902c:	0005883a 	mov	r2,zero
   49030:	e037883a 	mov	sp,fp
   49034:	df000017 	ldw	fp,0(sp)
   49038:	dec00104 	addi	sp,sp,4
   4903c:	f800283a 	ret

00049040 <OSSemSet>:
   49040:	defff904 	addi	sp,sp,-28
   49044:	df000615 	stw	fp,24(sp)
   49048:	df000604 	addi	fp,sp,24
   4904c:	e13ffd15 	stw	r4,-12(fp)
   49050:	2805883a 	mov	r2,r5
   49054:	e1bfff15 	stw	r6,-4(fp)
   49058:	e0bffe0d 	sth	r2,-8(fp)
   4905c:	e03ffa15 	stw	zero,-24(fp)
   49060:	e0bfff17 	ldw	r2,-4(fp)
   49064:	10003126 	beq	r2,zero,4912c <OSSemSet+0xec>
   49068:	e0bffd17 	ldw	r2,-12(fp)
   4906c:	1000041e 	bne	r2,zero,49080 <OSSemSet+0x40>
   49070:	e0bfff17 	ldw	r2,-4(fp)
   49074:	00c00104 	movi	r3,4
   49078:	10c00005 	stb	r3,0(r2)
   4907c:	00002c06 	br	49130 <OSSemSet+0xf0>
   49080:	e0bffd17 	ldw	r2,-12(fp)
   49084:	10800003 	ldbu	r2,0(r2)
   49088:	10803fcc 	andi	r2,r2,255
   4908c:	108000e0 	cmpeqi	r2,r2,3
   49090:	1000041e 	bne	r2,zero,490a4 <OSSemSet+0x64>
   49094:	e0bfff17 	ldw	r2,-4(fp)
   49098:	00c00044 	movi	r3,1
   4909c:	10c00005 	stb	r3,0(r2)
   490a0:	00002306 	br	49130 <OSSemSet+0xf0>
   490a4:	0005303a 	rdctl	r2,status
   490a8:	e0bffc15 	stw	r2,-16(fp)
   490ac:	e0fffc17 	ldw	r3,-16(fp)
   490b0:	00bfff84 	movi	r2,-2
   490b4:	1884703a 	and	r2,r3,r2
   490b8:	1001703a 	wrctl	status,r2
   490bc:	e0bffc17 	ldw	r2,-16(fp)
   490c0:	e0bffa15 	stw	r2,-24(fp)
   490c4:	e0bfff17 	ldw	r2,-4(fp)
   490c8:	10000005 	stb	zero,0(r2)
   490cc:	e0bffd17 	ldw	r2,-12(fp)
   490d0:	1080020b 	ldhu	r2,8(r2)
   490d4:	10bfffcc 	andi	r2,r2,65535
   490d8:	10000426 	beq	r2,zero,490ec <OSSemSet+0xac>
   490dc:	e0bffd17 	ldw	r2,-12(fp)
   490e0:	e0fffe0b 	ldhu	r3,-8(fp)
   490e4:	10c0020d 	sth	r3,8(r2)
   490e8:	00000b06 	br	49118 <OSSemSet+0xd8>
   490ec:	e0bffd17 	ldw	r2,-12(fp)
   490f0:	10800283 	ldbu	r2,10(r2)
   490f4:	10803fcc 	andi	r2,r2,255
   490f8:	1000041e 	bne	r2,zero,4910c <OSSemSet+0xcc>
   490fc:	e0bffd17 	ldw	r2,-12(fp)
   49100:	e0fffe0b 	ldhu	r3,-8(fp)
   49104:	10c0020d 	sth	r3,8(r2)
   49108:	00000306 	br	49118 <OSSemSet+0xd8>
   4910c:	e0bfff17 	ldw	r2,-4(fp)
   49110:	00c01244 	movi	r3,73
   49114:	10c00005 	stb	r3,0(r2)
   49118:	e0bffa17 	ldw	r2,-24(fp)
   4911c:	e0bffb15 	stw	r2,-20(fp)
   49120:	e0bffb17 	ldw	r2,-20(fp)
   49124:	1001703a 	wrctl	status,r2
   49128:	00000106 	br	49130 <OSSemSet+0xf0>
   4912c:	0001883a 	nop
   49130:	e037883a 	mov	sp,fp
   49134:	df000017 	ldw	fp,0(sp)
   49138:	dec00104 	addi	sp,sp,4
   4913c:	f800283a 	ret

00049140 <OSTaskChangePrio>:
   49140:	defff104 	addi	sp,sp,-60
   49144:	dfc00e15 	stw	ra,56(sp)
   49148:	df000d15 	stw	fp,52(sp)
   4914c:	df000d04 	addi	fp,sp,52
   49150:	2007883a 	mov	r3,r4
   49154:	2805883a 	mov	r2,r5
   49158:	e0fffe05 	stb	r3,-8(fp)
   4915c:	e0bfff05 	stb	r2,-4(fp)
   49160:	e03ff515 	stw	zero,-44(fp)
   49164:	e0bffe03 	ldbu	r2,-8(fp)
   49168:	10800530 	cmpltui	r2,r2,20
   4916c:	1000051e 	bne	r2,zero,49184 <OSTaskChangePrio+0x44>
   49170:	e0bffe03 	ldbu	r2,-8(fp)
   49174:	10803fe0 	cmpeqi	r2,r2,255
   49178:	1000021e 	bne	r2,zero,49184 <OSTaskChangePrio+0x44>
   4917c:	00800a84 	movi	r2,42
   49180:	00012606 	br	4961c <OSTaskChangePrio+0x4dc>
   49184:	e0bfff03 	ldbu	r2,-4(fp)
   49188:	10800530 	cmpltui	r2,r2,20
   4918c:	1000021e 	bne	r2,zero,49198 <OSTaskChangePrio+0x58>
   49190:	00800a84 	movi	r2,42
   49194:	00012106 	br	4961c <OSTaskChangePrio+0x4dc>
   49198:	0005303a 	rdctl	r2,status
   4919c:	e0bffd15 	stw	r2,-12(fp)
   491a0:	e0fffd17 	ldw	r3,-12(fp)
   491a4:	00bfff84 	movi	r2,-2
   491a8:	1884703a 	and	r2,r3,r2
   491ac:	1001703a 	wrctl	status,r2
   491b0:	e0bffd17 	ldw	r2,-12(fp)
   491b4:	e0bff515 	stw	r2,-44(fp)
   491b8:	e0ffff03 	ldbu	r3,-4(fp)
   491bc:	00800174 	movhi	r2,5
   491c0:	10975104 	addi	r2,r2,23876
   491c4:	18c7883a 	add	r3,r3,r3
   491c8:	18c7883a 	add	r3,r3,r3
   491cc:	10c5883a 	add	r2,r2,r3
   491d0:	10800017 	ldw	r2,0(r2)
   491d4:	10000626 	beq	r2,zero,491f0 <OSTaskChangePrio+0xb0>
   491d8:	e0bff517 	ldw	r2,-44(fp)
   491dc:	e0bff615 	stw	r2,-40(fp)
   491e0:	e0bff617 	ldw	r2,-40(fp)
   491e4:	1001703a 	wrctl	status,r2
   491e8:	00800a04 	movi	r2,40
   491ec:	00010b06 	br	4961c <OSTaskChangePrio+0x4dc>
   491f0:	e0bffe03 	ldbu	r2,-8(fp)
   491f4:	10803fd8 	cmpnei	r2,r2,255
   491f8:	1000031e 	bne	r2,zero,49208 <OSTaskChangePrio+0xc8>
   491fc:	d0a70917 	ldw	r2,-25564(gp)
   49200:	10800c83 	ldbu	r2,50(r2)
   49204:	e0bffe05 	stb	r2,-8(fp)
   49208:	e0fffe03 	ldbu	r3,-8(fp)
   4920c:	00800174 	movhi	r2,5
   49210:	10975104 	addi	r2,r2,23876
   49214:	18c7883a 	add	r3,r3,r3
   49218:	18c7883a 	add	r3,r3,r3
   4921c:	10c5883a 	add	r2,r2,r3
   49220:	10800017 	ldw	r2,0(r2)
   49224:	e0bff815 	stw	r2,-32(fp)
   49228:	e0bff817 	ldw	r2,-32(fp)
   4922c:	1000061e 	bne	r2,zero,49248 <OSTaskChangePrio+0x108>
   49230:	e0bff517 	ldw	r2,-44(fp)
   49234:	e0bff715 	stw	r2,-36(fp)
   49238:	e0bff717 	ldw	r2,-36(fp)
   4923c:	1001703a 	wrctl	status,r2
   49240:	00800a44 	movi	r2,41
   49244:	0000f506 	br	4961c <OSTaskChangePrio+0x4dc>
   49248:	e0bff817 	ldw	r2,-32(fp)
   4924c:	10800058 	cmpnei	r2,r2,1
   49250:	1000061e 	bne	r2,zero,4926c <OSTaskChangePrio+0x12c>
   49254:	e0bff517 	ldw	r2,-44(fp)
   49258:	e0bff915 	stw	r2,-28(fp)
   4925c:	e0bff917 	ldw	r2,-28(fp)
   49260:	1001703a 	wrctl	status,r2
   49264:	008010c4 	movi	r2,67
   49268:	0000ec06 	br	4961c <OSTaskChangePrio+0x4dc>
   4926c:	e0bfff03 	ldbu	r2,-4(fp)
   49270:	1004d0fa 	srli	r2,r2,3
   49274:	e0bffb05 	stb	r2,-20(fp)
   49278:	e0bfff03 	ldbu	r2,-4(fp)
   4927c:	108001cc 	andi	r2,r2,7
   49280:	e0bffb45 	stb	r2,-19(fp)
   49284:	e0bffb03 	ldbu	r2,-20(fp)
   49288:	00c00044 	movi	r3,1
   4928c:	1884983a 	sll	r2,r3,r2
   49290:	e0bffb85 	stb	r2,-18(fp)
   49294:	e0bffb43 	ldbu	r2,-19(fp)
   49298:	00c00044 	movi	r3,1
   4929c:	1884983a 	sll	r2,r3,r2
   492a0:	e0bffbc5 	stb	r2,-17(fp)
   492a4:	e0fffe03 	ldbu	r3,-8(fp)
   492a8:	00800174 	movhi	r2,5
   492ac:	10975104 	addi	r2,r2,23876
   492b0:	18c7883a 	add	r3,r3,r3
   492b4:	18c7883a 	add	r3,r3,r3
   492b8:	10c5883a 	add	r2,r2,r3
   492bc:	10000015 	stw	zero,0(r2)
   492c0:	e0ffff03 	ldbu	r3,-4(fp)
   492c4:	00800174 	movhi	r2,5
   492c8:	10975104 	addi	r2,r2,23876
   492cc:	18c7883a 	add	r3,r3,r3
   492d0:	18c7883a 	add	r3,r3,r3
   492d4:	10c5883a 	add	r2,r2,r3
   492d8:	e0fff817 	ldw	r3,-32(fp)
   492dc:	10c00015 	stw	r3,0(r2)
   492e0:	e0bff817 	ldw	r2,-32(fp)
   492e4:	10800d03 	ldbu	r2,52(r2)
   492e8:	e0bffc05 	stb	r2,-16(fp)
   492ec:	e0bff817 	ldw	r2,-32(fp)
   492f0:	10800d83 	ldbu	r2,54(r2)
   492f4:	e0bffc45 	stb	r2,-15(fp)
   492f8:	e0bff817 	ldw	r2,-32(fp)
   492fc:	10800d43 	ldbu	r2,53(r2)
   49300:	e0bffc85 	stb	r2,-14(fp)
   49304:	e0fffc03 	ldbu	r3,-16(fp)
   49308:	d0a70644 	addi	r2,gp,-25575
   4930c:	1885883a 	add	r2,r3,r2
   49310:	10c00003 	ldbu	r3,0(r2)
   49314:	e0bffc83 	ldbu	r2,-14(fp)
   49318:	1884703a 	and	r2,r3,r2
   4931c:	10803fcc 	andi	r2,r2,255
   49320:	10002826 	beq	r2,zero,493c4 <OSTaskChangePrio+0x284>
   49324:	e0fffc03 	ldbu	r3,-16(fp)
   49328:	e13ffc03 	ldbu	r4,-16(fp)
   4932c:	d0a70644 	addi	r2,gp,-25575
   49330:	2085883a 	add	r2,r4,r2
   49334:	10800003 	ldbu	r2,0(r2)
   49338:	1009883a 	mov	r4,r2
   4933c:	e0bffc83 	ldbu	r2,-14(fp)
   49340:	0084303a 	nor	r2,zero,r2
   49344:	2084703a 	and	r2,r4,r2
   49348:	1009883a 	mov	r4,r2
   4934c:	d0a70644 	addi	r2,gp,-25575
   49350:	1885883a 	add	r2,r3,r2
   49354:	11000005 	stb	r4,0(r2)
   49358:	e0fffc03 	ldbu	r3,-16(fp)
   4935c:	d0a70644 	addi	r2,gp,-25575
   49360:	1885883a 	add	r2,r3,r2
   49364:	10800003 	ldbu	r2,0(r2)
   49368:	10803fcc 	andi	r2,r2,255
   4936c:	1000061e 	bne	r2,zero,49388 <OSTaskChangePrio+0x248>
   49370:	e0bffc43 	ldbu	r2,-15(fp)
   49374:	0084303a 	nor	r2,zero,r2
   49378:	1007883a 	mov	r3,r2
   4937c:	d0a70603 	ldbu	r2,-25576(gp)
   49380:	1884703a 	and	r2,r3,r2
   49384:	d0a70605 	stb	r2,-25576(gp)
   49388:	d0e70603 	ldbu	r3,-25576(gp)
   4938c:	e0bffb83 	ldbu	r2,-18(fp)
   49390:	1884b03a 	or	r2,r3,r2
   49394:	d0a70605 	stb	r2,-25576(gp)
   49398:	e0fffb03 	ldbu	r3,-20(fp)
   4939c:	e13ffb03 	ldbu	r4,-20(fp)
   493a0:	d0a70644 	addi	r2,gp,-25575
   493a4:	2085883a 	add	r2,r4,r2
   493a8:	11000003 	ldbu	r4,0(r2)
   493ac:	e0bffbc3 	ldbu	r2,-17(fp)
   493b0:	2084b03a 	or	r2,r4,r2
   493b4:	1009883a 	mov	r4,r2
   493b8:	d0a70644 	addi	r2,gp,-25575
   493bc:	1885883a 	add	r2,r3,r2
   493c0:	11000005 	stb	r4,0(r2)
   493c4:	e0bff817 	ldw	r2,-32(fp)
   493c8:	10800717 	ldw	r2,28(r2)
   493cc:	e0bff315 	stw	r2,-52(fp)
   493d0:	e0bff317 	ldw	r2,-52(fp)
   493d4:	10003326 	beq	r2,zero,494a4 <OSTaskChangePrio+0x364>
   493d8:	e0bffc03 	ldbu	r2,-16(fp)
   493dc:	e0fffc03 	ldbu	r3,-16(fp)
   493e0:	e13ff317 	ldw	r4,-52(fp)
   493e4:	20c7883a 	add	r3,r4,r3
   493e8:	18c002c4 	addi	r3,r3,11
   493ec:	18c00003 	ldbu	r3,0(r3)
   493f0:	1809883a 	mov	r4,r3
   493f4:	e0fffc83 	ldbu	r3,-14(fp)
   493f8:	00c6303a 	nor	r3,zero,r3
   493fc:	20c6703a 	and	r3,r4,r3
   49400:	1809883a 	mov	r4,r3
   49404:	e0fff317 	ldw	r3,-52(fp)
   49408:	1885883a 	add	r2,r3,r2
   4940c:	108002c4 	addi	r2,r2,11
   49410:	11000005 	stb	r4,0(r2)
   49414:	e0bffc03 	ldbu	r2,-16(fp)
   49418:	e0fff317 	ldw	r3,-52(fp)
   4941c:	1885883a 	add	r2,r3,r2
   49420:	108002c4 	addi	r2,r2,11
   49424:	10800003 	ldbu	r2,0(r2)
   49428:	10803fcc 	andi	r2,r2,255
   4942c:	1000091e 	bne	r2,zero,49454 <OSTaskChangePrio+0x314>
   49430:	e0bff317 	ldw	r2,-52(fp)
   49434:	10800283 	ldbu	r2,10(r2)
   49438:	1007883a 	mov	r3,r2
   4943c:	e0bffc43 	ldbu	r2,-15(fp)
   49440:	0084303a 	nor	r2,zero,r2
   49444:	1884703a 	and	r2,r3,r2
   49448:	1007883a 	mov	r3,r2
   4944c:	e0bff317 	ldw	r2,-52(fp)
   49450:	10c00285 	stb	r3,10(r2)
   49454:	e0bff317 	ldw	r2,-52(fp)
   49458:	10c00283 	ldbu	r3,10(r2)
   4945c:	e0bffb83 	ldbu	r2,-18(fp)
   49460:	1884b03a 	or	r2,r3,r2
   49464:	1007883a 	mov	r3,r2
   49468:	e0bff317 	ldw	r2,-52(fp)
   4946c:	10c00285 	stb	r3,10(r2)
   49470:	e0bffb03 	ldbu	r2,-20(fp)
   49474:	e0fffb03 	ldbu	r3,-20(fp)
   49478:	e13ff317 	ldw	r4,-52(fp)
   4947c:	20c7883a 	add	r3,r4,r3
   49480:	18c002c4 	addi	r3,r3,11
   49484:	19000003 	ldbu	r4,0(r3)
   49488:	e0fffbc3 	ldbu	r3,-17(fp)
   4948c:	20c6b03a 	or	r3,r4,r3
   49490:	1809883a 	mov	r4,r3
   49494:	e0fff317 	ldw	r3,-52(fp)
   49498:	1885883a 	add	r2,r3,r2
   4949c:	108002c4 	addi	r2,r2,11
   494a0:	11000005 	stb	r4,0(r2)
   494a4:	e0bff817 	ldw	r2,-32(fp)
   494a8:	10800817 	ldw	r2,32(r2)
   494ac:	10004226 	beq	r2,zero,495b8 <OSTaskChangePrio+0x478>
   494b0:	e0bff817 	ldw	r2,-32(fp)
   494b4:	10800817 	ldw	r2,32(r2)
   494b8:	e0bff415 	stw	r2,-48(fp)
   494bc:	e0bff417 	ldw	r2,-48(fp)
   494c0:	10800017 	ldw	r2,0(r2)
   494c4:	e0bff315 	stw	r2,-52(fp)
   494c8:	00003906 	br	495b0 <OSTaskChangePrio+0x470>
   494cc:	e0bffc03 	ldbu	r2,-16(fp)
   494d0:	e0fffc03 	ldbu	r3,-16(fp)
   494d4:	e13ff317 	ldw	r4,-52(fp)
   494d8:	20c7883a 	add	r3,r4,r3
   494dc:	18c002c4 	addi	r3,r3,11
   494e0:	18c00003 	ldbu	r3,0(r3)
   494e4:	1809883a 	mov	r4,r3
   494e8:	e0fffc83 	ldbu	r3,-14(fp)
   494ec:	00c6303a 	nor	r3,zero,r3
   494f0:	20c6703a 	and	r3,r4,r3
   494f4:	1809883a 	mov	r4,r3
   494f8:	e0fff317 	ldw	r3,-52(fp)
   494fc:	1885883a 	add	r2,r3,r2
   49500:	108002c4 	addi	r2,r2,11
   49504:	11000005 	stb	r4,0(r2)
   49508:	e0bffc03 	ldbu	r2,-16(fp)
   4950c:	e0fff317 	ldw	r3,-52(fp)
   49510:	1885883a 	add	r2,r3,r2
   49514:	108002c4 	addi	r2,r2,11
   49518:	10800003 	ldbu	r2,0(r2)
   4951c:	10803fcc 	andi	r2,r2,255
   49520:	1000091e 	bne	r2,zero,49548 <OSTaskChangePrio+0x408>
   49524:	e0bff317 	ldw	r2,-52(fp)
   49528:	10800283 	ldbu	r2,10(r2)
   4952c:	1007883a 	mov	r3,r2
   49530:	e0bffc43 	ldbu	r2,-15(fp)
   49534:	0084303a 	nor	r2,zero,r2
   49538:	1884703a 	and	r2,r3,r2
   4953c:	1007883a 	mov	r3,r2
   49540:	e0bff317 	ldw	r2,-52(fp)
   49544:	10c00285 	stb	r3,10(r2)
   49548:	e0bff317 	ldw	r2,-52(fp)
   4954c:	10c00283 	ldbu	r3,10(r2)
   49550:	e0bffb83 	ldbu	r2,-18(fp)
   49554:	1884b03a 	or	r2,r3,r2
   49558:	1007883a 	mov	r3,r2
   4955c:	e0bff317 	ldw	r2,-52(fp)
   49560:	10c00285 	stb	r3,10(r2)
   49564:	e0bffb03 	ldbu	r2,-20(fp)
   49568:	e0fffb03 	ldbu	r3,-20(fp)
   4956c:	e13ff317 	ldw	r4,-52(fp)
   49570:	20c7883a 	add	r3,r4,r3
   49574:	18c002c4 	addi	r3,r3,11
   49578:	19000003 	ldbu	r4,0(r3)
   4957c:	e0fffbc3 	ldbu	r3,-17(fp)
   49580:	20c6b03a 	or	r3,r4,r3
   49584:	1809883a 	mov	r4,r3
   49588:	e0fff317 	ldw	r3,-52(fp)
   4958c:	1885883a 	add	r2,r3,r2
   49590:	108002c4 	addi	r2,r2,11
   49594:	11000005 	stb	r4,0(r2)
   49598:	e0bff417 	ldw	r2,-48(fp)
   4959c:	10800104 	addi	r2,r2,4
   495a0:	e0bff415 	stw	r2,-48(fp)
   495a4:	e0bff417 	ldw	r2,-48(fp)
   495a8:	10800017 	ldw	r2,0(r2)
   495ac:	e0bff315 	stw	r2,-52(fp)
   495b0:	e0bff317 	ldw	r2,-52(fp)
   495b4:	103fc51e 	bne	r2,zero,494cc <__alt_data_end+0xfffe3ccc>
   495b8:	e0bff817 	ldw	r2,-32(fp)
   495bc:	e0ffff03 	ldbu	r3,-4(fp)
   495c0:	10c00c85 	stb	r3,50(r2)
   495c4:	e0bff817 	ldw	r2,-32(fp)
   495c8:	e0fffb03 	ldbu	r3,-20(fp)
   495cc:	10c00d05 	stb	r3,52(r2)
   495d0:	e0bff817 	ldw	r2,-32(fp)
   495d4:	e0fffb43 	ldbu	r3,-19(fp)
   495d8:	10c00cc5 	stb	r3,51(r2)
   495dc:	e0bff817 	ldw	r2,-32(fp)
   495e0:	e0fffb83 	ldbu	r3,-18(fp)
   495e4:	10c00d85 	stb	r3,54(r2)
   495e8:	e0bff817 	ldw	r2,-32(fp)
   495ec:	e0fffbc3 	ldbu	r3,-17(fp)
   495f0:	10c00d45 	stb	r3,53(r2)
   495f4:	e0bff517 	ldw	r2,-44(fp)
   495f8:	e0bffa15 	stw	r2,-24(fp)
   495fc:	e0bffa17 	ldw	r2,-24(fp)
   49600:	1001703a 	wrctl	status,r2
   49604:	d0a6fa43 	ldbu	r2,-25623(gp)
   49608:	10803fcc 	andi	r2,r2,255
   4960c:	10800058 	cmpnei	r2,r2,1
   49610:	1000011e 	bne	r2,zero,49618 <OSTaskChangePrio+0x4d8>
   49614:	0044f040 	call	44f04 <OS_Sched>
   49618:	0005883a 	mov	r2,zero
   4961c:	e037883a 	mov	sp,fp
   49620:	dfc00117 	ldw	ra,4(sp)
   49624:	df000017 	ldw	fp,0(sp)
   49628:	dec00204 	addi	sp,sp,8
   4962c:	f800283a 	ret

00049630 <OSTaskCreate>:
   49630:	deffee04 	addi	sp,sp,-72
   49634:	dfc01115 	stw	ra,68(sp)
   49638:	df001015 	stw	fp,64(sp)
   4963c:	df001004 	addi	fp,sp,64
   49640:	e13ffc15 	stw	r4,-16(fp)
   49644:	e17ffd15 	stw	r5,-12(fp)
   49648:	e1bffe15 	stw	r6,-8(fp)
   4964c:	3805883a 	mov	r2,r7
   49650:	e0bfff05 	stb	r2,-4(fp)
   49654:	e03ff315 	stw	zero,-52(fp)
   49658:	e0bfff03 	ldbu	r2,-4(fp)
   4965c:	10800570 	cmpltui	r2,r2,21
   49660:	1000021e 	bne	r2,zero,4966c <OSTaskCreate+0x3c>
   49664:	00800a84 	movi	r2,42
   49668:	00005706 	br	497c8 <OSTaskCreate+0x198>
   4966c:	0005303a 	rdctl	r2,status
   49670:	e0bffb15 	stw	r2,-20(fp)
   49674:	e0fffb17 	ldw	r3,-20(fp)
   49678:	00bfff84 	movi	r2,-2
   4967c:	1884703a 	and	r2,r3,r2
   49680:	1001703a 	wrctl	status,r2
   49684:	e0bffb17 	ldw	r2,-20(fp)
   49688:	e0bff315 	stw	r2,-52(fp)
   4968c:	d0a70803 	ldbu	r2,-25568(gp)
   49690:	10803fcc 	andi	r2,r2,255
   49694:	10000626 	beq	r2,zero,496b0 <OSTaskCreate+0x80>
   49698:	e0bff317 	ldw	r2,-52(fp)
   4969c:	e0bff415 	stw	r2,-48(fp)
   496a0:	e0bff417 	ldw	r2,-48(fp)
   496a4:	1001703a 	wrctl	status,r2
   496a8:	00800f04 	movi	r2,60
   496ac:	00004606 	br	497c8 <OSTaskCreate+0x198>
   496b0:	e0ffff03 	ldbu	r3,-4(fp)
   496b4:	00800174 	movhi	r2,5
   496b8:	10975104 	addi	r2,r2,23876
   496bc:	18c7883a 	add	r3,r3,r3
   496c0:	18c7883a 	add	r3,r3,r3
   496c4:	10c5883a 	add	r2,r2,r3
   496c8:	10800017 	ldw	r2,0(r2)
   496cc:	1000391e 	bne	r2,zero,497b4 <OSTaskCreate+0x184>
   496d0:	e0ffff03 	ldbu	r3,-4(fp)
   496d4:	00800174 	movhi	r2,5
   496d8:	10975104 	addi	r2,r2,23876
   496dc:	18c7883a 	add	r3,r3,r3
   496e0:	18c7883a 	add	r3,r3,r3
   496e4:	10c5883a 	add	r2,r2,r3
   496e8:	00c00044 	movi	r3,1
   496ec:	10c00015 	stw	r3,0(r2)
   496f0:	e0bff317 	ldw	r2,-52(fp)
   496f4:	e0bff515 	stw	r2,-44(fp)
   496f8:	e0bff517 	ldw	r2,-44(fp)
   496fc:	1001703a 	wrctl	status,r2
   49700:	000f883a 	mov	r7,zero
   49704:	e1bffe17 	ldw	r6,-8(fp)
   49708:	e17ffd17 	ldw	r5,-12(fp)
   4970c:	e13ffc17 	ldw	r4,-16(fp)
   49710:	004c6d00 	call	4c6d0 <OSTaskStkInit>
   49714:	e0bff715 	stw	r2,-36(fp)
   49718:	e0bfff03 	ldbu	r2,-4(fp)
   4971c:	d8000215 	stw	zero,8(sp)
   49720:	d8000115 	stw	zero,4(sp)
   49724:	d8000015 	stw	zero,0(sp)
   49728:	000f883a 	mov	r7,zero
   4972c:	000d883a 	mov	r6,zero
   49730:	e17ff717 	ldw	r5,-36(fp)
   49734:	1009883a 	mov	r4,r2
   49738:	00453040 	call	45304 <OS_TCBInit>
   4973c:	e0bff805 	stb	r2,-32(fp)
   49740:	e0bff803 	ldbu	r2,-32(fp)
   49744:	1000061e 	bne	r2,zero,49760 <OSTaskCreate+0x130>
   49748:	d0a6fa43 	ldbu	r2,-25623(gp)
   4974c:	10803fcc 	andi	r2,r2,255
   49750:	10800058 	cmpnei	r2,r2,1
   49754:	1000151e 	bne	r2,zero,497ac <OSTaskCreate+0x17c>
   49758:	0044f040 	call	44f04 <OS_Sched>
   4975c:	00001306 	br	497ac <OSTaskCreate+0x17c>
   49760:	0005303a 	rdctl	r2,status
   49764:	e0bffa15 	stw	r2,-24(fp)
   49768:	e0fffa17 	ldw	r3,-24(fp)
   4976c:	00bfff84 	movi	r2,-2
   49770:	1884703a 	and	r2,r3,r2
   49774:	1001703a 	wrctl	status,r2
   49778:	e0bffa17 	ldw	r2,-24(fp)
   4977c:	e0bff315 	stw	r2,-52(fp)
   49780:	e0ffff03 	ldbu	r3,-4(fp)
   49784:	00800174 	movhi	r2,5
   49788:	10975104 	addi	r2,r2,23876
   4978c:	18c7883a 	add	r3,r3,r3
   49790:	18c7883a 	add	r3,r3,r3
   49794:	10c5883a 	add	r2,r2,r3
   49798:	10000015 	stw	zero,0(r2)
   4979c:	e0bff317 	ldw	r2,-52(fp)
   497a0:	e0bff615 	stw	r2,-40(fp)
   497a4:	e0bff617 	ldw	r2,-40(fp)
   497a8:	1001703a 	wrctl	status,r2
   497ac:	e0bff803 	ldbu	r2,-32(fp)
   497b0:	00000506 	br	497c8 <OSTaskCreate+0x198>
   497b4:	e0bff317 	ldw	r2,-52(fp)
   497b8:	e0bff915 	stw	r2,-28(fp)
   497bc:	e0bff917 	ldw	r2,-28(fp)
   497c0:	1001703a 	wrctl	status,r2
   497c4:	00800a04 	movi	r2,40
   497c8:	e037883a 	mov	sp,fp
   497cc:	dfc00117 	ldw	ra,4(sp)
   497d0:	df000017 	ldw	fp,0(sp)
   497d4:	dec00204 	addi	sp,sp,8
   497d8:	f800283a 	ret

000497dc <OSTaskCreateExt>:
   497dc:	deffec04 	addi	sp,sp,-80
   497e0:	dfc01315 	stw	ra,76(sp)
   497e4:	df001215 	stw	fp,72(sp)
   497e8:	df001204 	addi	fp,sp,72
   497ec:	e13ffa15 	stw	r4,-24(fp)
   497f0:	e17ffb15 	stw	r5,-20(fp)
   497f4:	e1bffc15 	stw	r6,-16(fp)
   497f8:	3809883a 	mov	r4,r7
   497fc:	e0c00217 	ldw	r3,8(fp)
   49800:	e0800617 	ldw	r2,24(fp)
   49804:	e13ffd05 	stb	r4,-12(fp)
   49808:	e0fffe0d 	sth	r3,-8(fp)
   4980c:	e0bfff0d 	sth	r2,-4(fp)
   49810:	e03ff115 	stw	zero,-60(fp)
   49814:	e0bffd03 	ldbu	r2,-12(fp)
   49818:	10800570 	cmpltui	r2,r2,21
   4981c:	1000021e 	bne	r2,zero,49828 <OSTaskCreateExt+0x4c>
   49820:	00800a84 	movi	r2,42
   49824:	00006106 	br	499ac <OSTaskCreateExt+0x1d0>
   49828:	0005303a 	rdctl	r2,status
   4982c:	e0bff915 	stw	r2,-28(fp)
   49830:	e0fff917 	ldw	r3,-28(fp)
   49834:	00bfff84 	movi	r2,-2
   49838:	1884703a 	and	r2,r3,r2
   4983c:	1001703a 	wrctl	status,r2
   49840:	e0bff917 	ldw	r2,-28(fp)
   49844:	e0bff115 	stw	r2,-60(fp)
   49848:	d0a70803 	ldbu	r2,-25568(gp)
   4984c:	10803fcc 	andi	r2,r2,255
   49850:	10000626 	beq	r2,zero,4986c <OSTaskCreateExt+0x90>
   49854:	e0bff117 	ldw	r2,-60(fp)
   49858:	e0bff215 	stw	r2,-56(fp)
   4985c:	e0bff217 	ldw	r2,-56(fp)
   49860:	1001703a 	wrctl	status,r2
   49864:	00800f04 	movi	r2,60
   49868:	00005006 	br	499ac <OSTaskCreateExt+0x1d0>
   4986c:	e0fffd03 	ldbu	r3,-12(fp)
   49870:	00800174 	movhi	r2,5
   49874:	10975104 	addi	r2,r2,23876
   49878:	18c7883a 	add	r3,r3,r3
   4987c:	18c7883a 	add	r3,r3,r3
   49880:	10c5883a 	add	r2,r2,r3
   49884:	10800017 	ldw	r2,0(r2)
   49888:	1000431e 	bne	r2,zero,49998 <OSTaskCreateExt+0x1bc>
   4988c:	e0fffd03 	ldbu	r3,-12(fp)
   49890:	00800174 	movhi	r2,5
   49894:	10975104 	addi	r2,r2,23876
   49898:	18c7883a 	add	r3,r3,r3
   4989c:	18c7883a 	add	r3,r3,r3
   498a0:	10c5883a 	add	r2,r2,r3
   498a4:	00c00044 	movi	r3,1
   498a8:	10c00015 	stw	r3,0(r2)
   498ac:	e0bff117 	ldw	r2,-60(fp)
   498b0:	e0bff315 	stw	r2,-52(fp)
   498b4:	e0bff317 	ldw	r2,-52(fp)
   498b8:	1001703a 	wrctl	status,r2
   498bc:	e0bfff0b 	ldhu	r2,-4(fp)
   498c0:	100d883a 	mov	r6,r2
   498c4:	e1400417 	ldw	r5,16(fp)
   498c8:	e1000317 	ldw	r4,12(fp)
   498cc:	004a83c0 	call	4a83c <OS_TaskStkClr>
   498d0:	e0bfff0b 	ldhu	r2,-4(fp)
   498d4:	100f883a 	mov	r7,r2
   498d8:	e1bffc17 	ldw	r6,-16(fp)
   498dc:	e17ffb17 	ldw	r5,-20(fp)
   498e0:	e13ffa17 	ldw	r4,-24(fp)
   498e4:	004c6d00 	call	4c6d0 <OSTaskStkInit>
   498e8:	e0bff515 	stw	r2,-44(fp)
   498ec:	e0fffd03 	ldbu	r3,-12(fp)
   498f0:	e13ffe0b 	ldhu	r4,-8(fp)
   498f4:	e0bfff0b 	ldhu	r2,-4(fp)
   498f8:	d8800215 	stw	r2,8(sp)
   498fc:	e0800517 	ldw	r2,20(fp)
   49900:	d8800115 	stw	r2,4(sp)
   49904:	e0800417 	ldw	r2,16(fp)
   49908:	d8800015 	stw	r2,0(sp)
   4990c:	200f883a 	mov	r7,r4
   49910:	e1800317 	ldw	r6,12(fp)
   49914:	e17ff517 	ldw	r5,-44(fp)
   49918:	1809883a 	mov	r4,r3
   4991c:	00453040 	call	45304 <OS_TCBInit>
   49920:	e0bff605 	stb	r2,-40(fp)
   49924:	e0bff603 	ldbu	r2,-40(fp)
   49928:	1000061e 	bne	r2,zero,49944 <OSTaskCreateExt+0x168>
   4992c:	d0a6fa43 	ldbu	r2,-25623(gp)
   49930:	10803fcc 	andi	r2,r2,255
   49934:	10800058 	cmpnei	r2,r2,1
   49938:	1000151e 	bne	r2,zero,49990 <OSTaskCreateExt+0x1b4>
   4993c:	0044f040 	call	44f04 <OS_Sched>
   49940:	00001306 	br	49990 <OSTaskCreateExt+0x1b4>
   49944:	0005303a 	rdctl	r2,status
   49948:	e0bff815 	stw	r2,-32(fp)
   4994c:	e0fff817 	ldw	r3,-32(fp)
   49950:	00bfff84 	movi	r2,-2
   49954:	1884703a 	and	r2,r3,r2
   49958:	1001703a 	wrctl	status,r2
   4995c:	e0bff817 	ldw	r2,-32(fp)
   49960:	e0bff115 	stw	r2,-60(fp)
   49964:	e0fffd03 	ldbu	r3,-12(fp)
   49968:	00800174 	movhi	r2,5
   4996c:	10975104 	addi	r2,r2,23876
   49970:	18c7883a 	add	r3,r3,r3
   49974:	18c7883a 	add	r3,r3,r3
   49978:	10c5883a 	add	r2,r2,r3
   4997c:	10000015 	stw	zero,0(r2)
   49980:	e0bff117 	ldw	r2,-60(fp)
   49984:	e0bff415 	stw	r2,-48(fp)
   49988:	e0bff417 	ldw	r2,-48(fp)
   4998c:	1001703a 	wrctl	status,r2
   49990:	e0bff603 	ldbu	r2,-40(fp)
   49994:	00000506 	br	499ac <OSTaskCreateExt+0x1d0>
   49998:	e0bff117 	ldw	r2,-60(fp)
   4999c:	e0bff715 	stw	r2,-36(fp)
   499a0:	e0bff717 	ldw	r2,-36(fp)
   499a4:	1001703a 	wrctl	status,r2
   499a8:	00800a04 	movi	r2,40
   499ac:	e037883a 	mov	sp,fp
   499b0:	dfc00117 	ldw	ra,4(sp)
   499b4:	df000017 	ldw	fp,0(sp)
   499b8:	dec00204 	addi	sp,sp,8
   499bc:	f800283a 	ret

000499c0 <OSTaskDel>:
   499c0:	defff404 	addi	sp,sp,-48
   499c4:	dfc00b15 	stw	ra,44(sp)
   499c8:	df000a15 	stw	fp,40(sp)
   499cc:	df000a04 	addi	fp,sp,40
   499d0:	2005883a 	mov	r2,r4
   499d4:	e0bfff05 	stb	r2,-4(fp)
   499d8:	e03ff615 	stw	zero,-40(fp)
   499dc:	d0a70803 	ldbu	r2,-25568(gp)
   499e0:	10803fcc 	andi	r2,r2,255
   499e4:	10000226 	beq	r2,zero,499f0 <OSTaskDel+0x30>
   499e8:	00801004 	movi	r2,64
   499ec:	0000c006 	br	49cf0 <OSTaskDel+0x330>
   499f0:	e0bfff03 	ldbu	r2,-4(fp)
   499f4:	10800518 	cmpnei	r2,r2,20
   499f8:	1000021e 	bne	r2,zero,49a04 <OSTaskDel+0x44>
   499fc:	00800f84 	movi	r2,62
   49a00:	0000bb06 	br	49cf0 <OSTaskDel+0x330>
   49a04:	e0bfff03 	ldbu	r2,-4(fp)
   49a08:	10800530 	cmpltui	r2,r2,20
   49a0c:	1000051e 	bne	r2,zero,49a24 <OSTaskDel+0x64>
   49a10:	e0bfff03 	ldbu	r2,-4(fp)
   49a14:	10803fe0 	cmpeqi	r2,r2,255
   49a18:	1000021e 	bne	r2,zero,49a24 <OSTaskDel+0x64>
   49a1c:	00800a84 	movi	r2,42
   49a20:	0000b306 	br	49cf0 <OSTaskDel+0x330>
   49a24:	0005303a 	rdctl	r2,status
   49a28:	e0bffe15 	stw	r2,-8(fp)
   49a2c:	e0fffe17 	ldw	r3,-8(fp)
   49a30:	00bfff84 	movi	r2,-2
   49a34:	1884703a 	and	r2,r3,r2
   49a38:	1001703a 	wrctl	status,r2
   49a3c:	e0bffe17 	ldw	r2,-8(fp)
   49a40:	e0bff615 	stw	r2,-40(fp)
   49a44:	e0bfff03 	ldbu	r2,-4(fp)
   49a48:	10803fd8 	cmpnei	r2,r2,255
   49a4c:	1000031e 	bne	r2,zero,49a5c <OSTaskDel+0x9c>
   49a50:	d0a70917 	ldw	r2,-25564(gp)
   49a54:	10800c83 	ldbu	r2,50(r2)
   49a58:	e0bfff05 	stb	r2,-4(fp)
   49a5c:	e0ffff03 	ldbu	r3,-4(fp)
   49a60:	00800174 	movhi	r2,5
   49a64:	10975104 	addi	r2,r2,23876
   49a68:	18c7883a 	add	r3,r3,r3
   49a6c:	18c7883a 	add	r3,r3,r3
   49a70:	10c5883a 	add	r2,r2,r3
   49a74:	10800017 	ldw	r2,0(r2)
   49a78:	e0bff815 	stw	r2,-32(fp)
   49a7c:	e0bff817 	ldw	r2,-32(fp)
   49a80:	1000061e 	bne	r2,zero,49a9c <OSTaskDel+0xdc>
   49a84:	e0bff617 	ldw	r2,-40(fp)
   49a88:	e0bff715 	stw	r2,-36(fp)
   49a8c:	e0bff717 	ldw	r2,-36(fp)
   49a90:	1001703a 	wrctl	status,r2
   49a94:	008010c4 	movi	r2,67
   49a98:	00009506 	br	49cf0 <OSTaskDel+0x330>
   49a9c:	e0bff817 	ldw	r2,-32(fp)
   49aa0:	10800058 	cmpnei	r2,r2,1
   49aa4:	1000061e 	bne	r2,zero,49ac0 <OSTaskDel+0x100>
   49aa8:	e0bff617 	ldw	r2,-40(fp)
   49aac:	e0bff915 	stw	r2,-28(fp)
   49ab0:	e0bff917 	ldw	r2,-28(fp)
   49ab4:	1001703a 	wrctl	status,r2
   49ab8:	00800f44 	movi	r2,61
   49abc:	00008c06 	br	49cf0 <OSTaskDel+0x330>
   49ac0:	e0bff817 	ldw	r2,-32(fp)
   49ac4:	10800d03 	ldbu	r2,52(r2)
   49ac8:	10c03fcc 	andi	r3,r2,255
   49acc:	e0bff817 	ldw	r2,-32(fp)
   49ad0:	10800d03 	ldbu	r2,52(r2)
   49ad4:	11003fcc 	andi	r4,r2,255
   49ad8:	d0a70644 	addi	r2,gp,-25575
   49adc:	2085883a 	add	r2,r4,r2
   49ae0:	10800003 	ldbu	r2,0(r2)
   49ae4:	1009883a 	mov	r4,r2
   49ae8:	e0bff817 	ldw	r2,-32(fp)
   49aec:	10800d43 	ldbu	r2,53(r2)
   49af0:	0084303a 	nor	r2,zero,r2
   49af4:	2084703a 	and	r2,r4,r2
   49af8:	1009883a 	mov	r4,r2
   49afc:	d0a70644 	addi	r2,gp,-25575
   49b00:	1885883a 	add	r2,r3,r2
   49b04:	11000005 	stb	r4,0(r2)
   49b08:	e0bff817 	ldw	r2,-32(fp)
   49b0c:	10800d03 	ldbu	r2,52(r2)
   49b10:	10c03fcc 	andi	r3,r2,255
   49b14:	d0a70644 	addi	r2,gp,-25575
   49b18:	1885883a 	add	r2,r3,r2
   49b1c:	10800003 	ldbu	r2,0(r2)
   49b20:	10803fcc 	andi	r2,r2,255
   49b24:	1000071e 	bne	r2,zero,49b44 <OSTaskDel+0x184>
   49b28:	e0bff817 	ldw	r2,-32(fp)
   49b2c:	10800d83 	ldbu	r2,54(r2)
   49b30:	0084303a 	nor	r2,zero,r2
   49b34:	1007883a 	mov	r3,r2
   49b38:	d0a70603 	ldbu	r2,-25576(gp)
   49b3c:	1884703a 	and	r2,r3,r2
   49b40:	d0a70605 	stb	r2,-25576(gp)
   49b44:	e0bff817 	ldw	r2,-32(fp)
   49b48:	10800717 	ldw	r2,28(r2)
   49b4c:	10000526 	beq	r2,zero,49b64 <OSTaskDel+0x1a4>
   49b50:	e0bff817 	ldw	r2,-32(fp)
   49b54:	10800717 	ldw	r2,28(r2)
   49b58:	100b883a 	mov	r5,r2
   49b5c:	e13ff817 	ldw	r4,-32(fp)
   49b60:	00448b00 	call	448b0 <OS_EventTaskRemove>
   49b64:	e0bff817 	ldw	r2,-32(fp)
   49b68:	10800817 	ldw	r2,32(r2)
   49b6c:	10000526 	beq	r2,zero,49b84 <OSTaskDel+0x1c4>
   49b70:	e0bff817 	ldw	r2,-32(fp)
   49b74:	10800817 	ldw	r2,32(r2)
   49b78:	100b883a 	mov	r5,r2
   49b7c:	e13ff817 	ldw	r4,-32(fp)
   49b80:	00449680 	call	44968 <OS_EventTaskRemoveMulti>
   49b84:	e0bff817 	ldw	r2,-32(fp)
   49b88:	10800a17 	ldw	r2,40(r2)
   49b8c:	e0bffb15 	stw	r2,-20(fp)
   49b90:	e0bffb17 	ldw	r2,-20(fp)
   49b94:	10000226 	beq	r2,zero,49ba0 <OSTaskDel+0x1e0>
   49b98:	e13ffb17 	ldw	r4,-20(fp)
   49b9c:	0046dd80 	call	46dd8 <OS_FlagUnlink>
   49ba0:	e0bff817 	ldw	r2,-32(fp)
   49ba4:	10000b8d 	sth	zero,46(r2)
   49ba8:	e0bff817 	ldw	r2,-32(fp)
   49bac:	10000c05 	stb	zero,48(r2)
   49bb0:	e0bff817 	ldw	r2,-32(fp)
   49bb4:	10000c45 	stb	zero,49(r2)
   49bb8:	d0a6fa03 	ldbu	r2,-25624(gp)
   49bbc:	10803fcc 	andi	r2,r2,255
   49bc0:	10803fe0 	cmpeqi	r2,r2,255
   49bc4:	1000031e 	bne	r2,zero,49bd4 <OSTaskDel+0x214>
   49bc8:	d0a6fa03 	ldbu	r2,-25624(gp)
   49bcc:	10800044 	addi	r2,r2,1
   49bd0:	d0a6fa05 	stb	r2,-25624(gp)
   49bd4:	e0bff617 	ldw	r2,-40(fp)
   49bd8:	e0bffd15 	stw	r2,-12(fp)
   49bdc:	e0bffd17 	ldw	r2,-12(fp)
   49be0:	1001703a 	wrctl	status,r2
   49be4:	00444980 	call	44498 <OS_Dummy>
   49be8:	0005303a 	rdctl	r2,status
   49bec:	e0bffa15 	stw	r2,-24(fp)
   49bf0:	e0fffa17 	ldw	r3,-24(fp)
   49bf4:	00bfff84 	movi	r2,-2
   49bf8:	1884703a 	and	r2,r3,r2
   49bfc:	1001703a 	wrctl	status,r2
   49c00:	e0bffa17 	ldw	r2,-24(fp)
   49c04:	e0bff615 	stw	r2,-40(fp)
   49c08:	d0a6fa03 	ldbu	r2,-25624(gp)
   49c0c:	10803fcc 	andi	r2,r2,255
   49c10:	10000326 	beq	r2,zero,49c20 <OSTaskDel+0x260>
   49c14:	d0a6fa03 	ldbu	r2,-25624(gp)
   49c18:	10bfffc4 	addi	r2,r2,-1
   49c1c:	d0a6fa05 	stb	r2,-25624(gp)
   49c20:	e13ff817 	ldw	r4,-32(fp)
   49c24:	004c8500 	call	4c850 <OSTaskDelHook>
   49c28:	d0a70243 	ldbu	r2,-25591(gp)
   49c2c:	10bfffc4 	addi	r2,r2,-1
   49c30:	d0a70245 	stb	r2,-25591(gp)
   49c34:	e0ffff03 	ldbu	r3,-4(fp)
   49c38:	00800174 	movhi	r2,5
   49c3c:	10975104 	addi	r2,r2,23876
   49c40:	18c7883a 	add	r3,r3,r3
   49c44:	18c7883a 	add	r3,r3,r3
   49c48:	10c5883a 	add	r2,r2,r3
   49c4c:	10000015 	stw	zero,0(r2)
   49c50:	e0bff817 	ldw	r2,-32(fp)
   49c54:	10800617 	ldw	r2,24(r2)
   49c58:	1000071e 	bne	r2,zero,49c78 <OSTaskDel+0x2b8>
   49c5c:	e0bff817 	ldw	r2,-32(fp)
   49c60:	10800517 	ldw	r2,20(r2)
   49c64:	10000615 	stw	zero,24(r2)
   49c68:	e0bff817 	ldw	r2,-32(fp)
   49c6c:	10800517 	ldw	r2,20(r2)
   49c70:	d0a6fd15 	stw	r2,-25612(gp)
   49c74:	00000a06 	br	49ca0 <OSTaskDel+0x2e0>
   49c78:	e0bff817 	ldw	r2,-32(fp)
   49c7c:	10800617 	ldw	r2,24(r2)
   49c80:	e0fff817 	ldw	r3,-32(fp)
   49c84:	18c00517 	ldw	r3,20(r3)
   49c88:	10c00515 	stw	r3,20(r2)
   49c8c:	e0bff817 	ldw	r2,-32(fp)
   49c90:	10800517 	ldw	r2,20(r2)
   49c94:	e0fff817 	ldw	r3,-32(fp)
   49c98:	18c00617 	ldw	r3,24(r3)
   49c9c:	10c00615 	stw	r3,24(r2)
   49ca0:	d0e70117 	ldw	r3,-25596(gp)
   49ca4:	e0bff817 	ldw	r2,-32(fp)
   49ca8:	10c00515 	stw	r3,20(r2)
   49cac:	e0bff817 	ldw	r2,-32(fp)
   49cb0:	d0a70115 	stw	r2,-25596(gp)
   49cb4:	e0bff817 	ldw	r2,-32(fp)
   49cb8:	00c00fc4 	movi	r3,63
   49cbc:	10c01305 	stb	r3,76(r2)
   49cc0:	e0bff817 	ldw	r2,-32(fp)
   49cc4:	10001345 	stb	zero,77(r2)
   49cc8:	e0bff617 	ldw	r2,-40(fp)
   49ccc:	e0bffc15 	stw	r2,-16(fp)
   49cd0:	e0bffc17 	ldw	r2,-16(fp)
   49cd4:	1001703a 	wrctl	status,r2
   49cd8:	d0a6fa43 	ldbu	r2,-25623(gp)
   49cdc:	10803fcc 	andi	r2,r2,255
   49ce0:	10800058 	cmpnei	r2,r2,1
   49ce4:	1000011e 	bne	r2,zero,49cec <OSTaskDel+0x32c>
   49ce8:	0044f040 	call	44f04 <OS_Sched>
   49cec:	0005883a 	mov	r2,zero
   49cf0:	e037883a 	mov	sp,fp
   49cf4:	dfc00117 	ldw	ra,4(sp)
   49cf8:	df000017 	ldw	fp,0(sp)
   49cfc:	dec00204 	addi	sp,sp,8
   49d00:	f800283a 	ret

00049d04 <OSTaskDelReq>:
   49d04:	defff504 	addi	sp,sp,-44
   49d08:	df000a15 	stw	fp,40(sp)
   49d0c:	df000a04 	addi	fp,sp,40
   49d10:	2005883a 	mov	r2,r4
   49d14:	e0bfff05 	stb	r2,-4(fp)
   49d18:	e03ff615 	stw	zero,-40(fp)
   49d1c:	e0bfff03 	ldbu	r2,-4(fp)
   49d20:	10800518 	cmpnei	r2,r2,20
   49d24:	1000021e 	bne	r2,zero,49d30 <OSTaskDelReq+0x2c>
   49d28:	00800f84 	movi	r2,62
   49d2c:	00004506 	br	49e44 <OSTaskDelReq+0x140>
   49d30:	e0bfff03 	ldbu	r2,-4(fp)
   49d34:	10800530 	cmpltui	r2,r2,20
   49d38:	1000051e 	bne	r2,zero,49d50 <OSTaskDelReq+0x4c>
   49d3c:	e0bfff03 	ldbu	r2,-4(fp)
   49d40:	10803fe0 	cmpeqi	r2,r2,255
   49d44:	1000021e 	bne	r2,zero,49d50 <OSTaskDelReq+0x4c>
   49d48:	00800a84 	movi	r2,42
   49d4c:	00003d06 	br	49e44 <OSTaskDelReq+0x140>
   49d50:	e0bfff03 	ldbu	r2,-4(fp)
   49d54:	10803fd8 	cmpnei	r2,r2,255
   49d58:	1000111e 	bne	r2,zero,49da0 <OSTaskDelReq+0x9c>
   49d5c:	0005303a 	rdctl	r2,status
   49d60:	e0bff915 	stw	r2,-28(fp)
   49d64:	e0fff917 	ldw	r3,-28(fp)
   49d68:	00bfff84 	movi	r2,-2
   49d6c:	1884703a 	and	r2,r3,r2
   49d70:	1001703a 	wrctl	status,r2
   49d74:	e0bff917 	ldw	r2,-28(fp)
   49d78:	e0bff615 	stw	r2,-40(fp)
   49d7c:	d0a70917 	ldw	r2,-25564(gp)
   49d80:	10800dc3 	ldbu	r2,55(r2)
   49d84:	e0bff805 	stb	r2,-32(fp)
   49d88:	e0bff617 	ldw	r2,-40(fp)
   49d8c:	e0bffe15 	stw	r2,-8(fp)
   49d90:	e0bffe17 	ldw	r2,-8(fp)
   49d94:	1001703a 	wrctl	status,r2
   49d98:	e0bff803 	ldbu	r2,-32(fp)
   49d9c:	00002906 	br	49e44 <OSTaskDelReq+0x140>
   49da0:	0005303a 	rdctl	r2,status
   49da4:	e0bff715 	stw	r2,-36(fp)
   49da8:	e0fff717 	ldw	r3,-36(fp)
   49dac:	00bfff84 	movi	r2,-2
   49db0:	1884703a 	and	r2,r3,r2
   49db4:	1001703a 	wrctl	status,r2
   49db8:	e0bff717 	ldw	r2,-36(fp)
   49dbc:	e0bff615 	stw	r2,-40(fp)
   49dc0:	e0ffff03 	ldbu	r3,-4(fp)
   49dc4:	00800174 	movhi	r2,5
   49dc8:	10975104 	addi	r2,r2,23876
   49dcc:	18c7883a 	add	r3,r3,r3
   49dd0:	18c7883a 	add	r3,r3,r3
   49dd4:	10c5883a 	add	r2,r2,r3
   49dd8:	10800017 	ldw	r2,0(r2)
   49ddc:	e0bffb15 	stw	r2,-20(fp)
   49de0:	e0bffb17 	ldw	r2,-20(fp)
   49de4:	1000061e 	bne	r2,zero,49e00 <OSTaskDelReq+0xfc>
   49de8:	e0bff617 	ldw	r2,-40(fp)
   49dec:	e0bffa15 	stw	r2,-24(fp)
   49df0:	e0bffa17 	ldw	r2,-24(fp)
   49df4:	1001703a 	wrctl	status,r2
   49df8:	008010c4 	movi	r2,67
   49dfc:	00001106 	br	49e44 <OSTaskDelReq+0x140>
   49e00:	e0bffb17 	ldw	r2,-20(fp)
   49e04:	10800058 	cmpnei	r2,r2,1
   49e08:	1000061e 	bne	r2,zero,49e24 <OSTaskDelReq+0x120>
   49e0c:	e0bff617 	ldw	r2,-40(fp)
   49e10:	e0bffc15 	stw	r2,-16(fp)
   49e14:	e0bffc17 	ldw	r2,-16(fp)
   49e18:	1001703a 	wrctl	status,r2
   49e1c:	00800f44 	movi	r2,61
   49e20:	00000806 	br	49e44 <OSTaskDelReq+0x140>
   49e24:	e0bffb17 	ldw	r2,-20(fp)
   49e28:	00c00fc4 	movi	r3,63
   49e2c:	10c00dc5 	stb	r3,55(r2)
   49e30:	e0bff617 	ldw	r2,-40(fp)
   49e34:	e0bffd15 	stw	r2,-12(fp)
   49e38:	e0bffd17 	ldw	r2,-12(fp)
   49e3c:	1001703a 	wrctl	status,r2
   49e40:	0005883a 	mov	r2,zero
   49e44:	e037883a 	mov	sp,fp
   49e48:	df000017 	ldw	fp,0(sp)
   49e4c:	dec00104 	addi	sp,sp,4
   49e50:	f800283a 	ret

00049e54 <OSTaskNameGet>:
   49e54:	defff404 	addi	sp,sp,-48
   49e58:	dfc00b15 	stw	ra,44(sp)
   49e5c:	df000a15 	stw	fp,40(sp)
   49e60:	df000a04 	addi	fp,sp,40
   49e64:	2005883a 	mov	r2,r4
   49e68:	e17ffe15 	stw	r5,-8(fp)
   49e6c:	e1bfff15 	stw	r6,-4(fp)
   49e70:	e0bffd05 	stb	r2,-12(fp)
   49e74:	e03ff615 	stw	zero,-40(fp)
   49e78:	e0bfff17 	ldw	r2,-4(fp)
   49e7c:	1000021e 	bne	r2,zero,49e88 <OSTaskNameGet+0x34>
   49e80:	0005883a 	mov	r2,zero
   49e84:	00005406 	br	49fd8 <OSTaskNameGet+0x184>
   49e88:	e0bffd03 	ldbu	r2,-12(fp)
   49e8c:	10800570 	cmpltui	r2,r2,21
   49e90:	1000081e 	bne	r2,zero,49eb4 <OSTaskNameGet+0x60>
   49e94:	e0bffd03 	ldbu	r2,-12(fp)
   49e98:	10803fe0 	cmpeqi	r2,r2,255
   49e9c:	1000051e 	bne	r2,zero,49eb4 <OSTaskNameGet+0x60>
   49ea0:	e0bfff17 	ldw	r2,-4(fp)
   49ea4:	00c00a84 	movi	r3,42
   49ea8:	10c00005 	stb	r3,0(r2)
   49eac:	0005883a 	mov	r2,zero
   49eb0:	00004906 	br	49fd8 <OSTaskNameGet+0x184>
   49eb4:	e0bffe17 	ldw	r2,-8(fp)
   49eb8:	1000051e 	bne	r2,zero,49ed0 <OSTaskNameGet+0x7c>
   49ebc:	e0bfff17 	ldw	r2,-4(fp)
   49ec0:	00c00304 	movi	r3,12
   49ec4:	10c00005 	stb	r3,0(r2)
   49ec8:	0005883a 	mov	r2,zero
   49ecc:	00004206 	br	49fd8 <OSTaskNameGet+0x184>
   49ed0:	d0a70803 	ldbu	r2,-25568(gp)
   49ed4:	10803fcc 	andi	r2,r2,255
   49ed8:	10000526 	beq	r2,zero,49ef0 <OSTaskNameGet+0x9c>
   49edc:	e0bfff17 	ldw	r2,-4(fp)
   49ee0:	00c00444 	movi	r3,17
   49ee4:	10c00005 	stb	r3,0(r2)
   49ee8:	0005883a 	mov	r2,zero
   49eec:	00003a06 	br	49fd8 <OSTaskNameGet+0x184>
   49ef0:	0005303a 	rdctl	r2,status
   49ef4:	e0bffc15 	stw	r2,-16(fp)
   49ef8:	e0fffc17 	ldw	r3,-16(fp)
   49efc:	00bfff84 	movi	r2,-2
   49f00:	1884703a 	and	r2,r3,r2
   49f04:	1001703a 	wrctl	status,r2
   49f08:	e0bffc17 	ldw	r2,-16(fp)
   49f0c:	e0bff615 	stw	r2,-40(fp)
   49f10:	e0bffd03 	ldbu	r2,-12(fp)
   49f14:	10803fd8 	cmpnei	r2,r2,255
   49f18:	1000031e 	bne	r2,zero,49f28 <OSTaskNameGet+0xd4>
   49f1c:	d0a70917 	ldw	r2,-25564(gp)
   49f20:	10800c83 	ldbu	r2,50(r2)
   49f24:	e0bffd05 	stb	r2,-12(fp)
   49f28:	e0fffd03 	ldbu	r3,-12(fp)
   49f2c:	00800174 	movhi	r2,5
   49f30:	10975104 	addi	r2,r2,23876
   49f34:	18c7883a 	add	r3,r3,r3
   49f38:	18c7883a 	add	r3,r3,r3
   49f3c:	10c5883a 	add	r2,r2,r3
   49f40:	10800017 	ldw	r2,0(r2)
   49f44:	e0bff815 	stw	r2,-32(fp)
   49f48:	e0bff817 	ldw	r2,-32(fp)
   49f4c:	1000091e 	bne	r2,zero,49f74 <OSTaskNameGet+0x120>
   49f50:	e0bff617 	ldw	r2,-40(fp)
   49f54:	e0bff715 	stw	r2,-36(fp)
   49f58:	e0bff717 	ldw	r2,-36(fp)
   49f5c:	1001703a 	wrctl	status,r2
   49f60:	e0bfff17 	ldw	r2,-4(fp)
   49f64:	00c010c4 	movi	r3,67
   49f68:	10c00005 	stb	r3,0(r2)
   49f6c:	0005883a 	mov	r2,zero
   49f70:	00001906 	br	49fd8 <OSTaskNameGet+0x184>
   49f74:	e0bff817 	ldw	r2,-32(fp)
   49f78:	10800058 	cmpnei	r2,r2,1
   49f7c:	1000091e 	bne	r2,zero,49fa4 <OSTaskNameGet+0x150>
   49f80:	e0bff617 	ldw	r2,-40(fp)
   49f84:	e0bff915 	stw	r2,-28(fp)
   49f88:	e0bff917 	ldw	r2,-28(fp)
   49f8c:	1001703a 	wrctl	status,r2
   49f90:	e0bfff17 	ldw	r2,-4(fp)
   49f94:	00c010c4 	movi	r3,67
   49f98:	10c00005 	stb	r3,0(r2)
   49f9c:	0005883a 	mov	r2,zero
   49fa0:	00000d06 	br	49fd8 <OSTaskNameGet+0x184>
   49fa4:	e0bff817 	ldw	r2,-32(fp)
   49fa8:	10801304 	addi	r2,r2,76
   49fac:	100b883a 	mov	r5,r2
   49fb0:	e13ffe17 	ldw	r4,-8(fp)
   49fb4:	00450480 	call	45048 <OS_StrCopy>
   49fb8:	e0bffb05 	stb	r2,-20(fp)
   49fbc:	e0bff617 	ldw	r2,-40(fp)
   49fc0:	e0bffa15 	stw	r2,-24(fp)
   49fc4:	e0bffa17 	ldw	r2,-24(fp)
   49fc8:	1001703a 	wrctl	status,r2
   49fcc:	e0bfff17 	ldw	r2,-4(fp)
   49fd0:	10000005 	stb	zero,0(r2)
   49fd4:	e0bffb03 	ldbu	r2,-20(fp)
   49fd8:	e037883a 	mov	sp,fp
   49fdc:	dfc00117 	ldw	ra,4(sp)
   49fe0:	df000017 	ldw	fp,0(sp)
   49fe4:	dec00204 	addi	sp,sp,8
   49fe8:	f800283a 	ret

00049fec <OSTaskNameSet>:
   49fec:	defff304 	addi	sp,sp,-52
   49ff0:	dfc00c15 	stw	ra,48(sp)
   49ff4:	df000b15 	stw	fp,44(sp)
   49ff8:	df000b04 	addi	fp,sp,44
   49ffc:	2005883a 	mov	r2,r4
   4a000:	e17ffe15 	stw	r5,-8(fp)
   4a004:	e1bfff15 	stw	r6,-4(fp)
   4a008:	e0bffd05 	stb	r2,-12(fp)
   4a00c:	e03ff515 	stw	zero,-44(fp)
   4a010:	e0bfff17 	ldw	r2,-4(fp)
   4a014:	10005c26 	beq	r2,zero,4a188 <OSTaskNameSet+0x19c>
   4a018:	e0bffd03 	ldbu	r2,-12(fp)
   4a01c:	10800570 	cmpltui	r2,r2,21
   4a020:	1000071e 	bne	r2,zero,4a040 <OSTaskNameSet+0x54>
   4a024:	e0bffd03 	ldbu	r2,-12(fp)
   4a028:	10803fe0 	cmpeqi	r2,r2,255
   4a02c:	1000041e 	bne	r2,zero,4a040 <OSTaskNameSet+0x54>
   4a030:	e0bfff17 	ldw	r2,-4(fp)
   4a034:	00c00a84 	movi	r3,42
   4a038:	10c00005 	stb	r3,0(r2)
   4a03c:	00005306 	br	4a18c <OSTaskNameSet+0x1a0>
   4a040:	e0bffe17 	ldw	r2,-8(fp)
   4a044:	1000041e 	bne	r2,zero,4a058 <OSTaskNameSet+0x6c>
   4a048:	e0bfff17 	ldw	r2,-4(fp)
   4a04c:	00c00304 	movi	r3,12
   4a050:	10c00005 	stb	r3,0(r2)
   4a054:	00004d06 	br	4a18c <OSTaskNameSet+0x1a0>
   4a058:	d0a70803 	ldbu	r2,-25568(gp)
   4a05c:	10803fcc 	andi	r2,r2,255
   4a060:	10000426 	beq	r2,zero,4a074 <OSTaskNameSet+0x88>
   4a064:	e0bfff17 	ldw	r2,-4(fp)
   4a068:	00c00484 	movi	r3,18
   4a06c:	10c00005 	stb	r3,0(r2)
   4a070:	00004606 	br	4a18c <OSTaskNameSet+0x1a0>
   4a074:	0005303a 	rdctl	r2,status
   4a078:	e0bffc15 	stw	r2,-16(fp)
   4a07c:	e0fffc17 	ldw	r3,-16(fp)
   4a080:	00bfff84 	movi	r2,-2
   4a084:	1884703a 	and	r2,r3,r2
   4a088:	1001703a 	wrctl	status,r2
   4a08c:	e0bffc17 	ldw	r2,-16(fp)
   4a090:	e0bff515 	stw	r2,-44(fp)
   4a094:	e0bffd03 	ldbu	r2,-12(fp)
   4a098:	10803fd8 	cmpnei	r2,r2,255
   4a09c:	1000031e 	bne	r2,zero,4a0ac <OSTaskNameSet+0xc0>
   4a0a0:	d0a70917 	ldw	r2,-25564(gp)
   4a0a4:	10800c83 	ldbu	r2,50(r2)
   4a0a8:	e0bffd05 	stb	r2,-12(fp)
   4a0ac:	e0fffd03 	ldbu	r3,-12(fp)
   4a0b0:	00800174 	movhi	r2,5
   4a0b4:	10975104 	addi	r2,r2,23876
   4a0b8:	18c7883a 	add	r3,r3,r3
   4a0bc:	18c7883a 	add	r3,r3,r3
   4a0c0:	10c5883a 	add	r2,r2,r3
   4a0c4:	10800017 	ldw	r2,0(r2)
   4a0c8:	e0bff715 	stw	r2,-36(fp)
   4a0cc:	e0bff717 	ldw	r2,-36(fp)
   4a0d0:	1000081e 	bne	r2,zero,4a0f4 <OSTaskNameSet+0x108>
   4a0d4:	e0bff517 	ldw	r2,-44(fp)
   4a0d8:	e0bff615 	stw	r2,-40(fp)
   4a0dc:	e0bff617 	ldw	r2,-40(fp)
   4a0e0:	1001703a 	wrctl	status,r2
   4a0e4:	e0bfff17 	ldw	r2,-4(fp)
   4a0e8:	00c010c4 	movi	r3,67
   4a0ec:	10c00005 	stb	r3,0(r2)
   4a0f0:	00002606 	br	4a18c <OSTaskNameSet+0x1a0>
   4a0f4:	e0bff717 	ldw	r2,-36(fp)
   4a0f8:	10800058 	cmpnei	r2,r2,1
   4a0fc:	1000081e 	bne	r2,zero,4a120 <OSTaskNameSet+0x134>
   4a100:	e0bff517 	ldw	r2,-44(fp)
   4a104:	e0bff815 	stw	r2,-32(fp)
   4a108:	e0bff817 	ldw	r2,-32(fp)
   4a10c:	1001703a 	wrctl	status,r2
   4a110:	e0bfff17 	ldw	r2,-4(fp)
   4a114:	00c010c4 	movi	r3,67
   4a118:	10c00005 	stb	r3,0(r2)
   4a11c:	00001b06 	br	4a18c <OSTaskNameSet+0x1a0>
   4a120:	e13ffe17 	ldw	r4,-8(fp)
   4a124:	00450bc0 	call	450bc <OS_StrLen>
   4a128:	e0bffa05 	stb	r2,-24(fp)
   4a12c:	e0bffa03 	ldbu	r2,-24(fp)
   4a130:	10800830 	cmpltui	r2,r2,32
   4a134:	1000081e 	bne	r2,zero,4a158 <OSTaskNameSet+0x16c>
   4a138:	e0bff517 	ldw	r2,-44(fp)
   4a13c:	e0bff915 	stw	r2,-28(fp)
   4a140:	e0bff917 	ldw	r2,-28(fp)
   4a144:	1001703a 	wrctl	status,r2
   4a148:	e0bfff17 	ldw	r2,-4(fp)
   4a14c:	00c01044 	movi	r3,65
   4a150:	10c00005 	stb	r3,0(r2)
   4a154:	00000d06 	br	4a18c <OSTaskNameSet+0x1a0>
   4a158:	e0bff717 	ldw	r2,-36(fp)
   4a15c:	10801304 	addi	r2,r2,76
   4a160:	e17ffe17 	ldw	r5,-8(fp)
   4a164:	1009883a 	mov	r4,r2
   4a168:	00450480 	call	45048 <OS_StrCopy>
   4a16c:	e0bff517 	ldw	r2,-44(fp)
   4a170:	e0bffb15 	stw	r2,-20(fp)
   4a174:	e0bffb17 	ldw	r2,-20(fp)
   4a178:	1001703a 	wrctl	status,r2
   4a17c:	e0bfff17 	ldw	r2,-4(fp)
   4a180:	10000005 	stb	zero,0(r2)
   4a184:	00000106 	br	4a18c <OSTaskNameSet+0x1a0>
   4a188:	0001883a 	nop
   4a18c:	e037883a 	mov	sp,fp
   4a190:	dfc00117 	ldw	ra,4(sp)
   4a194:	df000017 	ldw	fp,0(sp)
   4a198:	dec00204 	addi	sp,sp,8
   4a19c:	f800283a 	ret

0004a1a0 <OSTaskResume>:
   4a1a0:	defff404 	addi	sp,sp,-48
   4a1a4:	dfc00b15 	stw	ra,44(sp)
   4a1a8:	df000a15 	stw	fp,40(sp)
   4a1ac:	df000a04 	addi	fp,sp,40
   4a1b0:	2005883a 	mov	r2,r4
   4a1b4:	e0bfff05 	stb	r2,-4(fp)
   4a1b8:	e03ff615 	stw	zero,-40(fp)
   4a1bc:	e0bfff03 	ldbu	r2,-4(fp)
   4a1c0:	10800530 	cmpltui	r2,r2,20
   4a1c4:	1000021e 	bne	r2,zero,4a1d0 <OSTaskResume+0x30>
   4a1c8:	00800a84 	movi	r2,42
   4a1cc:	00006406 	br	4a360 <OSTaskResume+0x1c0>
   4a1d0:	0005303a 	rdctl	r2,status
   4a1d4:	e0bffe15 	stw	r2,-8(fp)
   4a1d8:	e0fffe17 	ldw	r3,-8(fp)
   4a1dc:	00bfff84 	movi	r2,-2
   4a1e0:	1884703a 	and	r2,r3,r2
   4a1e4:	1001703a 	wrctl	status,r2
   4a1e8:	e0bffe17 	ldw	r2,-8(fp)
   4a1ec:	e0bff615 	stw	r2,-40(fp)
   4a1f0:	e0ffff03 	ldbu	r3,-4(fp)
   4a1f4:	00800174 	movhi	r2,5
   4a1f8:	10975104 	addi	r2,r2,23876
   4a1fc:	18c7883a 	add	r3,r3,r3
   4a200:	18c7883a 	add	r3,r3,r3
   4a204:	10c5883a 	add	r2,r2,r3
   4a208:	10800017 	ldw	r2,0(r2)
   4a20c:	e0bff815 	stw	r2,-32(fp)
   4a210:	e0bff817 	ldw	r2,-32(fp)
   4a214:	1000061e 	bne	r2,zero,4a230 <OSTaskResume+0x90>
   4a218:	e0bff617 	ldw	r2,-40(fp)
   4a21c:	e0bff715 	stw	r2,-36(fp)
   4a220:	e0bff717 	ldw	r2,-36(fp)
   4a224:	1001703a 	wrctl	status,r2
   4a228:	00801184 	movi	r2,70
   4a22c:	00004c06 	br	4a360 <OSTaskResume+0x1c0>
   4a230:	e0bff817 	ldw	r2,-32(fp)
   4a234:	10800058 	cmpnei	r2,r2,1
   4a238:	1000061e 	bne	r2,zero,4a254 <OSTaskResume+0xb4>
   4a23c:	e0bff617 	ldw	r2,-40(fp)
   4a240:	e0bff915 	stw	r2,-28(fp)
   4a244:	e0bff917 	ldw	r2,-28(fp)
   4a248:	1001703a 	wrctl	status,r2
   4a24c:	008010c4 	movi	r2,67
   4a250:	00004306 	br	4a360 <OSTaskResume+0x1c0>
   4a254:	e0bff817 	ldw	r2,-32(fp)
   4a258:	10800c03 	ldbu	r2,48(r2)
   4a25c:	10803fcc 	andi	r2,r2,255
   4a260:	1080020c 	andi	r2,r2,8
   4a264:	10003926 	beq	r2,zero,4a34c <OSTaskResume+0x1ac>
   4a268:	e0bff817 	ldw	r2,-32(fp)
   4a26c:	10c00c03 	ldbu	r3,48(r2)
   4a270:	00bffdc4 	movi	r2,-9
   4a274:	1884703a 	and	r2,r3,r2
   4a278:	1007883a 	mov	r3,r2
   4a27c:	e0bff817 	ldw	r2,-32(fp)
   4a280:	10c00c05 	stb	r3,48(r2)
   4a284:	e0bff817 	ldw	r2,-32(fp)
   4a288:	10800c03 	ldbu	r2,48(r2)
   4a28c:	10803fcc 	andi	r2,r2,255
   4a290:	1000281e 	bne	r2,zero,4a334 <OSTaskResume+0x194>
   4a294:	e0bff817 	ldw	r2,-32(fp)
   4a298:	10800b8b 	ldhu	r2,46(r2)
   4a29c:	10bfffcc 	andi	r2,r2,65535
   4a2a0:	10001f1e 	bne	r2,zero,4a320 <OSTaskResume+0x180>
   4a2a4:	e0bff817 	ldw	r2,-32(fp)
   4a2a8:	10c00d83 	ldbu	r3,54(r2)
   4a2ac:	d0a70603 	ldbu	r2,-25576(gp)
   4a2b0:	1884b03a 	or	r2,r3,r2
   4a2b4:	d0a70605 	stb	r2,-25576(gp)
   4a2b8:	e0bff817 	ldw	r2,-32(fp)
   4a2bc:	10800d03 	ldbu	r2,52(r2)
   4a2c0:	10c03fcc 	andi	r3,r2,255
   4a2c4:	e0bff817 	ldw	r2,-32(fp)
   4a2c8:	10800d03 	ldbu	r2,52(r2)
   4a2cc:	11003fcc 	andi	r4,r2,255
   4a2d0:	d0a70644 	addi	r2,gp,-25575
   4a2d4:	2085883a 	add	r2,r4,r2
   4a2d8:	11000003 	ldbu	r4,0(r2)
   4a2dc:	e0bff817 	ldw	r2,-32(fp)
   4a2e0:	10800d43 	ldbu	r2,53(r2)
   4a2e4:	2084b03a 	or	r2,r4,r2
   4a2e8:	1009883a 	mov	r4,r2
   4a2ec:	d0a70644 	addi	r2,gp,-25575
   4a2f0:	1885883a 	add	r2,r3,r2
   4a2f4:	11000005 	stb	r4,0(r2)
   4a2f8:	e0bff617 	ldw	r2,-40(fp)
   4a2fc:	e0bffa15 	stw	r2,-24(fp)
   4a300:	e0bffa17 	ldw	r2,-24(fp)
   4a304:	1001703a 	wrctl	status,r2
   4a308:	d0a6fa43 	ldbu	r2,-25623(gp)
   4a30c:	10803fcc 	andi	r2,r2,255
   4a310:	10800058 	cmpnei	r2,r2,1
   4a314:	10000b1e 	bne	r2,zero,4a344 <OSTaskResume+0x1a4>
   4a318:	0044f040 	call	44f04 <OS_Sched>
   4a31c:	00000906 	br	4a344 <OSTaskResume+0x1a4>
   4a320:	e0bff617 	ldw	r2,-40(fp)
   4a324:	e0bffb15 	stw	r2,-20(fp)
   4a328:	e0bffb17 	ldw	r2,-20(fp)
   4a32c:	1001703a 	wrctl	status,r2
   4a330:	00000406 	br	4a344 <OSTaskResume+0x1a4>
   4a334:	e0bff617 	ldw	r2,-40(fp)
   4a338:	e0bffc15 	stw	r2,-16(fp)
   4a33c:	e0bffc17 	ldw	r2,-16(fp)
   4a340:	1001703a 	wrctl	status,r2
   4a344:	0005883a 	mov	r2,zero
   4a348:	00000506 	br	4a360 <OSTaskResume+0x1c0>
   4a34c:	e0bff617 	ldw	r2,-40(fp)
   4a350:	e0bffd15 	stw	r2,-12(fp)
   4a354:	e0bffd17 	ldw	r2,-12(fp)
   4a358:	1001703a 	wrctl	status,r2
   4a35c:	00801104 	movi	r2,68
   4a360:	e037883a 	mov	sp,fp
   4a364:	dfc00117 	ldw	ra,4(sp)
   4a368:	df000017 	ldw	fp,0(sp)
   4a36c:	dec00204 	addi	sp,sp,8
   4a370:	f800283a 	ret

0004a374 <OSTaskStkChk>:
   4a374:	defff304 	addi	sp,sp,-52
   4a378:	df000c15 	stw	fp,48(sp)
   4a37c:	df000c04 	addi	fp,sp,48
   4a380:	2005883a 	mov	r2,r4
   4a384:	e17fff15 	stw	r5,-4(fp)
   4a388:	e0bffe05 	stb	r2,-8(fp)
   4a38c:	e03ff615 	stw	zero,-40(fp)
   4a390:	e0bffe03 	ldbu	r2,-8(fp)
   4a394:	10800570 	cmpltui	r2,r2,21
   4a398:	1000051e 	bne	r2,zero,4a3b0 <OSTaskStkChk+0x3c>
   4a39c:	e0bffe03 	ldbu	r2,-8(fp)
   4a3a0:	10803fe0 	cmpeqi	r2,r2,255
   4a3a4:	1000021e 	bne	r2,zero,4a3b0 <OSTaskStkChk+0x3c>
   4a3a8:	00800a84 	movi	r2,42
   4a3ac:	00005d06 	br	4a524 <OSTaskStkChk+0x1b0>
   4a3b0:	e0bfff17 	ldw	r2,-4(fp)
   4a3b4:	1000021e 	bne	r2,zero,4a3c0 <OSTaskStkChk+0x4c>
   4a3b8:	00800244 	movi	r2,9
   4a3bc:	00005906 	br	4a524 <OSTaskStkChk+0x1b0>
   4a3c0:	e0bfff17 	ldw	r2,-4(fp)
   4a3c4:	10000015 	stw	zero,0(r2)
   4a3c8:	e0bfff17 	ldw	r2,-4(fp)
   4a3cc:	10000115 	stw	zero,4(r2)
   4a3d0:	0005303a 	rdctl	r2,status
   4a3d4:	e0bffd15 	stw	r2,-12(fp)
   4a3d8:	e0fffd17 	ldw	r3,-12(fp)
   4a3dc:	00bfff84 	movi	r2,-2
   4a3e0:	1884703a 	and	r2,r3,r2
   4a3e4:	1001703a 	wrctl	status,r2
   4a3e8:	e0bffd17 	ldw	r2,-12(fp)
   4a3ec:	e0bff615 	stw	r2,-40(fp)
   4a3f0:	e0bffe03 	ldbu	r2,-8(fp)
   4a3f4:	10803fd8 	cmpnei	r2,r2,255
   4a3f8:	1000031e 	bne	r2,zero,4a408 <OSTaskStkChk+0x94>
   4a3fc:	d0a70917 	ldw	r2,-25564(gp)
   4a400:	10800c83 	ldbu	r2,50(r2)
   4a404:	e0bffe05 	stb	r2,-8(fp)
   4a408:	e0fffe03 	ldbu	r3,-8(fp)
   4a40c:	00800174 	movhi	r2,5
   4a410:	10975104 	addi	r2,r2,23876
   4a414:	18c7883a 	add	r3,r3,r3
   4a418:	18c7883a 	add	r3,r3,r3
   4a41c:	10c5883a 	add	r2,r2,r3
   4a420:	10800017 	ldw	r2,0(r2)
   4a424:	e0bff815 	stw	r2,-32(fp)
   4a428:	e0bff817 	ldw	r2,-32(fp)
   4a42c:	1000061e 	bne	r2,zero,4a448 <OSTaskStkChk+0xd4>
   4a430:	e0bff617 	ldw	r2,-40(fp)
   4a434:	e0bff715 	stw	r2,-36(fp)
   4a438:	e0bff717 	ldw	r2,-36(fp)
   4a43c:	1001703a 	wrctl	status,r2
   4a440:	008010c4 	movi	r2,67
   4a444:	00003706 	br	4a524 <OSTaskStkChk+0x1b0>
   4a448:	e0bff817 	ldw	r2,-32(fp)
   4a44c:	10800058 	cmpnei	r2,r2,1
   4a450:	1000061e 	bne	r2,zero,4a46c <OSTaskStkChk+0xf8>
   4a454:	e0bff617 	ldw	r2,-40(fp)
   4a458:	e0bff915 	stw	r2,-28(fp)
   4a45c:	e0bff917 	ldw	r2,-28(fp)
   4a460:	1001703a 	wrctl	status,r2
   4a464:	008010c4 	movi	r2,67
   4a468:	00002e06 	br	4a524 <OSTaskStkChk+0x1b0>
   4a46c:	e0bff817 	ldw	r2,-32(fp)
   4a470:	1080040b 	ldhu	r2,16(r2)
   4a474:	10bfffcc 	andi	r2,r2,65535
   4a478:	1080004c 	andi	r2,r2,1
   4a47c:	1000061e 	bne	r2,zero,4a498 <OSTaskStkChk+0x124>
   4a480:	e0bff617 	ldw	r2,-40(fp)
   4a484:	e0bffa15 	stw	r2,-24(fp)
   4a488:	e0bffa17 	ldw	r2,-24(fp)
   4a48c:	1001703a 	wrctl	status,r2
   4a490:	00801144 	movi	r2,69
   4a494:	00002306 	br	4a524 <OSTaskStkChk+0x1b0>
   4a498:	e03ff515 	stw	zero,-44(fp)
   4a49c:	e0bff817 	ldw	r2,-32(fp)
   4a4a0:	10800317 	ldw	r2,12(r2)
   4a4a4:	e0bffc15 	stw	r2,-16(fp)
   4a4a8:	e0bff817 	ldw	r2,-32(fp)
   4a4ac:	10800217 	ldw	r2,8(r2)
   4a4b0:	e0bff415 	stw	r2,-48(fp)
   4a4b4:	e0bff617 	ldw	r2,-40(fp)
   4a4b8:	e0bffb15 	stw	r2,-20(fp)
   4a4bc:	e0bffb17 	ldw	r2,-20(fp)
   4a4c0:	1001703a 	wrctl	status,r2
   4a4c4:	00000306 	br	4a4d4 <OSTaskStkChk+0x160>
   4a4c8:	e0bff517 	ldw	r2,-44(fp)
   4a4cc:	10800044 	addi	r2,r2,1
   4a4d0:	e0bff515 	stw	r2,-44(fp)
   4a4d4:	e0bff417 	ldw	r2,-48(fp)
   4a4d8:	10c00104 	addi	r3,r2,4
   4a4dc:	e0fff415 	stw	r3,-48(fp)
   4a4e0:	10800017 	ldw	r2,0(r2)
   4a4e4:	103ff826 	beq	r2,zero,4a4c8 <__alt_data_end+0xfffe4cc8>
   4a4e8:	e0bff517 	ldw	r2,-44(fp)
   4a4ec:	1085883a 	add	r2,r2,r2
   4a4f0:	1085883a 	add	r2,r2,r2
   4a4f4:	1007883a 	mov	r3,r2
   4a4f8:	e0bfff17 	ldw	r2,-4(fp)
   4a4fc:	10c00015 	stw	r3,0(r2)
   4a500:	e0fffc17 	ldw	r3,-16(fp)
   4a504:	e0bff517 	ldw	r2,-44(fp)
   4a508:	1885c83a 	sub	r2,r3,r2
   4a50c:	1085883a 	add	r2,r2,r2
   4a510:	1085883a 	add	r2,r2,r2
   4a514:	1007883a 	mov	r3,r2
   4a518:	e0bfff17 	ldw	r2,-4(fp)
   4a51c:	10c00115 	stw	r3,4(r2)
   4a520:	0005883a 	mov	r2,zero
   4a524:	e037883a 	mov	sp,fp
   4a528:	df000017 	ldw	fp,0(sp)
   4a52c:	dec00104 	addi	sp,sp,4
   4a530:	f800283a 	ret

0004a534 <OSTaskSuspend>:
   4a534:	defff504 	addi	sp,sp,-44
   4a538:	dfc00a15 	stw	ra,40(sp)
   4a53c:	df000915 	stw	fp,36(sp)
   4a540:	df000904 	addi	fp,sp,36
   4a544:	2005883a 	mov	r2,r4
   4a548:	e0bfff05 	stb	r2,-4(fp)
   4a54c:	e03ff815 	stw	zero,-32(fp)
   4a550:	e0bfff03 	ldbu	r2,-4(fp)
   4a554:	10800518 	cmpnei	r2,r2,20
   4a558:	1000021e 	bne	r2,zero,4a564 <OSTaskSuspend+0x30>
   4a55c:	008011c4 	movi	r2,71
   4a560:	00006806 	br	4a704 <OSTaskSuspend+0x1d0>
   4a564:	e0bfff03 	ldbu	r2,-4(fp)
   4a568:	10800530 	cmpltui	r2,r2,20
   4a56c:	1000051e 	bne	r2,zero,4a584 <OSTaskSuspend+0x50>
   4a570:	e0bfff03 	ldbu	r2,-4(fp)
   4a574:	10803fe0 	cmpeqi	r2,r2,255
   4a578:	1000021e 	bne	r2,zero,4a584 <OSTaskSuspend+0x50>
   4a57c:	00800a84 	movi	r2,42
   4a580:	00006006 	br	4a704 <OSTaskSuspend+0x1d0>
   4a584:	0005303a 	rdctl	r2,status
   4a588:	e0bffe15 	stw	r2,-8(fp)
   4a58c:	e0fffe17 	ldw	r3,-8(fp)
   4a590:	00bfff84 	movi	r2,-2
   4a594:	1884703a 	and	r2,r3,r2
   4a598:	1001703a 	wrctl	status,r2
   4a59c:	e0bffe17 	ldw	r2,-8(fp)
   4a5a0:	e0bff815 	stw	r2,-32(fp)
   4a5a4:	e0bfff03 	ldbu	r2,-4(fp)
   4a5a8:	10803fd8 	cmpnei	r2,r2,255
   4a5ac:	1000061e 	bne	r2,zero,4a5c8 <OSTaskSuspend+0x94>
   4a5b0:	d0a70917 	ldw	r2,-25564(gp)
   4a5b4:	10800c83 	ldbu	r2,50(r2)
   4a5b8:	e0bfff05 	stb	r2,-4(fp)
   4a5bc:	00800044 	movi	r2,1
   4a5c0:	e0bff705 	stb	r2,-36(fp)
   4a5c4:	00000906 	br	4a5ec <OSTaskSuspend+0xb8>
   4a5c8:	d0a70917 	ldw	r2,-25564(gp)
   4a5cc:	10800c83 	ldbu	r2,50(r2)
   4a5d0:	10c03fcc 	andi	r3,r2,255
   4a5d4:	e0bfff03 	ldbu	r2,-4(fp)
   4a5d8:	1880031e 	bne	r3,r2,4a5e8 <OSTaskSuspend+0xb4>
   4a5dc:	00800044 	movi	r2,1
   4a5e0:	e0bff705 	stb	r2,-36(fp)
   4a5e4:	00000106 	br	4a5ec <OSTaskSuspend+0xb8>
   4a5e8:	e03ff705 	stb	zero,-36(fp)
   4a5ec:	e0ffff03 	ldbu	r3,-4(fp)
   4a5f0:	00800174 	movhi	r2,5
   4a5f4:	10975104 	addi	r2,r2,23876
   4a5f8:	18c7883a 	add	r3,r3,r3
   4a5fc:	18c7883a 	add	r3,r3,r3
   4a600:	10c5883a 	add	r2,r2,r3
   4a604:	10800017 	ldw	r2,0(r2)
   4a608:	e0bffa15 	stw	r2,-24(fp)
   4a60c:	e0bffa17 	ldw	r2,-24(fp)
   4a610:	1000061e 	bne	r2,zero,4a62c <OSTaskSuspend+0xf8>
   4a614:	e0bff817 	ldw	r2,-32(fp)
   4a618:	e0bff915 	stw	r2,-28(fp)
   4a61c:	e0bff917 	ldw	r2,-28(fp)
   4a620:	1001703a 	wrctl	status,r2
   4a624:	00801204 	movi	r2,72
   4a628:	00003606 	br	4a704 <OSTaskSuspend+0x1d0>
   4a62c:	e0bffa17 	ldw	r2,-24(fp)
   4a630:	10800058 	cmpnei	r2,r2,1
   4a634:	1000061e 	bne	r2,zero,4a650 <OSTaskSuspend+0x11c>
   4a638:	e0bff817 	ldw	r2,-32(fp)
   4a63c:	e0bffb15 	stw	r2,-20(fp)
   4a640:	e0bffb17 	ldw	r2,-20(fp)
   4a644:	1001703a 	wrctl	status,r2
   4a648:	008010c4 	movi	r2,67
   4a64c:	00002d06 	br	4a704 <OSTaskSuspend+0x1d0>
   4a650:	e0bffa17 	ldw	r2,-24(fp)
   4a654:	10800d03 	ldbu	r2,52(r2)
   4a658:	e0bffd05 	stb	r2,-12(fp)
   4a65c:	e0fffd03 	ldbu	r3,-12(fp)
   4a660:	e13ffd03 	ldbu	r4,-12(fp)
   4a664:	d0a70644 	addi	r2,gp,-25575
   4a668:	2085883a 	add	r2,r4,r2
   4a66c:	10800003 	ldbu	r2,0(r2)
   4a670:	1009883a 	mov	r4,r2
   4a674:	e0bffa17 	ldw	r2,-24(fp)
   4a678:	10800d43 	ldbu	r2,53(r2)
   4a67c:	0084303a 	nor	r2,zero,r2
   4a680:	2084703a 	and	r2,r4,r2
   4a684:	1009883a 	mov	r4,r2
   4a688:	d0a70644 	addi	r2,gp,-25575
   4a68c:	1885883a 	add	r2,r3,r2
   4a690:	11000005 	stb	r4,0(r2)
   4a694:	e0fffd03 	ldbu	r3,-12(fp)
   4a698:	d0a70644 	addi	r2,gp,-25575
   4a69c:	1885883a 	add	r2,r3,r2
   4a6a0:	10800003 	ldbu	r2,0(r2)
   4a6a4:	10803fcc 	andi	r2,r2,255
   4a6a8:	1000071e 	bne	r2,zero,4a6c8 <OSTaskSuspend+0x194>
   4a6ac:	e0bffa17 	ldw	r2,-24(fp)
   4a6b0:	10800d83 	ldbu	r2,54(r2)
   4a6b4:	0084303a 	nor	r2,zero,r2
   4a6b8:	1007883a 	mov	r3,r2
   4a6bc:	d0a70603 	ldbu	r2,-25576(gp)
   4a6c0:	1884703a 	and	r2,r3,r2
   4a6c4:	d0a70605 	stb	r2,-25576(gp)
   4a6c8:	e0bffa17 	ldw	r2,-24(fp)
   4a6cc:	10800c03 	ldbu	r2,48(r2)
   4a6d0:	10800214 	ori	r2,r2,8
   4a6d4:	1007883a 	mov	r3,r2
   4a6d8:	e0bffa17 	ldw	r2,-24(fp)
   4a6dc:	10c00c05 	stb	r3,48(r2)
   4a6e0:	e0bff817 	ldw	r2,-32(fp)
   4a6e4:	e0bffc15 	stw	r2,-16(fp)
   4a6e8:	e0bffc17 	ldw	r2,-16(fp)
   4a6ec:	1001703a 	wrctl	status,r2
   4a6f0:	e0bff703 	ldbu	r2,-36(fp)
   4a6f4:	10800058 	cmpnei	r2,r2,1
   4a6f8:	1000011e 	bne	r2,zero,4a700 <OSTaskSuspend+0x1cc>
   4a6fc:	0044f040 	call	44f04 <OS_Sched>
   4a700:	0005883a 	mov	r2,zero
   4a704:	e037883a 	mov	sp,fp
   4a708:	dfc00117 	ldw	ra,4(sp)
   4a70c:	df000017 	ldw	fp,0(sp)
   4a710:	dec00204 	addi	sp,sp,8
   4a714:	f800283a 	ret

0004a718 <OSTaskQuery>:
   4a718:	defff604 	addi	sp,sp,-40
   4a71c:	dfc00915 	stw	ra,36(sp)
   4a720:	df000815 	stw	fp,32(sp)
   4a724:	df000804 	addi	fp,sp,32
   4a728:	2005883a 	mov	r2,r4
   4a72c:	e17fff15 	stw	r5,-4(fp)
   4a730:	e0bffe05 	stb	r2,-8(fp)
   4a734:	e03ff815 	stw	zero,-32(fp)
   4a738:	e0bffe03 	ldbu	r2,-8(fp)
   4a73c:	10800570 	cmpltui	r2,r2,21
   4a740:	1000051e 	bne	r2,zero,4a758 <OSTaskQuery+0x40>
   4a744:	e0bffe03 	ldbu	r2,-8(fp)
   4a748:	10803fe0 	cmpeqi	r2,r2,255
   4a74c:	1000021e 	bne	r2,zero,4a758 <OSTaskQuery+0x40>
   4a750:	00800a84 	movi	r2,42
   4a754:	00003406 	br	4a828 <OSTaskQuery+0x110>
   4a758:	e0bfff17 	ldw	r2,-4(fp)
   4a75c:	1000021e 	bne	r2,zero,4a768 <OSTaskQuery+0x50>
   4a760:	00800244 	movi	r2,9
   4a764:	00003006 	br	4a828 <OSTaskQuery+0x110>
   4a768:	0005303a 	rdctl	r2,status
   4a76c:	e0bffd15 	stw	r2,-12(fp)
   4a770:	e0fffd17 	ldw	r3,-12(fp)
   4a774:	00bfff84 	movi	r2,-2
   4a778:	1884703a 	and	r2,r3,r2
   4a77c:	1001703a 	wrctl	status,r2
   4a780:	e0bffd17 	ldw	r2,-12(fp)
   4a784:	e0bff815 	stw	r2,-32(fp)
   4a788:	e0bffe03 	ldbu	r2,-8(fp)
   4a78c:	10803fd8 	cmpnei	r2,r2,255
   4a790:	1000031e 	bne	r2,zero,4a7a0 <OSTaskQuery+0x88>
   4a794:	d0a70917 	ldw	r2,-25564(gp)
   4a798:	10800c83 	ldbu	r2,50(r2)
   4a79c:	e0bffe05 	stb	r2,-8(fp)
   4a7a0:	e0fffe03 	ldbu	r3,-8(fp)
   4a7a4:	00800174 	movhi	r2,5
   4a7a8:	10975104 	addi	r2,r2,23876
   4a7ac:	18c7883a 	add	r3,r3,r3
   4a7b0:	18c7883a 	add	r3,r3,r3
   4a7b4:	10c5883a 	add	r2,r2,r3
   4a7b8:	10800017 	ldw	r2,0(r2)
   4a7bc:	e0bffa15 	stw	r2,-24(fp)
   4a7c0:	e0bffa17 	ldw	r2,-24(fp)
   4a7c4:	1000061e 	bne	r2,zero,4a7e0 <OSTaskQuery+0xc8>
   4a7c8:	e0bff817 	ldw	r2,-32(fp)
   4a7cc:	e0bff915 	stw	r2,-28(fp)
   4a7d0:	e0bff917 	ldw	r2,-28(fp)
   4a7d4:	1001703a 	wrctl	status,r2
   4a7d8:	00800a44 	movi	r2,41
   4a7dc:	00001206 	br	4a828 <OSTaskQuery+0x110>
   4a7e0:	e0bffa17 	ldw	r2,-24(fp)
   4a7e4:	10800058 	cmpnei	r2,r2,1
   4a7e8:	1000061e 	bne	r2,zero,4a804 <OSTaskQuery+0xec>
   4a7ec:	e0bff817 	ldw	r2,-32(fp)
   4a7f0:	e0bffb15 	stw	r2,-20(fp)
   4a7f4:	e0bffb17 	ldw	r2,-20(fp)
   4a7f8:	1001703a 	wrctl	status,r2
   4a7fc:	008010c4 	movi	r2,67
   4a800:	00000906 	br	4a828 <OSTaskQuery+0x110>
   4a804:	01801b04 	movi	r6,108
   4a808:	e17ffa17 	ldw	r5,-24(fp)
   4a80c:	e13fff17 	ldw	r4,-4(fp)
   4a810:	0044e9c0 	call	44e9c <OS_MemCopy>
   4a814:	e0bff817 	ldw	r2,-32(fp)
   4a818:	e0bffc15 	stw	r2,-16(fp)
   4a81c:	e0bffc17 	ldw	r2,-16(fp)
   4a820:	1001703a 	wrctl	status,r2
   4a824:	0005883a 	mov	r2,zero
   4a828:	e037883a 	mov	sp,fp
   4a82c:	dfc00117 	ldw	ra,4(sp)
   4a830:	df000017 	ldw	fp,0(sp)
   4a834:	dec00204 	addi	sp,sp,8
   4a838:	f800283a 	ret

0004a83c <OS_TaskStkClr>:
   4a83c:	defffc04 	addi	sp,sp,-16
   4a840:	df000315 	stw	fp,12(sp)
   4a844:	df000304 	addi	fp,sp,12
   4a848:	e13ffd15 	stw	r4,-12(fp)
   4a84c:	e17ffe15 	stw	r5,-8(fp)
   4a850:	3005883a 	mov	r2,r6
   4a854:	e0bfff0d 	sth	r2,-4(fp)
   4a858:	e0bfff0b 	ldhu	r2,-4(fp)
   4a85c:	1080004c 	andi	r2,r2,1
   4a860:	10000d26 	beq	r2,zero,4a898 <OS_TaskStkClr+0x5c>
   4a864:	e0bfff0b 	ldhu	r2,-4(fp)
   4a868:	1080008c 	andi	r2,r2,2
   4a86c:	10000a26 	beq	r2,zero,4a898 <OS_TaskStkClr+0x5c>
   4a870:	00000706 	br	4a890 <OS_TaskStkClr+0x54>
   4a874:	e0bffe17 	ldw	r2,-8(fp)
   4a878:	10bfffc4 	addi	r2,r2,-1
   4a87c:	e0bffe15 	stw	r2,-8(fp)
   4a880:	e0bffd17 	ldw	r2,-12(fp)
   4a884:	10c00104 	addi	r3,r2,4
   4a888:	e0fffd15 	stw	r3,-12(fp)
   4a88c:	10000015 	stw	zero,0(r2)
   4a890:	e0bffe17 	ldw	r2,-8(fp)
   4a894:	103ff71e 	bne	r2,zero,4a874 <__alt_data_end+0xfffe5074>
   4a898:	0001883a 	nop
   4a89c:	e037883a 	mov	sp,fp
   4a8a0:	df000017 	ldw	fp,0(sp)
   4a8a4:	dec00104 	addi	sp,sp,4
   4a8a8:	f800283a 	ret

0004a8ac <OSTimeDly>:
   4a8ac:	defff904 	addi	sp,sp,-28
   4a8b0:	dfc00615 	stw	ra,24(sp)
   4a8b4:	df000515 	stw	fp,20(sp)
   4a8b8:	df000504 	addi	fp,sp,20
   4a8bc:	2005883a 	mov	r2,r4
   4a8c0:	e0bfff0d 	sth	r2,-4(fp)
   4a8c4:	e03ffb15 	stw	zero,-20(fp)
   4a8c8:	d0a70803 	ldbu	r2,-25568(gp)
   4a8cc:	10803fcc 	andi	r2,r2,255
   4a8d0:	1000311e 	bne	r2,zero,4a998 <OSTimeDly+0xec>
   4a8d4:	e0bfff0b 	ldhu	r2,-4(fp)
   4a8d8:	10003026 	beq	r2,zero,4a99c <OSTimeDly+0xf0>
   4a8dc:	0005303a 	rdctl	r2,status
   4a8e0:	e0bffe15 	stw	r2,-8(fp)
   4a8e4:	e0fffe17 	ldw	r3,-8(fp)
   4a8e8:	00bfff84 	movi	r2,-2
   4a8ec:	1884703a 	and	r2,r3,r2
   4a8f0:	1001703a 	wrctl	status,r2
   4a8f4:	e0bffe17 	ldw	r2,-8(fp)
   4a8f8:	e0bffb15 	stw	r2,-20(fp)
   4a8fc:	d0a70917 	ldw	r2,-25564(gp)
   4a900:	10800d03 	ldbu	r2,52(r2)
   4a904:	e0bffd05 	stb	r2,-12(fp)
   4a908:	e0fffd03 	ldbu	r3,-12(fp)
   4a90c:	e13ffd03 	ldbu	r4,-12(fp)
   4a910:	d0a70644 	addi	r2,gp,-25575
   4a914:	2085883a 	add	r2,r4,r2
   4a918:	10800003 	ldbu	r2,0(r2)
   4a91c:	1009883a 	mov	r4,r2
   4a920:	d0a70917 	ldw	r2,-25564(gp)
   4a924:	10800d43 	ldbu	r2,53(r2)
   4a928:	0084303a 	nor	r2,zero,r2
   4a92c:	2084703a 	and	r2,r4,r2
   4a930:	1009883a 	mov	r4,r2
   4a934:	d0a70644 	addi	r2,gp,-25575
   4a938:	1885883a 	add	r2,r3,r2
   4a93c:	11000005 	stb	r4,0(r2)
   4a940:	e0fffd03 	ldbu	r3,-12(fp)
   4a944:	d0a70644 	addi	r2,gp,-25575
   4a948:	1885883a 	add	r2,r3,r2
   4a94c:	10800003 	ldbu	r2,0(r2)
   4a950:	10803fcc 	andi	r2,r2,255
   4a954:	1000071e 	bne	r2,zero,4a974 <OSTimeDly+0xc8>
   4a958:	d0a70917 	ldw	r2,-25564(gp)
   4a95c:	10800d83 	ldbu	r2,54(r2)
   4a960:	0084303a 	nor	r2,zero,r2
   4a964:	1007883a 	mov	r3,r2
   4a968:	d0a70603 	ldbu	r2,-25576(gp)
   4a96c:	1884703a 	and	r2,r3,r2
   4a970:	d0a70605 	stb	r2,-25576(gp)
   4a974:	d0a70917 	ldw	r2,-25564(gp)
   4a978:	e0ffff0b 	ldhu	r3,-4(fp)
   4a97c:	10c00b8d 	sth	r3,46(r2)
   4a980:	e0bffb17 	ldw	r2,-20(fp)
   4a984:	e0bffc15 	stw	r2,-16(fp)
   4a988:	e0bffc17 	ldw	r2,-16(fp)
   4a98c:	1001703a 	wrctl	status,r2
   4a990:	0044f040 	call	44f04 <OS_Sched>
   4a994:	00000106 	br	4a99c <OSTimeDly+0xf0>
   4a998:	0001883a 	nop
   4a99c:	e037883a 	mov	sp,fp
   4a9a0:	dfc00117 	ldw	ra,4(sp)
   4a9a4:	df000017 	ldw	fp,0(sp)
   4a9a8:	dec00204 	addi	sp,sp,8
   4a9ac:	f800283a 	ret

0004a9b0 <OSTimeDlyHMSM>:
   4a9b0:	defff704 	addi	sp,sp,-36
   4a9b4:	dfc00815 	stw	ra,32(sp)
   4a9b8:	df000715 	stw	fp,28(sp)
   4a9bc:	dc000615 	stw	r16,24(sp)
   4a9c0:	df000704 	addi	fp,sp,28
   4a9c4:	2011883a 	mov	r8,r4
   4a9c8:	2809883a 	mov	r4,r5
   4a9cc:	3007883a 	mov	r3,r6
   4a9d0:	3805883a 	mov	r2,r7
   4a9d4:	e23ffb05 	stb	r8,-20(fp)
   4a9d8:	e13ffc05 	stb	r4,-16(fp)
   4a9dc:	e0fffd05 	stb	r3,-12(fp)
   4a9e0:	e0bffe0d 	sth	r2,-8(fp)
   4a9e4:	d0a70803 	ldbu	r2,-25568(gp)
   4a9e8:	10803fcc 	andi	r2,r2,255
   4a9ec:	10000226 	beq	r2,zero,4a9f8 <OSTimeDlyHMSM+0x48>
   4a9f0:	00801544 	movi	r2,85
   4a9f4:	00004706 	br	4ab14 <OSTimeDlyHMSM+0x164>
   4a9f8:	e0bffb03 	ldbu	r2,-20(fp)
   4a9fc:	1000081e 	bne	r2,zero,4aa20 <OSTimeDlyHMSM+0x70>
   4aa00:	e0bffc03 	ldbu	r2,-16(fp)
   4aa04:	1000061e 	bne	r2,zero,4aa20 <OSTimeDlyHMSM+0x70>
   4aa08:	e0bffd03 	ldbu	r2,-12(fp)
   4aa0c:	1000041e 	bne	r2,zero,4aa20 <OSTimeDlyHMSM+0x70>
   4aa10:	e0bffe0b 	ldhu	r2,-8(fp)
   4aa14:	1000021e 	bne	r2,zero,4aa20 <OSTimeDlyHMSM+0x70>
   4aa18:	00801504 	movi	r2,84
   4aa1c:	00003d06 	br	4ab14 <OSTimeDlyHMSM+0x164>
   4aa20:	e0bffc03 	ldbu	r2,-16(fp)
   4aa24:	10800f30 	cmpltui	r2,r2,60
   4aa28:	1000021e 	bne	r2,zero,4aa34 <OSTimeDlyHMSM+0x84>
   4aa2c:	00801444 	movi	r2,81
   4aa30:	00003806 	br	4ab14 <OSTimeDlyHMSM+0x164>
   4aa34:	e0bffd03 	ldbu	r2,-12(fp)
   4aa38:	10800f30 	cmpltui	r2,r2,60
   4aa3c:	1000021e 	bne	r2,zero,4aa48 <OSTimeDlyHMSM+0x98>
   4aa40:	00801484 	movi	r2,82
   4aa44:	00003306 	br	4ab14 <OSTimeDlyHMSM+0x164>
   4aa48:	e0bffe0b 	ldhu	r2,-8(fp)
   4aa4c:	1080fa30 	cmpltui	r2,r2,1000
   4aa50:	1000021e 	bne	r2,zero,4aa5c <OSTimeDlyHMSM+0xac>
   4aa54:	008014c4 	movi	r2,83
   4aa58:	00002e06 	br	4ab14 <OSTimeDlyHMSM+0x164>
   4aa5c:	e0bffb03 	ldbu	r2,-20(fp)
   4aa60:	01438404 	movi	r5,3600
   4aa64:	1009883a 	mov	r4,r2
   4aa68:	00426600 	call	42660 <__mulsi3>
   4aa6c:	1021883a 	mov	r16,r2
   4aa70:	e0bffc03 	ldbu	r2,-16(fp)
   4aa74:	01400f04 	movi	r5,60
   4aa78:	1009883a 	mov	r4,r2
   4aa7c:	00426600 	call	42660 <__mulsi3>
   4aa80:	8087883a 	add	r3,r16,r2
   4aa84:	e0bffd03 	ldbu	r2,-12(fp)
   4aa88:	1885883a 	add	r2,r3,r2
   4aa8c:	0140fa04 	movi	r5,1000
   4aa90:	1009883a 	mov	r4,r2
   4aa94:	00426600 	call	42660 <__mulsi3>
   4aa98:	1021883a 	mov	r16,r2
   4aa9c:	e0bffe0b 	ldhu	r2,-8(fp)
   4aaa0:	0140fa04 	movi	r5,1000
   4aaa4:	1009883a 	mov	r4,r2
   4aaa8:	00426600 	call	42660 <__mulsi3>
   4aaac:	0140fa04 	movi	r5,1000
   4aab0:	1009883a 	mov	r4,r2
   4aab4:	004d1840 	call	4d184 <__udivsi3>
   4aab8:	8085883a 	add	r2,r16,r2
   4aabc:	e0bffa15 	stw	r2,-24(fp)
   4aac0:	e0bffa17 	ldw	r2,-24(fp)
   4aac4:	1004d43a 	srli	r2,r2,16
   4aac8:	e0bff90d 	sth	r2,-28(fp)
   4aacc:	e0bffa17 	ldw	r2,-24(fp)
   4aad0:	10bfffcc 	andi	r2,r2,65535
   4aad4:	e0bffa15 	stw	r2,-24(fp)
   4aad8:	e0bffa17 	ldw	r2,-24(fp)
   4aadc:	10bfffcc 	andi	r2,r2,65535
   4aae0:	1009883a 	mov	r4,r2
   4aae4:	004a8ac0 	call	4a8ac <OSTimeDly>
   4aae8:	00000706 	br	4ab08 <OSTimeDlyHMSM+0x158>
   4aaec:	01200014 	movui	r4,32768
   4aaf0:	004a8ac0 	call	4a8ac <OSTimeDly>
   4aaf4:	01200014 	movui	r4,32768
   4aaf8:	004a8ac0 	call	4a8ac <OSTimeDly>
   4aafc:	e0bff90b 	ldhu	r2,-28(fp)
   4ab00:	10bfffc4 	addi	r2,r2,-1
   4ab04:	e0bff90d 	sth	r2,-28(fp)
   4ab08:	e0bff90b 	ldhu	r2,-28(fp)
   4ab0c:	103ff71e 	bne	r2,zero,4aaec <__alt_data_end+0xfffe52ec>
   4ab10:	0005883a 	mov	r2,zero
   4ab14:	e6ffff04 	addi	sp,fp,-4
   4ab18:	dfc00217 	ldw	ra,8(sp)
   4ab1c:	df000117 	ldw	fp,4(sp)
   4ab20:	dc000017 	ldw	r16,0(sp)
   4ab24:	dec00304 	addi	sp,sp,12
   4ab28:	f800283a 	ret

0004ab2c <OSTimeDlyResume>:
   4ab2c:	defff504 	addi	sp,sp,-44
   4ab30:	dfc00a15 	stw	ra,40(sp)
   4ab34:	df000915 	stw	fp,36(sp)
   4ab38:	df000904 	addi	fp,sp,36
   4ab3c:	2005883a 	mov	r2,r4
   4ab40:	e0bfff05 	stb	r2,-4(fp)
   4ab44:	e03ff715 	stw	zero,-36(fp)
   4ab48:	e0bfff03 	ldbu	r2,-4(fp)
   4ab4c:	10800530 	cmpltui	r2,r2,20
   4ab50:	1000021e 	bne	r2,zero,4ab5c <OSTimeDlyResume+0x30>
   4ab54:	00800a84 	movi	r2,42
   4ab58:	00006406 	br	4acec <OSTimeDlyResume+0x1c0>
   4ab5c:	0005303a 	rdctl	r2,status
   4ab60:	e0bffe15 	stw	r2,-8(fp)
   4ab64:	e0fffe17 	ldw	r3,-8(fp)
   4ab68:	00bfff84 	movi	r2,-2
   4ab6c:	1884703a 	and	r2,r3,r2
   4ab70:	1001703a 	wrctl	status,r2
   4ab74:	e0bffe17 	ldw	r2,-8(fp)
   4ab78:	e0bff715 	stw	r2,-36(fp)
   4ab7c:	e0ffff03 	ldbu	r3,-4(fp)
   4ab80:	00800174 	movhi	r2,5
   4ab84:	10975104 	addi	r2,r2,23876
   4ab88:	18c7883a 	add	r3,r3,r3
   4ab8c:	18c7883a 	add	r3,r3,r3
   4ab90:	10c5883a 	add	r2,r2,r3
   4ab94:	10800017 	ldw	r2,0(r2)
   4ab98:	e0bff915 	stw	r2,-28(fp)
   4ab9c:	e0bff917 	ldw	r2,-28(fp)
   4aba0:	1000061e 	bne	r2,zero,4abbc <OSTimeDlyResume+0x90>
   4aba4:	e0bff717 	ldw	r2,-36(fp)
   4aba8:	e0bff815 	stw	r2,-32(fp)
   4abac:	e0bff817 	ldw	r2,-32(fp)
   4abb0:	1001703a 	wrctl	status,r2
   4abb4:	008010c4 	movi	r2,67
   4abb8:	00004c06 	br	4acec <OSTimeDlyResume+0x1c0>
   4abbc:	e0bff917 	ldw	r2,-28(fp)
   4abc0:	10800058 	cmpnei	r2,r2,1
   4abc4:	1000061e 	bne	r2,zero,4abe0 <OSTimeDlyResume+0xb4>
   4abc8:	e0bff717 	ldw	r2,-36(fp)
   4abcc:	e0bffa15 	stw	r2,-24(fp)
   4abd0:	e0bffa17 	ldw	r2,-24(fp)
   4abd4:	1001703a 	wrctl	status,r2
   4abd8:	008010c4 	movi	r2,67
   4abdc:	00004306 	br	4acec <OSTimeDlyResume+0x1c0>
   4abe0:	e0bff917 	ldw	r2,-28(fp)
   4abe4:	10800b8b 	ldhu	r2,46(r2)
   4abe8:	10bfffcc 	andi	r2,r2,65535
   4abec:	1000061e 	bne	r2,zero,4ac08 <OSTimeDlyResume+0xdc>
   4abf0:	e0bff717 	ldw	r2,-36(fp)
   4abf4:	e0bffb15 	stw	r2,-20(fp)
   4abf8:	e0bffb17 	ldw	r2,-20(fp)
   4abfc:	1001703a 	wrctl	status,r2
   4ac00:	00801404 	movi	r2,80
   4ac04:	00003906 	br	4acec <OSTimeDlyResume+0x1c0>
   4ac08:	e0bff917 	ldw	r2,-28(fp)
   4ac0c:	10000b8d 	sth	zero,46(r2)
   4ac10:	e0bff917 	ldw	r2,-28(fp)
   4ac14:	10800c03 	ldbu	r2,48(r2)
   4ac18:	10803fcc 	andi	r2,r2,255
   4ac1c:	10800dcc 	andi	r2,r2,55
   4ac20:	10000b26 	beq	r2,zero,4ac50 <OSTimeDlyResume+0x124>
   4ac24:	e0bff917 	ldw	r2,-28(fp)
   4ac28:	10c00c03 	ldbu	r3,48(r2)
   4ac2c:	00bff204 	movi	r2,-56
   4ac30:	1884703a 	and	r2,r3,r2
   4ac34:	1007883a 	mov	r3,r2
   4ac38:	e0bff917 	ldw	r2,-28(fp)
   4ac3c:	10c00c05 	stb	r3,48(r2)
   4ac40:	e0bff917 	ldw	r2,-28(fp)
   4ac44:	00c00044 	movi	r3,1
   4ac48:	10c00c45 	stb	r3,49(r2)
   4ac4c:	00000206 	br	4ac58 <OSTimeDlyResume+0x12c>
   4ac50:	e0bff917 	ldw	r2,-28(fp)
   4ac54:	10000c45 	stb	zero,49(r2)
   4ac58:	e0bff917 	ldw	r2,-28(fp)
   4ac5c:	10800c03 	ldbu	r2,48(r2)
   4ac60:	10803fcc 	andi	r2,r2,255
   4ac64:	1080020c 	andi	r2,r2,8
   4ac68:	10001b1e 	bne	r2,zero,4acd8 <OSTimeDlyResume+0x1ac>
   4ac6c:	e0bff917 	ldw	r2,-28(fp)
   4ac70:	10c00d83 	ldbu	r3,54(r2)
   4ac74:	d0a70603 	ldbu	r2,-25576(gp)
   4ac78:	1884b03a 	or	r2,r3,r2
   4ac7c:	d0a70605 	stb	r2,-25576(gp)
   4ac80:	e0bff917 	ldw	r2,-28(fp)
   4ac84:	10800d03 	ldbu	r2,52(r2)
   4ac88:	10c03fcc 	andi	r3,r2,255
   4ac8c:	e0bff917 	ldw	r2,-28(fp)
   4ac90:	10800d03 	ldbu	r2,52(r2)
   4ac94:	11003fcc 	andi	r4,r2,255
   4ac98:	d0a70644 	addi	r2,gp,-25575
   4ac9c:	2085883a 	add	r2,r4,r2
   4aca0:	11000003 	ldbu	r4,0(r2)
   4aca4:	e0bff917 	ldw	r2,-28(fp)
   4aca8:	10800d43 	ldbu	r2,53(r2)
   4acac:	2084b03a 	or	r2,r4,r2
   4acb0:	1009883a 	mov	r4,r2
   4acb4:	d0a70644 	addi	r2,gp,-25575
   4acb8:	1885883a 	add	r2,r3,r2
   4acbc:	11000005 	stb	r4,0(r2)
   4acc0:	e0bff717 	ldw	r2,-36(fp)
   4acc4:	e0bffc15 	stw	r2,-16(fp)
   4acc8:	e0bffc17 	ldw	r2,-16(fp)
   4accc:	1001703a 	wrctl	status,r2
   4acd0:	0044f040 	call	44f04 <OS_Sched>
   4acd4:	00000406 	br	4ace8 <OSTimeDlyResume+0x1bc>
   4acd8:	e0bff717 	ldw	r2,-36(fp)
   4acdc:	e0bffd15 	stw	r2,-12(fp)
   4ace0:	e0bffd17 	ldw	r2,-12(fp)
   4ace4:	1001703a 	wrctl	status,r2
   4ace8:	0005883a 	mov	r2,zero
   4acec:	e037883a 	mov	sp,fp
   4acf0:	dfc00117 	ldw	ra,4(sp)
   4acf4:	df000017 	ldw	fp,0(sp)
   4acf8:	dec00204 	addi	sp,sp,8
   4acfc:	f800283a 	ret

0004ad00 <OSTimeGet>:
   4ad00:	defffb04 	addi	sp,sp,-20
   4ad04:	df000415 	stw	fp,16(sp)
   4ad08:	df000404 	addi	fp,sp,16
   4ad0c:	e03ffc15 	stw	zero,-16(fp)
   4ad10:	0005303a 	rdctl	r2,status
   4ad14:	e0bffe15 	stw	r2,-8(fp)
   4ad18:	e0fffe17 	ldw	r3,-8(fp)
   4ad1c:	00bfff84 	movi	r2,-2
   4ad20:	1884703a 	and	r2,r3,r2
   4ad24:	1001703a 	wrctl	status,r2
   4ad28:	e0bffe17 	ldw	r2,-8(fp)
   4ad2c:	e0bffc15 	stw	r2,-16(fp)
   4ad30:	d0a70a17 	ldw	r2,-25560(gp)
   4ad34:	e0bffd15 	stw	r2,-12(fp)
   4ad38:	e0bffc17 	ldw	r2,-16(fp)
   4ad3c:	e0bfff15 	stw	r2,-4(fp)
   4ad40:	e0bfff17 	ldw	r2,-4(fp)
   4ad44:	1001703a 	wrctl	status,r2
   4ad48:	e0bffd17 	ldw	r2,-12(fp)
   4ad4c:	e037883a 	mov	sp,fp
   4ad50:	df000017 	ldw	fp,0(sp)
   4ad54:	dec00104 	addi	sp,sp,4
   4ad58:	f800283a 	ret

0004ad5c <OSTimeSet>:
   4ad5c:	defffb04 	addi	sp,sp,-20
   4ad60:	df000415 	stw	fp,16(sp)
   4ad64:	df000404 	addi	fp,sp,16
   4ad68:	e13fff15 	stw	r4,-4(fp)
   4ad6c:	e03ffc15 	stw	zero,-16(fp)
   4ad70:	0005303a 	rdctl	r2,status
   4ad74:	e0bffd15 	stw	r2,-12(fp)
   4ad78:	e0fffd17 	ldw	r3,-12(fp)
   4ad7c:	00bfff84 	movi	r2,-2
   4ad80:	1884703a 	and	r2,r3,r2
   4ad84:	1001703a 	wrctl	status,r2
   4ad88:	e0bffd17 	ldw	r2,-12(fp)
   4ad8c:	e0bffc15 	stw	r2,-16(fp)
   4ad90:	e0bfff17 	ldw	r2,-4(fp)
   4ad94:	d0a70a15 	stw	r2,-25560(gp)
   4ad98:	e0bffc17 	ldw	r2,-16(fp)
   4ad9c:	e0bffe15 	stw	r2,-8(fp)
   4ada0:	e0bffe17 	ldw	r2,-8(fp)
   4ada4:	1001703a 	wrctl	status,r2
   4ada8:	0001883a 	nop
   4adac:	e037883a 	mov	sp,fp
   4adb0:	df000017 	ldw	fp,0(sp)
   4adb4:	dec00104 	addi	sp,sp,4
   4adb8:	f800283a 	ret

0004adbc <alt_dev_reg>:
   4adbc:	defffd04 	addi	sp,sp,-12
   4adc0:	dfc00215 	stw	ra,8(sp)
   4adc4:	df000115 	stw	fp,4(sp)
   4adc8:	df000104 	addi	fp,sp,4
   4adcc:	e13fff15 	stw	r4,-4(fp)
   4add0:	d1600604 	addi	r5,gp,-32744
   4add4:	e13fff17 	ldw	r4,-4(fp)
   4add8:	004be340 	call	4be34 <alt_dev_llist_insert>
   4addc:	e037883a 	mov	sp,fp
   4ade0:	dfc00117 	ldw	ra,4(sp)
   4ade4:	df000017 	ldw	fp,0(sp)
   4ade8:	dec00204 	addi	sp,sp,8
   4adec:	f800283a 	ret

0004adf0 <alt_irq_init>:
   4adf0:	defffd04 	addi	sp,sp,-12
   4adf4:	dfc00215 	stw	ra,8(sp)
   4adf8:	df000115 	stw	fp,4(sp)
   4adfc:	df000104 	addi	fp,sp,4
   4ae00:	e13fff15 	stw	r4,-4(fp)
   4ae04:	004c5dc0 	call	4c5dc <altera_nios2_gen2_irq_init>
   4ae08:	00800044 	movi	r2,1
   4ae0c:	1001703a 	wrctl	status,r2
   4ae10:	0001883a 	nop
   4ae14:	e037883a 	mov	sp,fp
   4ae18:	dfc00117 	ldw	ra,4(sp)
   4ae1c:	df000017 	ldw	fp,0(sp)
   4ae20:	dec00204 	addi	sp,sp,8
   4ae24:	f800283a 	ret

0004ae28 <alt_sys_init>:
   4ae28:	defffe04 	addi	sp,sp,-8
   4ae2c:	dfc00115 	stw	ra,4(sp)
   4ae30:	df000015 	stw	fp,0(sp)
   4ae34:	d839883a 	mov	fp,sp
   4ae38:	01c0fa04 	movi	r7,1000
   4ae3c:	01800044 	movi	r6,1
   4ae40:	000b883a 	mov	r5,zero
   4ae44:	01000234 	movhi	r4,8
   4ae48:	21040004 	addi	r4,r4,4096
   4ae4c:	004bc300 	call	4bc30 <alt_avalon_timer_sc_init>
   4ae50:	01800404 	movi	r6,16
   4ae54:	000b883a 	mov	r5,zero
   4ae58:	01000174 	movhi	r4,5
   4ae5c:	21377104 	addi	r4,r4,-8764
   4ae60:	004aff00 	call	4aff0 <altera_avalon_jtag_uart_init>
   4ae64:	01000174 	movhi	r4,5
   4ae68:	21376704 	addi	r4,r4,-8804
   4ae6c:	004adbc0 	call	4adbc <alt_dev_reg>
   4ae70:	0001883a 	nop
   4ae74:	0001883a 	nop
   4ae78:	e037883a 	mov	sp,fp
   4ae7c:	dfc00117 	ldw	ra,4(sp)
   4ae80:	df000017 	ldw	fp,0(sp)
   4ae84:	dec00204 	addi	sp,sp,8
   4ae88:	f800283a 	ret

0004ae8c <altera_avalon_jtag_uart_read_fd>:
   4ae8c:	defffa04 	addi	sp,sp,-24
   4ae90:	dfc00515 	stw	ra,20(sp)
   4ae94:	df000415 	stw	fp,16(sp)
   4ae98:	df000404 	addi	fp,sp,16
   4ae9c:	e13ffd15 	stw	r4,-12(fp)
   4aea0:	e17ffe15 	stw	r5,-8(fp)
   4aea4:	e1bfff15 	stw	r6,-4(fp)
   4aea8:	e0bffd17 	ldw	r2,-12(fp)
   4aeac:	10800017 	ldw	r2,0(r2)
   4aeb0:	e0bffc15 	stw	r2,-16(fp)
   4aeb4:	e0bffc17 	ldw	r2,-16(fp)
   4aeb8:	10c00a04 	addi	r3,r2,40
   4aebc:	e0bffd17 	ldw	r2,-12(fp)
   4aec0:	10800217 	ldw	r2,8(r2)
   4aec4:	100f883a 	mov	r7,r2
   4aec8:	e1bfff17 	ldw	r6,-4(fp)
   4aecc:	e17ffe17 	ldw	r5,-8(fp)
   4aed0:	1809883a 	mov	r4,r3
   4aed4:	004b6380 	call	4b638 <altera_avalon_jtag_uart_read>
   4aed8:	e037883a 	mov	sp,fp
   4aedc:	dfc00117 	ldw	ra,4(sp)
   4aee0:	df000017 	ldw	fp,0(sp)
   4aee4:	dec00204 	addi	sp,sp,8
   4aee8:	f800283a 	ret

0004aeec <altera_avalon_jtag_uart_write_fd>:
   4aeec:	defffa04 	addi	sp,sp,-24
   4aef0:	dfc00515 	stw	ra,20(sp)
   4aef4:	df000415 	stw	fp,16(sp)
   4aef8:	df000404 	addi	fp,sp,16
   4aefc:	e13ffd15 	stw	r4,-12(fp)
   4af00:	e17ffe15 	stw	r5,-8(fp)
   4af04:	e1bfff15 	stw	r6,-4(fp)
   4af08:	e0bffd17 	ldw	r2,-12(fp)
   4af0c:	10800017 	ldw	r2,0(r2)
   4af10:	e0bffc15 	stw	r2,-16(fp)
   4af14:	e0bffc17 	ldw	r2,-16(fp)
   4af18:	10c00a04 	addi	r3,r2,40
   4af1c:	e0bffd17 	ldw	r2,-12(fp)
   4af20:	10800217 	ldw	r2,8(r2)
   4af24:	100f883a 	mov	r7,r2
   4af28:	e1bfff17 	ldw	r6,-4(fp)
   4af2c:	e17ffe17 	ldw	r5,-8(fp)
   4af30:	1809883a 	mov	r4,r3
   4af34:	004b8f40 	call	4b8f4 <altera_avalon_jtag_uart_write>
   4af38:	e037883a 	mov	sp,fp
   4af3c:	dfc00117 	ldw	ra,4(sp)
   4af40:	df000017 	ldw	fp,0(sp)
   4af44:	dec00204 	addi	sp,sp,8
   4af48:	f800283a 	ret

0004af4c <altera_avalon_jtag_uart_close_fd>:
   4af4c:	defffc04 	addi	sp,sp,-16
   4af50:	dfc00315 	stw	ra,12(sp)
   4af54:	df000215 	stw	fp,8(sp)
   4af58:	df000204 	addi	fp,sp,8
   4af5c:	e13fff15 	stw	r4,-4(fp)
   4af60:	e0bfff17 	ldw	r2,-4(fp)
   4af64:	10800017 	ldw	r2,0(r2)
   4af68:	e0bffe15 	stw	r2,-8(fp)
   4af6c:	e0bffe17 	ldw	r2,-8(fp)
   4af70:	10c00a04 	addi	r3,r2,40
   4af74:	e0bfff17 	ldw	r2,-4(fp)
   4af78:	10800217 	ldw	r2,8(r2)
   4af7c:	100b883a 	mov	r5,r2
   4af80:	1809883a 	mov	r4,r3
   4af84:	004b4e00 	call	4b4e0 <altera_avalon_jtag_uart_close>
   4af88:	e037883a 	mov	sp,fp
   4af8c:	dfc00117 	ldw	ra,4(sp)
   4af90:	df000017 	ldw	fp,0(sp)
   4af94:	dec00204 	addi	sp,sp,8
   4af98:	f800283a 	ret

0004af9c <altera_avalon_jtag_uart_ioctl_fd>:
   4af9c:	defffa04 	addi	sp,sp,-24
   4afa0:	dfc00515 	stw	ra,20(sp)
   4afa4:	df000415 	stw	fp,16(sp)
   4afa8:	df000404 	addi	fp,sp,16
   4afac:	e13ffd15 	stw	r4,-12(fp)
   4afb0:	e17ffe15 	stw	r5,-8(fp)
   4afb4:	e1bfff15 	stw	r6,-4(fp)
   4afb8:	e0bffd17 	ldw	r2,-12(fp)
   4afbc:	10800017 	ldw	r2,0(r2)
   4afc0:	e0bffc15 	stw	r2,-16(fp)
   4afc4:	e0bffc17 	ldw	r2,-16(fp)
   4afc8:	10800a04 	addi	r2,r2,40
   4afcc:	e1bfff17 	ldw	r6,-4(fp)
   4afd0:	e17ffe17 	ldw	r5,-8(fp)
   4afd4:	1009883a 	mov	r4,r2
   4afd8:	004b5480 	call	4b548 <altera_avalon_jtag_uart_ioctl>
   4afdc:	e037883a 	mov	sp,fp
   4afe0:	dfc00117 	ldw	ra,4(sp)
   4afe4:	df000017 	ldw	fp,0(sp)
   4afe8:	dec00204 	addi	sp,sp,8
   4afec:	f800283a 	ret

0004aff0 <altera_avalon_jtag_uart_init>:
   4aff0:	defff104 	addi	sp,sp,-60
   4aff4:	dfc00e15 	stw	ra,56(sp)
   4aff8:	df000d15 	stw	fp,52(sp)
   4affc:	df000d04 	addi	fp,sp,52
   4b000:	e13ff915 	stw	r4,-28(fp)
   4b004:	e17ffa15 	stw	r5,-24(fp)
   4b008:	e1bffb15 	stw	r6,-20(fp)
   4b00c:	e0bff917 	ldw	r2,-28(fp)
   4b010:	10800c04 	addi	r2,r2,48
   4b014:	e0bff415 	stw	r2,-48(fp)
   4b018:	e03ff80d 	sth	zero,-32(fp)
   4b01c:	e0bff80b 	ldhu	r2,-32(fp)
   4b020:	e0fff884 	addi	r3,fp,-30
   4b024:	180b883a 	mov	r5,r3
   4b028:	1009883a 	mov	r4,r2
   4b02c:	0045a700 	call	45a70 <OSFlagCreate>
   4b030:	1007883a 	mov	r3,r2
   4b034:	e0bff417 	ldw	r2,-48(fp)
   4b038:	10c00015 	stw	r3,0(r2)
   4b03c:	e0bff917 	ldw	r2,-28(fp)
   4b040:	10800a04 	addi	r2,r2,40
   4b044:	e0bff515 	stw	r2,-44(fp)
   4b048:	00800044 	movi	r2,1
   4b04c:	e0bff78d 	sth	r2,-34(fp)
   4b050:	e0bff78b 	ldhu	r2,-34(fp)
   4b054:	1009883a 	mov	r4,r2
   4b058:	00487900 	call	48790 <OSSemCreate>
   4b05c:	1007883a 	mov	r3,r2
   4b060:	e0bff517 	ldw	r2,-44(fp)
   4b064:	10c00015 	stw	r3,0(r2)
   4b068:	e0bff917 	ldw	r2,-28(fp)
   4b06c:	10800b04 	addi	r2,r2,44
   4b070:	e0bff615 	stw	r2,-40(fp)
   4b074:	00800044 	movi	r2,1
   4b078:	e0bff70d 	sth	r2,-36(fp)
   4b07c:	e0bff70b 	ldhu	r2,-36(fp)
   4b080:	1009883a 	mov	r4,r2
   4b084:	00487900 	call	48790 <OSSemCreate>
   4b088:	1007883a 	mov	r3,r2
   4b08c:	e0bff617 	ldw	r2,-40(fp)
   4b090:	10c00015 	stw	r3,0(r2)
   4b094:	e0bff917 	ldw	r2,-28(fp)
   4b098:	00c00044 	movi	r3,1
   4b09c:	10c00815 	stw	r3,32(r2)
   4b0a0:	e0bff917 	ldw	r2,-28(fp)
   4b0a4:	10800017 	ldw	r2,0(r2)
   4b0a8:	10800104 	addi	r2,r2,4
   4b0ac:	1007883a 	mov	r3,r2
   4b0b0:	e0bff917 	ldw	r2,-28(fp)
   4b0b4:	10800817 	ldw	r2,32(r2)
   4b0b8:	18800035 	stwio	r2,0(r3)
   4b0bc:	e0bffa17 	ldw	r2,-24(fp)
   4b0c0:	e0fffb17 	ldw	r3,-20(fp)
   4b0c4:	d8000015 	stw	zero,0(sp)
   4b0c8:	e1fff917 	ldw	r7,-28(fp)
   4b0cc:	01800174 	movhi	r6,5
   4b0d0:	31ac4e04 	addi	r6,r6,-20168
   4b0d4:	180b883a 	mov	r5,r3
   4b0d8:	1009883a 	mov	r4,r2
   4b0dc:	00428bc0 	call	428bc <alt_ic_isr_register>
   4b0e0:	e0bff917 	ldw	r2,-28(fp)
   4b0e4:	10000915 	stw	zero,36(r2)
   4b0e8:	e0bff917 	ldw	r2,-28(fp)
   4b0ec:	10800204 	addi	r2,r2,8
   4b0f0:	d0e70f17 	ldw	r3,-25540(gp)
   4b0f4:	e1fff917 	ldw	r7,-28(fp)
   4b0f8:	01800174 	movhi	r6,5
   4b0fc:	31acf704 	addi	r6,r6,-19492
   4b100:	180b883a 	mov	r5,r3
   4b104:	1009883a 	mov	r4,r2
   4b108:	004bcac0 	call	4bcac <alt_alarm_start>
   4b10c:	1000040e 	bge	r2,zero,4b120 <altera_avalon_jtag_uart_init+0x130>
   4b110:	e0fff917 	ldw	r3,-28(fp)
   4b114:	00a00034 	movhi	r2,32768
   4b118:	10bfffc4 	addi	r2,r2,-1
   4b11c:	18800115 	stw	r2,4(r3)
   4b120:	0001883a 	nop
   4b124:	e037883a 	mov	sp,fp
   4b128:	dfc00117 	ldw	ra,4(sp)
   4b12c:	df000017 	ldw	fp,0(sp)
   4b130:	dec00204 	addi	sp,sp,8
   4b134:	f800283a 	ret

0004b138 <altera_avalon_jtag_uart_irq>:
   4b138:	defff204 	addi	sp,sp,-56
   4b13c:	dfc00d15 	stw	ra,52(sp)
   4b140:	df000c15 	stw	fp,48(sp)
   4b144:	df000c04 	addi	fp,sp,48
   4b148:	e13fff15 	stw	r4,-4(fp)
   4b14c:	e0bfff17 	ldw	r2,-4(fp)
   4b150:	e0bff615 	stw	r2,-40(fp)
   4b154:	e0bff617 	ldw	r2,-40(fp)
   4b158:	10800017 	ldw	r2,0(r2)
   4b15c:	e0bff715 	stw	r2,-36(fp)
   4b160:	e0bff717 	ldw	r2,-36(fp)
   4b164:	10800104 	addi	r2,r2,4
   4b168:	10800037 	ldwio	r2,0(r2)
   4b16c:	e0bff815 	stw	r2,-32(fp)
   4b170:	e0bff817 	ldw	r2,-32(fp)
   4b174:	1080c00c 	andi	r2,r2,768
   4b178:	10009126 	beq	r2,zero,4b3c0 <altera_avalon_jtag_uart_irq+0x288>
   4b17c:	e0bff817 	ldw	r2,-32(fp)
   4b180:	1080400c 	andi	r2,r2,256
   4b184:	10004726 	beq	r2,zero,4b2a4 <altera_avalon_jtag_uart_irq+0x16c>
   4b188:	00800074 	movhi	r2,1
   4b18c:	e0bff415 	stw	r2,-48(fp)
   4b190:	e0bff617 	ldw	r2,-40(fp)
   4b194:	10800d17 	ldw	r2,52(r2)
   4b198:	10800044 	addi	r2,r2,1
   4b19c:	1081ffcc 	andi	r2,r2,2047
   4b1a0:	e0bff915 	stw	r2,-28(fp)
   4b1a4:	e0bff617 	ldw	r2,-40(fp)
   4b1a8:	10c00e17 	ldw	r3,56(r2)
   4b1ac:	e0bff917 	ldw	r2,-28(fp)
   4b1b0:	18802726 	beq	r3,r2,4b250 <altera_avalon_jtag_uart_irq+0x118>
   4b1b4:	e0bff717 	ldw	r2,-36(fp)
   4b1b8:	10800037 	ldwio	r2,0(r2)
   4b1bc:	e0bff415 	stw	r2,-48(fp)
   4b1c0:	e0bff417 	ldw	r2,-48(fp)
   4b1c4:	10a0000c 	andi	r2,r2,32768
   4b1c8:	10002326 	beq	r2,zero,4b258 <altera_avalon_jtag_uart_irq+0x120>
   4b1cc:	e0bff617 	ldw	r2,-40(fp)
   4b1d0:	10800d17 	ldw	r2,52(r2)
   4b1d4:	e0fff417 	ldw	r3,-48(fp)
   4b1d8:	1809883a 	mov	r4,r3
   4b1dc:	e0fff617 	ldw	r3,-40(fp)
   4b1e0:	1885883a 	add	r2,r3,r2
   4b1e4:	10801104 	addi	r2,r2,68
   4b1e8:	11000005 	stb	r4,0(r2)
   4b1ec:	e0bff617 	ldw	r2,-40(fp)
   4b1f0:	10800d17 	ldw	r2,52(r2)
   4b1f4:	10800044 	addi	r2,r2,1
   4b1f8:	10c1ffcc 	andi	r3,r2,2047
   4b1fc:	e0bff617 	ldw	r2,-40(fp)
   4b200:	10c00d15 	stw	r3,52(r2)
   4b204:	e0bff617 	ldw	r2,-40(fp)
   4b208:	10800c17 	ldw	r2,48(r2)
   4b20c:	e0bffb15 	stw	r2,-20(fp)
   4b210:	00800044 	movi	r2,1
   4b214:	e0bffc0d 	sth	r2,-16(fp)
   4b218:	00800044 	movi	r2,1
   4b21c:	e0bffc85 	stb	r2,-14(fp)
   4b220:	d0a6fa43 	ldbu	r2,-25623(gp)
   4b224:	10803fcc 	andi	r2,r2,255
   4b228:	103fd926 	beq	r2,zero,4b190 <__alt_data_end+0xfffe5990>
   4b22c:	e0bffc0b 	ldhu	r2,-16(fp)
   4b230:	e0fffc83 	ldbu	r3,-14(fp)
   4b234:	e13ffdc4 	addi	r4,fp,-9
   4b238:	200f883a 	mov	r7,r4
   4b23c:	180d883a 	mov	r6,r3
   4b240:	100b883a 	mov	r5,r2
   4b244:	e13ffb17 	ldw	r4,-20(fp)
   4b248:	004664c0 	call	4664c <OSFlagPost>
   4b24c:	003fd006 	br	4b190 <__alt_data_end+0xfffe5990>
   4b250:	0001883a 	nop
   4b254:	00000106 	br	4b25c <altera_avalon_jtag_uart_irq+0x124>
   4b258:	0001883a 	nop
   4b25c:	e0bff417 	ldw	r2,-48(fp)
   4b260:	10bfffec 	andhi	r2,r2,65535
   4b264:	10000f26 	beq	r2,zero,4b2a4 <altera_avalon_jtag_uart_irq+0x16c>
   4b268:	e0bff617 	ldw	r2,-40(fp)
   4b26c:	10c00817 	ldw	r3,32(r2)
   4b270:	00bfff84 	movi	r2,-2
   4b274:	1886703a 	and	r3,r3,r2
   4b278:	e0bff617 	ldw	r2,-40(fp)
   4b27c:	10c00815 	stw	r3,32(r2)
   4b280:	e0bff717 	ldw	r2,-36(fp)
   4b284:	10800104 	addi	r2,r2,4
   4b288:	1007883a 	mov	r3,r2
   4b28c:	e0bff617 	ldw	r2,-40(fp)
   4b290:	10800817 	ldw	r2,32(r2)
   4b294:	18800035 	stwio	r2,0(r3)
   4b298:	e0bff717 	ldw	r2,-36(fp)
   4b29c:	10800104 	addi	r2,r2,4
   4b2a0:	10800037 	ldwio	r2,0(r2)
   4b2a4:	e0bff817 	ldw	r2,-32(fp)
   4b2a8:	1080800c 	andi	r2,r2,512
   4b2ac:	103fac26 	beq	r2,zero,4b160 <__alt_data_end+0xfffe5960>
   4b2b0:	e0bff817 	ldw	r2,-32(fp)
   4b2b4:	1004d43a 	srli	r2,r2,16
   4b2b8:	e0bff515 	stw	r2,-44(fp)
   4b2bc:	00002606 	br	4b358 <altera_avalon_jtag_uart_irq+0x220>
   4b2c0:	e0bff717 	ldw	r2,-36(fp)
   4b2c4:	e0fff617 	ldw	r3,-40(fp)
   4b2c8:	18c01017 	ldw	r3,64(r3)
   4b2cc:	e13ff617 	ldw	r4,-40(fp)
   4b2d0:	20c7883a 	add	r3,r4,r3
   4b2d4:	18c21104 	addi	r3,r3,2116
   4b2d8:	18c00003 	ldbu	r3,0(r3)
   4b2dc:	18c03fcc 	andi	r3,r3,255
   4b2e0:	18c0201c 	xori	r3,r3,128
   4b2e4:	18ffe004 	addi	r3,r3,-128
   4b2e8:	10c00035 	stwio	r3,0(r2)
   4b2ec:	e0bff617 	ldw	r2,-40(fp)
   4b2f0:	10801017 	ldw	r2,64(r2)
   4b2f4:	10800044 	addi	r2,r2,1
   4b2f8:	10c1ffcc 	andi	r3,r2,2047
   4b2fc:	e0bff617 	ldw	r2,-40(fp)
   4b300:	10c01015 	stw	r3,64(r2)
   4b304:	e0bff617 	ldw	r2,-40(fp)
   4b308:	10800c17 	ldw	r2,48(r2)
   4b30c:	e0bffa15 	stw	r2,-24(fp)
   4b310:	00800084 	movi	r2,2
   4b314:	e0bffd0d 	sth	r2,-12(fp)
   4b318:	00800044 	movi	r2,1
   4b31c:	e0bffd85 	stb	r2,-10(fp)
   4b320:	d0a6fa43 	ldbu	r2,-25623(gp)
   4b324:	10803fcc 	andi	r2,r2,255
   4b328:	10000826 	beq	r2,zero,4b34c <altera_avalon_jtag_uart_irq+0x214>
   4b32c:	e0bffd0b 	ldhu	r2,-12(fp)
   4b330:	e0fffd83 	ldbu	r3,-10(fp)
   4b334:	e13ffe04 	addi	r4,fp,-8
   4b338:	200f883a 	mov	r7,r4
   4b33c:	180d883a 	mov	r6,r3
   4b340:	100b883a 	mov	r5,r2
   4b344:	e13ffa17 	ldw	r4,-24(fp)
   4b348:	004664c0 	call	4664c <OSFlagPost>
   4b34c:	e0bff517 	ldw	r2,-44(fp)
   4b350:	10bfffc4 	addi	r2,r2,-1
   4b354:	e0bff515 	stw	r2,-44(fp)
   4b358:	e0bff517 	ldw	r2,-44(fp)
   4b35c:	10000526 	beq	r2,zero,4b374 <altera_avalon_jtag_uart_irq+0x23c>
   4b360:	e0bff617 	ldw	r2,-40(fp)
   4b364:	10c01017 	ldw	r3,64(r2)
   4b368:	e0bff617 	ldw	r2,-40(fp)
   4b36c:	10800f17 	ldw	r2,60(r2)
   4b370:	18bfd31e 	bne	r3,r2,4b2c0 <__alt_data_end+0xfffe5ac0>
   4b374:	e0bff517 	ldw	r2,-44(fp)
   4b378:	103f7926 	beq	r2,zero,4b160 <__alt_data_end+0xfffe5960>
   4b37c:	e0bff617 	ldw	r2,-40(fp)
   4b380:	10c00817 	ldw	r3,32(r2)
   4b384:	00bfff44 	movi	r2,-3
   4b388:	1886703a 	and	r3,r3,r2
   4b38c:	e0bff617 	ldw	r2,-40(fp)
   4b390:	10c00815 	stw	r3,32(r2)
   4b394:	e0bff617 	ldw	r2,-40(fp)
   4b398:	10800017 	ldw	r2,0(r2)
   4b39c:	10800104 	addi	r2,r2,4
   4b3a0:	1007883a 	mov	r3,r2
   4b3a4:	e0bff617 	ldw	r2,-40(fp)
   4b3a8:	10800817 	ldw	r2,32(r2)
   4b3ac:	18800035 	stwio	r2,0(r3)
   4b3b0:	e0bff717 	ldw	r2,-36(fp)
   4b3b4:	10800104 	addi	r2,r2,4
   4b3b8:	10800037 	ldwio	r2,0(r2)
   4b3bc:	003f6806 	br	4b160 <__alt_data_end+0xfffe5960>
   4b3c0:	0001883a 	nop
   4b3c4:	0001883a 	nop
   4b3c8:	e037883a 	mov	sp,fp
   4b3cc:	dfc00117 	ldw	ra,4(sp)
   4b3d0:	df000017 	ldw	fp,0(sp)
   4b3d4:	dec00204 	addi	sp,sp,8
   4b3d8:	f800283a 	ret

0004b3dc <altera_avalon_jtag_uart_timeout>:
   4b3dc:	defff904 	addi	sp,sp,-28
   4b3e0:	dfc00615 	stw	ra,24(sp)
   4b3e4:	df000515 	stw	fp,20(sp)
   4b3e8:	df000504 	addi	fp,sp,20
   4b3ec:	e13fff15 	stw	r4,-4(fp)
   4b3f0:	e0bfff17 	ldw	r2,-4(fp)
   4b3f4:	e0bffb15 	stw	r2,-20(fp)
   4b3f8:	e0bffb17 	ldw	r2,-20(fp)
   4b3fc:	10800017 	ldw	r2,0(r2)
   4b400:	10800104 	addi	r2,r2,4
   4b404:	10800037 	ldwio	r2,0(r2)
   4b408:	e0bffc15 	stw	r2,-16(fp)
   4b40c:	e0bffc17 	ldw	r2,-16(fp)
   4b410:	1081000c 	andi	r2,r2,1024
   4b414:	10000b26 	beq	r2,zero,4b444 <altera_avalon_jtag_uart_timeout+0x68>
   4b418:	e0bffb17 	ldw	r2,-20(fp)
   4b41c:	10800017 	ldw	r2,0(r2)
   4b420:	10800104 	addi	r2,r2,4
   4b424:	1007883a 	mov	r3,r2
   4b428:	e0bffb17 	ldw	r2,-20(fp)
   4b42c:	10800817 	ldw	r2,32(r2)
   4b430:	10810014 	ori	r2,r2,1024
   4b434:	18800035 	stwio	r2,0(r3)
   4b438:	e0bffb17 	ldw	r2,-20(fp)
   4b43c:	10000915 	stw	zero,36(r2)
   4b440:	00002106 	br	4b4c8 <altera_avalon_jtag_uart_timeout+0xec>
   4b444:	e0bffb17 	ldw	r2,-20(fp)
   4b448:	10c00917 	ldw	r3,36(r2)
   4b44c:	00a00034 	movhi	r2,32768
   4b450:	10bfff04 	addi	r2,r2,-4
   4b454:	10c01c36 	bltu	r2,r3,4b4c8 <altera_avalon_jtag_uart_timeout+0xec>
   4b458:	e0bffb17 	ldw	r2,-20(fp)
   4b45c:	10800917 	ldw	r2,36(r2)
   4b460:	10c00044 	addi	r3,r2,1
   4b464:	e0bffb17 	ldw	r2,-20(fp)
   4b468:	10c00915 	stw	r3,36(r2)
   4b46c:	e0bffb17 	ldw	r2,-20(fp)
   4b470:	10c00917 	ldw	r3,36(r2)
   4b474:	e0bffb17 	ldw	r2,-20(fp)
   4b478:	10800117 	ldw	r2,4(r2)
   4b47c:	18801236 	bltu	r3,r2,4b4c8 <altera_avalon_jtag_uart_timeout+0xec>
   4b480:	e0bffb17 	ldw	r2,-20(fp)
   4b484:	10800c17 	ldw	r2,48(r2)
   4b488:	e0bffd15 	stw	r2,-12(fp)
   4b48c:	00800104 	movi	r2,4
   4b490:	e0bffe0d 	sth	r2,-8(fp)
   4b494:	00800044 	movi	r2,1
   4b498:	e0bffe85 	stb	r2,-6(fp)
   4b49c:	d0a6fa43 	ldbu	r2,-25623(gp)
   4b4a0:	10803fcc 	andi	r2,r2,255
   4b4a4:	10000826 	beq	r2,zero,4b4c8 <altera_avalon_jtag_uart_timeout+0xec>
   4b4a8:	e0bffe0b 	ldhu	r2,-8(fp)
   4b4ac:	e0fffe83 	ldbu	r3,-6(fp)
   4b4b0:	e13ffec4 	addi	r4,fp,-5
   4b4b4:	200f883a 	mov	r7,r4
   4b4b8:	180d883a 	mov	r6,r3
   4b4bc:	100b883a 	mov	r5,r2
   4b4c0:	e13ffd17 	ldw	r4,-12(fp)
   4b4c4:	004664c0 	call	4664c <OSFlagPost>
   4b4c8:	d0a70f17 	ldw	r2,-25540(gp)
   4b4cc:	e037883a 	mov	sp,fp
   4b4d0:	dfc00117 	ldw	ra,4(sp)
   4b4d4:	df000017 	ldw	fp,0(sp)
   4b4d8:	dec00204 	addi	sp,sp,8
   4b4dc:	f800283a 	ret

0004b4e0 <altera_avalon_jtag_uart_close>:
   4b4e0:	defffd04 	addi	sp,sp,-12
   4b4e4:	df000215 	stw	fp,8(sp)
   4b4e8:	df000204 	addi	fp,sp,8
   4b4ec:	e13ffe15 	stw	r4,-8(fp)
   4b4f0:	e17fff15 	stw	r5,-4(fp)
   4b4f4:	00000506 	br	4b50c <altera_avalon_jtag_uart_close+0x2c>
   4b4f8:	e0bfff17 	ldw	r2,-4(fp)
   4b4fc:	1090000c 	andi	r2,r2,16384
   4b500:	10000226 	beq	r2,zero,4b50c <altera_avalon_jtag_uart_close+0x2c>
   4b504:	00bffd44 	movi	r2,-11
   4b508:	00000b06 	br	4b538 <altera_avalon_jtag_uart_close+0x58>
   4b50c:	e0bffe17 	ldw	r2,-8(fp)
   4b510:	10c01017 	ldw	r3,64(r2)
   4b514:	e0bffe17 	ldw	r2,-8(fp)
   4b518:	10800f17 	ldw	r2,60(r2)
   4b51c:	18800526 	beq	r3,r2,4b534 <altera_avalon_jtag_uart_close+0x54>
   4b520:	e0bffe17 	ldw	r2,-8(fp)
   4b524:	10c00917 	ldw	r3,36(r2)
   4b528:	e0bffe17 	ldw	r2,-8(fp)
   4b52c:	10800117 	ldw	r2,4(r2)
   4b530:	18bff136 	bltu	r3,r2,4b4f8 <__alt_data_end+0xfffe5cf8>
   4b534:	0005883a 	mov	r2,zero
   4b538:	e037883a 	mov	sp,fp
   4b53c:	df000017 	ldw	fp,0(sp)
   4b540:	dec00104 	addi	sp,sp,4
   4b544:	f800283a 	ret

0004b548 <altera_avalon_jtag_uart_ioctl>:
   4b548:	defffa04 	addi	sp,sp,-24
   4b54c:	df000515 	stw	fp,20(sp)
   4b550:	df000504 	addi	fp,sp,20
   4b554:	e13ffd15 	stw	r4,-12(fp)
   4b558:	e17ffe15 	stw	r5,-8(fp)
   4b55c:	e1bfff15 	stw	r6,-4(fp)
   4b560:	00bff9c4 	movi	r2,-25
   4b564:	e0bffb15 	stw	r2,-20(fp)
   4b568:	e0bffe17 	ldw	r2,-8(fp)
   4b56c:	10da8060 	cmpeqi	r3,r2,27137
   4b570:	1800031e 	bne	r3,zero,4b580 <altera_avalon_jtag_uart_ioctl+0x38>
   4b574:	109a80a0 	cmpeqi	r2,r2,27138
   4b578:	1000181e 	bne	r2,zero,4b5dc <altera_avalon_jtag_uart_ioctl+0x94>
   4b57c:	00002906 	br	4b624 <altera_avalon_jtag_uart_ioctl+0xdc>
   4b580:	e0bffd17 	ldw	r2,-12(fp)
   4b584:	10c00117 	ldw	r3,4(r2)
   4b588:	00a00034 	movhi	r2,32768
   4b58c:	10bfffc4 	addi	r2,r2,-1
   4b590:	18802126 	beq	r3,r2,4b618 <altera_avalon_jtag_uart_ioctl+0xd0>
   4b594:	e0bfff17 	ldw	r2,-4(fp)
   4b598:	10800017 	ldw	r2,0(r2)
   4b59c:	e0bffc15 	stw	r2,-16(fp)
   4b5a0:	e0bffc17 	ldw	r2,-16(fp)
   4b5a4:	10800090 	cmplti	r2,r2,2
   4b5a8:	1000061e 	bne	r2,zero,4b5c4 <altera_avalon_jtag_uart_ioctl+0x7c>
   4b5ac:	e0fffc17 	ldw	r3,-16(fp)
   4b5b0:	00a00034 	movhi	r2,32768
   4b5b4:	10bfffc4 	addi	r2,r2,-1
   4b5b8:	18800226 	beq	r3,r2,4b5c4 <altera_avalon_jtag_uart_ioctl+0x7c>
   4b5bc:	e0bffc17 	ldw	r2,-16(fp)
   4b5c0:	00000206 	br	4b5cc <altera_avalon_jtag_uart_ioctl+0x84>
   4b5c4:	00a00034 	movhi	r2,32768
   4b5c8:	10bfff84 	addi	r2,r2,-2
   4b5cc:	e0fffd17 	ldw	r3,-12(fp)
   4b5d0:	18800115 	stw	r2,4(r3)
   4b5d4:	e03ffb15 	stw	zero,-20(fp)
   4b5d8:	00000f06 	br	4b618 <altera_avalon_jtag_uart_ioctl+0xd0>
   4b5dc:	e0bffd17 	ldw	r2,-12(fp)
   4b5e0:	10c00117 	ldw	r3,4(r2)
   4b5e4:	00a00034 	movhi	r2,32768
   4b5e8:	10bfffc4 	addi	r2,r2,-1
   4b5ec:	18800c26 	beq	r3,r2,4b620 <altera_avalon_jtag_uart_ioctl+0xd8>
   4b5f0:	e0bffd17 	ldw	r2,-12(fp)
   4b5f4:	10c00917 	ldw	r3,36(r2)
   4b5f8:	e0bffd17 	ldw	r2,-12(fp)
   4b5fc:	10800117 	ldw	r2,4(r2)
   4b600:	1885803a 	cmpltu	r2,r3,r2
   4b604:	10c03fcc 	andi	r3,r2,255
   4b608:	e0bfff17 	ldw	r2,-4(fp)
   4b60c:	10c00015 	stw	r3,0(r2)
   4b610:	e03ffb15 	stw	zero,-20(fp)
   4b614:	00000206 	br	4b620 <altera_avalon_jtag_uart_ioctl+0xd8>
   4b618:	0001883a 	nop
   4b61c:	00000106 	br	4b624 <altera_avalon_jtag_uart_ioctl+0xdc>
   4b620:	0001883a 	nop
   4b624:	e0bffb17 	ldw	r2,-20(fp)
   4b628:	e037883a 	mov	sp,fp
   4b62c:	df000017 	ldw	fp,0(sp)
   4b630:	dec00104 	addi	sp,sp,4
   4b634:	f800283a 	ret

0004b638 <altera_avalon_jtag_uart_read>:
   4b638:	deffed04 	addi	sp,sp,-76
   4b63c:	dfc01215 	stw	ra,72(sp)
   4b640:	df001115 	stw	fp,68(sp)
   4b644:	df001104 	addi	fp,sp,68
   4b648:	e13ffc15 	stw	r4,-16(fp)
   4b64c:	e17ffd15 	stw	r5,-12(fp)
   4b650:	e1bffe15 	stw	r6,-8(fp)
   4b654:	e1ffff15 	stw	r7,-4(fp)
   4b658:	e0bffd17 	ldw	r2,-12(fp)
   4b65c:	e0bff015 	stw	r2,-64(fp)
   4b660:	e0bffc17 	ldw	r2,-16(fp)
   4b664:	10800a17 	ldw	r2,40(r2)
   4b668:	e0bff815 	stw	r2,-32(fp)
   4b66c:	e03ff90d 	sth	zero,-28(fp)
   4b670:	e0bff90b 	ldhu	r2,-28(fp)
   4b674:	e0fffb04 	addi	r3,fp,-20
   4b678:	180d883a 	mov	r6,r3
   4b67c:	100b883a 	mov	r5,r2
   4b680:	e13ff817 	ldw	r4,-32(fp)
   4b684:	0048aa80 	call	48aa8 <OSSemPend>
   4b688:	00006106 	br	4b810 <altera_avalon_jtag_uart_read+0x1d8>
   4b68c:	e0bffc17 	ldw	r2,-16(fp)
   4b690:	10800d17 	ldw	r2,52(r2)
   4b694:	e0bff315 	stw	r2,-52(fp)
   4b698:	e0bffc17 	ldw	r2,-16(fp)
   4b69c:	10800e17 	ldw	r2,56(r2)
   4b6a0:	e0bff415 	stw	r2,-48(fp)
   4b6a4:	e0fff317 	ldw	r3,-52(fp)
   4b6a8:	e0bff417 	ldw	r2,-48(fp)
   4b6ac:	18800536 	bltu	r3,r2,4b6c4 <altera_avalon_jtag_uart_read+0x8c>
   4b6b0:	e0fff317 	ldw	r3,-52(fp)
   4b6b4:	e0bff417 	ldw	r2,-48(fp)
   4b6b8:	1885c83a 	sub	r2,r3,r2
   4b6bc:	e0bff115 	stw	r2,-60(fp)
   4b6c0:	00000406 	br	4b6d4 <altera_avalon_jtag_uart_read+0x9c>
   4b6c4:	00c20004 	movi	r3,2048
   4b6c8:	e0bff417 	ldw	r2,-48(fp)
   4b6cc:	1885c83a 	sub	r2,r3,r2
   4b6d0:	e0bff115 	stw	r2,-60(fp)
   4b6d4:	e0bff117 	ldw	r2,-60(fp)
   4b6d8:	10001e26 	beq	r2,zero,4b754 <altera_avalon_jtag_uart_read+0x11c>
   4b6dc:	e0fffe17 	ldw	r3,-8(fp)
   4b6e0:	e0bff117 	ldw	r2,-60(fp)
   4b6e4:	1880022e 	bgeu	r3,r2,4b6f0 <altera_avalon_jtag_uart_read+0xb8>
   4b6e8:	e0bffe17 	ldw	r2,-8(fp)
   4b6ec:	e0bff115 	stw	r2,-60(fp)
   4b6f0:	e0bffc17 	ldw	r2,-16(fp)
   4b6f4:	10c01104 	addi	r3,r2,68
   4b6f8:	e0bff417 	ldw	r2,-48(fp)
   4b6fc:	1885883a 	add	r2,r3,r2
   4b700:	e1bff117 	ldw	r6,-60(fp)
   4b704:	100b883a 	mov	r5,r2
   4b708:	e13ff017 	ldw	r4,-64(fp)
   4b70c:	004ccac0 	call	4ccac <memcpy>
   4b710:	e0fff017 	ldw	r3,-64(fp)
   4b714:	e0bff117 	ldw	r2,-60(fp)
   4b718:	1885883a 	add	r2,r3,r2
   4b71c:	e0bff015 	stw	r2,-64(fp)
   4b720:	e0fffe17 	ldw	r3,-8(fp)
   4b724:	e0bff117 	ldw	r2,-60(fp)
   4b728:	1885c83a 	sub	r2,r3,r2
   4b72c:	e0bffe15 	stw	r2,-8(fp)
   4b730:	e0fff417 	ldw	r3,-48(fp)
   4b734:	e0bff117 	ldw	r2,-60(fp)
   4b738:	1885883a 	add	r2,r3,r2
   4b73c:	10c1ffcc 	andi	r3,r2,2047
   4b740:	e0bffc17 	ldw	r2,-16(fp)
   4b744:	10c00e15 	stw	r3,56(r2)
   4b748:	e0bffe17 	ldw	r2,-8(fp)
   4b74c:	00bfcf16 	blt	zero,r2,4b68c <__alt_data_end+0xfffe5e8c>
   4b750:	00000106 	br	4b758 <altera_avalon_jtag_uart_read+0x120>
   4b754:	0001883a 	nop
   4b758:	e0fff017 	ldw	r3,-64(fp)
   4b75c:	e0bffd17 	ldw	r2,-12(fp)
   4b760:	18802e1e 	bne	r3,r2,4b81c <altera_avalon_jtag_uart_read+0x1e4>
   4b764:	e0bfff17 	ldw	r2,-4(fp)
   4b768:	1090000c 	andi	r2,r2,16384
   4b76c:	10002d1e 	bne	r2,zero,4b824 <altera_avalon_jtag_uart_read+0x1ec>
   4b770:	d0a6fa43 	ldbu	r2,-25623(gp)
   4b774:	10803fcc 	andi	r2,r2,255
   4b778:	10800058 	cmpnei	r2,r2,1
   4b77c:	1000161e 	bne	r2,zero,4b7d8 <altera_avalon_jtag_uart_read+0x1a0>
   4b780:	e0bffc17 	ldw	r2,-16(fp)
   4b784:	10800c17 	ldw	r2,48(r2)
   4b788:	e0bff215 	stw	r2,-56(fp)
   4b78c:	00800144 	movi	r2,5
   4b790:	e0bff98d 	sth	r2,-26(fp)
   4b794:	00bfe0c4 	movi	r2,-125
   4b798:	e0bffa05 	stb	r2,-24(fp)
   4b79c:	e03ffa8d 	sth	zero,-22(fp)
   4b7a0:	d0a6fa43 	ldbu	r2,-25623(gp)
   4b7a4:	10803fcc 	andi	r2,r2,255
   4b7a8:	10001526 	beq	r2,zero,4b800 <altera_avalon_jtag_uart_read+0x1c8>
   4b7ac:	e0fff98b 	ldhu	r3,-26(fp)
   4b7b0:	e13ffa03 	ldbu	r4,-24(fp)
   4b7b4:	e17ffa8b 	ldhu	r5,-22(fp)
   4b7b8:	e0bffb44 	addi	r2,fp,-19
   4b7bc:	d8800015 	stw	r2,0(sp)
   4b7c0:	280f883a 	mov	r7,r5
   4b7c4:	200d883a 	mov	r6,r4
   4b7c8:	180b883a 	mov	r5,r3
   4b7cc:	e13ff217 	ldw	r4,-56(fp)
   4b7d0:	00460340 	call	46034 <OSFlagPend>
   4b7d4:	00000a06 	br	4b800 <altera_avalon_jtag_uart_read+0x1c8>
   4b7d8:	0001883a 	nop
   4b7dc:	e0bffc17 	ldw	r2,-16(fp)
   4b7e0:	10c00d17 	ldw	r3,52(r2)
   4b7e4:	e0bff317 	ldw	r2,-52(fp)
   4b7e8:	1880051e 	bne	r3,r2,4b800 <altera_avalon_jtag_uart_read+0x1c8>
   4b7ec:	e0bffc17 	ldw	r2,-16(fp)
   4b7f0:	10c00917 	ldw	r3,36(r2)
   4b7f4:	e0bffc17 	ldw	r2,-16(fp)
   4b7f8:	10800117 	ldw	r2,4(r2)
   4b7fc:	18bff736 	bltu	r3,r2,4b7dc <__alt_data_end+0xfffe5fdc>
   4b800:	e0bffc17 	ldw	r2,-16(fp)
   4b804:	10c00d17 	ldw	r3,52(r2)
   4b808:	e0bff317 	ldw	r2,-52(fp)
   4b80c:	18800726 	beq	r3,r2,4b82c <altera_avalon_jtag_uart_read+0x1f4>
   4b810:	e0bffe17 	ldw	r2,-8(fp)
   4b814:	00bf9d16 	blt	zero,r2,4b68c <__alt_data_end+0xfffe5e8c>
   4b818:	00000506 	br	4b830 <altera_avalon_jtag_uart_read+0x1f8>
   4b81c:	0001883a 	nop
   4b820:	00000306 	br	4b830 <altera_avalon_jtag_uart_read+0x1f8>
   4b824:	0001883a 	nop
   4b828:	00000106 	br	4b830 <altera_avalon_jtag_uart_read+0x1f8>
   4b82c:	0001883a 	nop
   4b830:	e0bffc17 	ldw	r2,-16(fp)
   4b834:	10800a17 	ldw	r2,40(r2)
   4b838:	1009883a 	mov	r4,r2
   4b83c:	0048e200 	call	48e20 <OSSemPost>
   4b840:	e0fff017 	ldw	r3,-64(fp)
   4b844:	e0bffd17 	ldw	r2,-12(fp)
   4b848:	18801826 	beq	r3,r2,4b8ac <altera_avalon_jtag_uart_read+0x274>
   4b84c:	0005303a 	rdctl	r2,status
   4b850:	e0bff715 	stw	r2,-36(fp)
   4b854:	e0fff717 	ldw	r3,-36(fp)
   4b858:	00bfff84 	movi	r2,-2
   4b85c:	1884703a 	and	r2,r3,r2
   4b860:	1001703a 	wrctl	status,r2
   4b864:	e0bff717 	ldw	r2,-36(fp)
   4b868:	e0bff615 	stw	r2,-40(fp)
   4b86c:	e0bffc17 	ldw	r2,-16(fp)
   4b870:	10800817 	ldw	r2,32(r2)
   4b874:	10c00054 	ori	r3,r2,1
   4b878:	e0bffc17 	ldw	r2,-16(fp)
   4b87c:	10c00815 	stw	r3,32(r2)
   4b880:	e0bffc17 	ldw	r2,-16(fp)
   4b884:	10800017 	ldw	r2,0(r2)
   4b888:	10800104 	addi	r2,r2,4
   4b88c:	1007883a 	mov	r3,r2
   4b890:	e0bffc17 	ldw	r2,-16(fp)
   4b894:	10800817 	ldw	r2,32(r2)
   4b898:	18800035 	stwio	r2,0(r3)
   4b89c:	e0bff617 	ldw	r2,-40(fp)
   4b8a0:	e0bff515 	stw	r2,-44(fp)
   4b8a4:	e0bff517 	ldw	r2,-44(fp)
   4b8a8:	1001703a 	wrctl	status,r2
   4b8ac:	e0fff017 	ldw	r3,-64(fp)
   4b8b0:	e0bffd17 	ldw	r2,-12(fp)
   4b8b4:	18800426 	beq	r3,r2,4b8c8 <altera_avalon_jtag_uart_read+0x290>
   4b8b8:	e0fff017 	ldw	r3,-64(fp)
   4b8bc:	e0bffd17 	ldw	r2,-12(fp)
   4b8c0:	1885c83a 	sub	r2,r3,r2
   4b8c4:	00000606 	br	4b8e0 <altera_avalon_jtag_uart_read+0x2a8>
   4b8c8:	e0bfff17 	ldw	r2,-4(fp)
   4b8cc:	1090000c 	andi	r2,r2,16384
   4b8d0:	10000226 	beq	r2,zero,4b8dc <altera_avalon_jtag_uart_read+0x2a4>
   4b8d4:	00bffd44 	movi	r2,-11
   4b8d8:	00000106 	br	4b8e0 <altera_avalon_jtag_uart_read+0x2a8>
   4b8dc:	00bffec4 	movi	r2,-5
   4b8e0:	e037883a 	mov	sp,fp
   4b8e4:	dfc00117 	ldw	ra,4(sp)
   4b8e8:	df000017 	ldw	fp,0(sp)
   4b8ec:	dec00204 	addi	sp,sp,8
   4b8f0:	f800283a 	ret

0004b8f4 <altera_avalon_jtag_uart_write>:
   4b8f4:	deffed04 	addi	sp,sp,-76
   4b8f8:	dfc01215 	stw	ra,72(sp)
   4b8fc:	df001115 	stw	fp,68(sp)
   4b900:	df001104 	addi	fp,sp,68
   4b904:	e13ffc15 	stw	r4,-16(fp)
   4b908:	e17ffd15 	stw	r5,-12(fp)
   4b90c:	e1bffe15 	stw	r6,-8(fp)
   4b910:	e1ffff15 	stw	r7,-4(fp)
   4b914:	e03ff015 	stw	zero,-64(fp)
   4b918:	e0bffd17 	ldw	r2,-12(fp)
   4b91c:	e0bff215 	stw	r2,-56(fp)
   4b920:	e0bffc17 	ldw	r2,-16(fp)
   4b924:	10800b17 	ldw	r2,44(r2)
   4b928:	e0bff815 	stw	r2,-32(fp)
   4b92c:	e03ff90d 	sth	zero,-28(fp)
   4b930:	e0bff90b 	ldhu	r2,-28(fp)
   4b934:	e0fffb44 	addi	r3,fp,-19
   4b938:	180d883a 	mov	r6,r3
   4b93c:	100b883a 	mov	r5,r2
   4b940:	e13ff817 	ldw	r4,-32(fp)
   4b944:	0048aa80 	call	48aa8 <OSSemPend>
   4b948:	00003706 	br	4ba28 <altera_avalon_jtag_uart_write+0x134>
   4b94c:	e0bffc17 	ldw	r2,-16(fp)
   4b950:	10800f17 	ldw	r2,60(r2)
   4b954:	e0bff415 	stw	r2,-48(fp)
   4b958:	e0bffc17 	ldw	r2,-16(fp)
   4b95c:	10801017 	ldw	r2,64(r2)
   4b960:	e0bff015 	stw	r2,-64(fp)
   4b964:	e0fff417 	ldw	r3,-48(fp)
   4b968:	e0bff017 	ldw	r2,-64(fp)
   4b96c:	1880062e 	bgeu	r3,r2,4b988 <altera_avalon_jtag_uart_write+0x94>
   4b970:	e0fff017 	ldw	r3,-64(fp)
   4b974:	e0bff417 	ldw	r2,-48(fp)
   4b978:	1885c83a 	sub	r2,r3,r2
   4b97c:	10bfffc4 	addi	r2,r2,-1
   4b980:	e0bff115 	stw	r2,-60(fp)
   4b984:	00000b06 	br	4b9b4 <altera_avalon_jtag_uart_write+0xc0>
   4b988:	e0bff017 	ldw	r2,-64(fp)
   4b98c:	10000526 	beq	r2,zero,4b9a4 <altera_avalon_jtag_uart_write+0xb0>
   4b990:	00c20004 	movi	r3,2048
   4b994:	e0bff417 	ldw	r2,-48(fp)
   4b998:	1885c83a 	sub	r2,r3,r2
   4b99c:	e0bff115 	stw	r2,-60(fp)
   4b9a0:	00000406 	br	4b9b4 <altera_avalon_jtag_uart_write+0xc0>
   4b9a4:	00c1ffc4 	movi	r3,2047
   4b9a8:	e0bff417 	ldw	r2,-48(fp)
   4b9ac:	1885c83a 	sub	r2,r3,r2
   4b9b0:	e0bff115 	stw	r2,-60(fp)
   4b9b4:	e0bff117 	ldw	r2,-60(fp)
   4b9b8:	10001e26 	beq	r2,zero,4ba34 <altera_avalon_jtag_uart_write+0x140>
   4b9bc:	e0fffe17 	ldw	r3,-8(fp)
   4b9c0:	e0bff117 	ldw	r2,-60(fp)
   4b9c4:	1880022e 	bgeu	r3,r2,4b9d0 <altera_avalon_jtag_uart_write+0xdc>
   4b9c8:	e0bffe17 	ldw	r2,-8(fp)
   4b9cc:	e0bff115 	stw	r2,-60(fp)
   4b9d0:	e0bffc17 	ldw	r2,-16(fp)
   4b9d4:	10c21104 	addi	r3,r2,2116
   4b9d8:	e0bff417 	ldw	r2,-48(fp)
   4b9dc:	1885883a 	add	r2,r3,r2
   4b9e0:	e1bff117 	ldw	r6,-60(fp)
   4b9e4:	e17ffd17 	ldw	r5,-12(fp)
   4b9e8:	1009883a 	mov	r4,r2
   4b9ec:	004ccac0 	call	4ccac <memcpy>
   4b9f0:	e0fffd17 	ldw	r3,-12(fp)
   4b9f4:	e0bff117 	ldw	r2,-60(fp)
   4b9f8:	1885883a 	add	r2,r3,r2
   4b9fc:	e0bffd15 	stw	r2,-12(fp)
   4ba00:	e0fffe17 	ldw	r3,-8(fp)
   4ba04:	e0bff117 	ldw	r2,-60(fp)
   4ba08:	1885c83a 	sub	r2,r3,r2
   4ba0c:	e0bffe15 	stw	r2,-8(fp)
   4ba10:	e0fff417 	ldw	r3,-48(fp)
   4ba14:	e0bff117 	ldw	r2,-60(fp)
   4ba18:	1885883a 	add	r2,r3,r2
   4ba1c:	10c1ffcc 	andi	r3,r2,2047
   4ba20:	e0bffc17 	ldw	r2,-16(fp)
   4ba24:	10c00f15 	stw	r3,60(r2)
   4ba28:	e0bffe17 	ldw	r2,-8(fp)
   4ba2c:	00bfc716 	blt	zero,r2,4b94c <__alt_data_end+0xfffe614c>
   4ba30:	00000106 	br	4ba38 <altera_avalon_jtag_uart_write+0x144>
   4ba34:	0001883a 	nop
   4ba38:	0005303a 	rdctl	r2,status
   4ba3c:	e0bff715 	stw	r2,-36(fp)
   4ba40:	e0fff717 	ldw	r3,-36(fp)
   4ba44:	00bfff84 	movi	r2,-2
   4ba48:	1884703a 	and	r2,r3,r2
   4ba4c:	1001703a 	wrctl	status,r2
   4ba50:	e0bff717 	ldw	r2,-36(fp)
   4ba54:	e0bff615 	stw	r2,-40(fp)
   4ba58:	e0bffc17 	ldw	r2,-16(fp)
   4ba5c:	10800817 	ldw	r2,32(r2)
   4ba60:	10c00094 	ori	r3,r2,2
   4ba64:	e0bffc17 	ldw	r2,-16(fp)
   4ba68:	10c00815 	stw	r3,32(r2)
   4ba6c:	e0bffc17 	ldw	r2,-16(fp)
   4ba70:	10800017 	ldw	r2,0(r2)
   4ba74:	10800104 	addi	r2,r2,4
   4ba78:	1007883a 	mov	r3,r2
   4ba7c:	e0bffc17 	ldw	r2,-16(fp)
   4ba80:	10800817 	ldw	r2,32(r2)
   4ba84:	18800035 	stwio	r2,0(r3)
   4ba88:	e0bff617 	ldw	r2,-40(fp)
   4ba8c:	e0bff315 	stw	r2,-52(fp)
   4ba90:	e0bff317 	ldw	r2,-52(fp)
   4ba94:	1001703a 	wrctl	status,r2
   4ba98:	e0bffe17 	ldw	r2,-8(fp)
   4ba9c:	00802a0e 	bge	zero,r2,4bb48 <altera_avalon_jtag_uart_write+0x254>
   4baa0:	e0bfff17 	ldw	r2,-4(fp)
   4baa4:	1090000c 	andi	r2,r2,16384
   4baa8:	10002a1e 	bne	r2,zero,4bb54 <altera_avalon_jtag_uart_write+0x260>
   4baac:	d0a6fa43 	ldbu	r2,-25623(gp)
   4bab0:	10803fcc 	andi	r2,r2,255
   4bab4:	10800058 	cmpnei	r2,r2,1
   4bab8:	1000161e 	bne	r2,zero,4bb14 <altera_avalon_jtag_uart_write+0x220>
   4babc:	e0bffc17 	ldw	r2,-16(fp)
   4bac0:	10800c17 	ldw	r2,48(r2)
   4bac4:	e0bff515 	stw	r2,-44(fp)
   4bac8:	00800184 	movi	r2,6
   4bacc:	e0bff98d 	sth	r2,-26(fp)
   4bad0:	00bfe0c4 	movi	r2,-125
   4bad4:	e0bffa05 	stb	r2,-24(fp)
   4bad8:	e03ffa8d 	sth	zero,-22(fp)
   4badc:	d0a6fa43 	ldbu	r2,-25623(gp)
   4bae0:	10803fcc 	andi	r2,r2,255
   4bae4:	10001526 	beq	r2,zero,4bb3c <altera_avalon_jtag_uart_write+0x248>
   4bae8:	e0fff98b 	ldhu	r3,-26(fp)
   4baec:	e13ffa03 	ldbu	r4,-24(fp)
   4baf0:	e17ffa8b 	ldhu	r5,-22(fp)
   4baf4:	e0bffb04 	addi	r2,fp,-20
   4baf8:	d8800015 	stw	r2,0(sp)
   4bafc:	280f883a 	mov	r7,r5
   4bb00:	200d883a 	mov	r6,r4
   4bb04:	180b883a 	mov	r5,r3
   4bb08:	e13ff517 	ldw	r4,-44(fp)
   4bb0c:	00460340 	call	46034 <OSFlagPend>
   4bb10:	00000a06 	br	4bb3c <altera_avalon_jtag_uart_write+0x248>
   4bb14:	0001883a 	nop
   4bb18:	e0bffc17 	ldw	r2,-16(fp)
   4bb1c:	10c01017 	ldw	r3,64(r2)
   4bb20:	e0bff017 	ldw	r2,-64(fp)
   4bb24:	1880051e 	bne	r3,r2,4bb3c <altera_avalon_jtag_uart_write+0x248>
   4bb28:	e0bffc17 	ldw	r2,-16(fp)
   4bb2c:	10c00917 	ldw	r3,36(r2)
   4bb30:	e0bffc17 	ldw	r2,-16(fp)
   4bb34:	10800117 	ldw	r2,4(r2)
   4bb38:	18bff736 	bltu	r3,r2,4bb18 <__alt_data_end+0xfffe6318>
   4bb3c:	e0bffc17 	ldw	r2,-16(fp)
   4bb40:	10800917 	ldw	r2,36(r2)
   4bb44:	1000051e 	bne	r2,zero,4bb5c <altera_avalon_jtag_uart_write+0x268>
   4bb48:	e0bffe17 	ldw	r2,-8(fp)
   4bb4c:	00bfb616 	blt	zero,r2,4ba28 <__alt_data_end+0xfffe6228>
   4bb50:	00000306 	br	4bb60 <altera_avalon_jtag_uart_write+0x26c>
   4bb54:	0001883a 	nop
   4bb58:	00000106 	br	4bb60 <altera_avalon_jtag_uart_write+0x26c>
   4bb5c:	0001883a 	nop
   4bb60:	e0bffc17 	ldw	r2,-16(fp)
   4bb64:	10800b17 	ldw	r2,44(r2)
   4bb68:	1009883a 	mov	r4,r2
   4bb6c:	0048e200 	call	48e20 <OSSemPost>
   4bb70:	e0fffd17 	ldw	r3,-12(fp)
   4bb74:	e0bff217 	ldw	r2,-56(fp)
   4bb78:	18800426 	beq	r3,r2,4bb8c <altera_avalon_jtag_uart_write+0x298>
   4bb7c:	e0fffd17 	ldw	r3,-12(fp)
   4bb80:	e0bff217 	ldw	r2,-56(fp)
   4bb84:	1885c83a 	sub	r2,r3,r2
   4bb88:	00000606 	br	4bba4 <altera_avalon_jtag_uart_write+0x2b0>
   4bb8c:	e0bfff17 	ldw	r2,-4(fp)
   4bb90:	1090000c 	andi	r2,r2,16384
   4bb94:	10000226 	beq	r2,zero,4bba0 <altera_avalon_jtag_uart_write+0x2ac>
   4bb98:	00bffd44 	movi	r2,-11
   4bb9c:	00000106 	br	4bba4 <altera_avalon_jtag_uart_write+0x2b0>
   4bba0:	00bffec4 	movi	r2,-5
   4bba4:	e037883a 	mov	sp,fp
   4bba8:	dfc00117 	ldw	ra,4(sp)
   4bbac:	df000017 	ldw	fp,0(sp)
   4bbb0:	dec00204 	addi	sp,sp,8
   4bbb4:	f800283a 	ret

0004bbb8 <alt_avalon_timer_sc_irq>:
   4bbb8:	defffa04 	addi	sp,sp,-24
   4bbbc:	dfc00515 	stw	ra,20(sp)
   4bbc0:	df000415 	stw	fp,16(sp)
   4bbc4:	df000404 	addi	fp,sp,16
   4bbc8:	e13fff15 	stw	r4,-4(fp)
   4bbcc:	0007883a 	mov	r3,zero
   4bbd0:	e0bfff17 	ldw	r2,-4(fp)
   4bbd4:	10c00035 	stwio	r3,0(r2)
   4bbd8:	e0bfff17 	ldw	r2,-4(fp)
   4bbdc:	10800104 	addi	r2,r2,4
   4bbe0:	10800037 	ldwio	r2,0(r2)
   4bbe4:	0005303a 	rdctl	r2,status
   4bbe8:	e0bffd15 	stw	r2,-12(fp)
   4bbec:	e0fffd17 	ldw	r3,-12(fp)
   4bbf0:	00bfff84 	movi	r2,-2
   4bbf4:	1884703a 	and	r2,r3,r2
   4bbf8:	1001703a 	wrctl	status,r2
   4bbfc:	e0bffd17 	ldw	r2,-12(fp)
   4bc00:	e0bffc15 	stw	r2,-16(fp)
   4bc04:	004c4d40 	call	4c4d4 <alt_tick>
   4bc08:	e0bffc17 	ldw	r2,-16(fp)
   4bc0c:	e0bffe15 	stw	r2,-8(fp)
   4bc10:	e0bffe17 	ldw	r2,-8(fp)
   4bc14:	1001703a 	wrctl	status,r2
   4bc18:	0001883a 	nop
   4bc1c:	e037883a 	mov	sp,fp
   4bc20:	dfc00117 	ldw	ra,4(sp)
   4bc24:	df000017 	ldw	fp,0(sp)
   4bc28:	dec00204 	addi	sp,sp,8
   4bc2c:	f800283a 	ret

0004bc30 <alt_avalon_timer_sc_init>:
   4bc30:	defff804 	addi	sp,sp,-32
   4bc34:	dfc00715 	stw	ra,28(sp)
   4bc38:	df000615 	stw	fp,24(sp)
   4bc3c:	df000604 	addi	fp,sp,24
   4bc40:	e13ffc15 	stw	r4,-16(fp)
   4bc44:	e17ffd15 	stw	r5,-12(fp)
   4bc48:	e1bffe15 	stw	r6,-8(fp)
   4bc4c:	e1ffff15 	stw	r7,-4(fp)
   4bc50:	e0bfff17 	ldw	r2,-4(fp)
   4bc54:	e0bffb15 	stw	r2,-20(fp)
   4bc58:	d0a70f17 	ldw	r2,-25540(gp)
   4bc5c:	1000021e 	bne	r2,zero,4bc68 <alt_avalon_timer_sc_init+0x38>
   4bc60:	e0bffb17 	ldw	r2,-20(fp)
   4bc64:	d0a70f15 	stw	r2,-25540(gp)
   4bc68:	e0bffc17 	ldw	r2,-16(fp)
   4bc6c:	10800104 	addi	r2,r2,4
   4bc70:	00c001c4 	movi	r3,7
   4bc74:	10c00035 	stwio	r3,0(r2)
   4bc78:	d8000015 	stw	zero,0(sp)
   4bc7c:	e1fffc17 	ldw	r7,-16(fp)
   4bc80:	01800174 	movhi	r6,5
   4bc84:	31aeee04 	addi	r6,r6,-17480
   4bc88:	e17ffe17 	ldw	r5,-8(fp)
   4bc8c:	e13ffd17 	ldw	r4,-12(fp)
   4bc90:	00428bc0 	call	428bc <alt_ic_isr_register>
   4bc94:	0001883a 	nop
   4bc98:	e037883a 	mov	sp,fp
   4bc9c:	dfc00117 	ldw	ra,4(sp)
   4bca0:	df000017 	ldw	fp,0(sp)
   4bca4:	dec00204 	addi	sp,sp,8
   4bca8:	f800283a 	ret

0004bcac <alt_alarm_start>:
   4bcac:	defff504 	addi	sp,sp,-44
   4bcb0:	df000a15 	stw	fp,40(sp)
   4bcb4:	df000a04 	addi	fp,sp,40
   4bcb8:	e13ffc15 	stw	r4,-16(fp)
   4bcbc:	e17ffd15 	stw	r5,-12(fp)
   4bcc0:	e1bffe15 	stw	r6,-8(fp)
   4bcc4:	e1ffff15 	stw	r7,-4(fp)
   4bcc8:	e03ff615 	stw	zero,-40(fp)
   4bccc:	d0a70f17 	ldw	r2,-25540(gp)
   4bcd0:	10003c26 	beq	r2,zero,4bdc4 <alt_alarm_start+0x118>
   4bcd4:	e0bffc17 	ldw	r2,-16(fp)
   4bcd8:	10003826 	beq	r2,zero,4bdbc <alt_alarm_start+0x110>
   4bcdc:	e0bffc17 	ldw	r2,-16(fp)
   4bce0:	e0fffe17 	ldw	r3,-8(fp)
   4bce4:	10c00315 	stw	r3,12(r2)
   4bce8:	e0bffc17 	ldw	r2,-16(fp)
   4bcec:	e0ffff17 	ldw	r3,-4(fp)
   4bcf0:	10c00515 	stw	r3,20(r2)
   4bcf4:	0005303a 	rdctl	r2,status
   4bcf8:	e0bff915 	stw	r2,-28(fp)
   4bcfc:	e0fff917 	ldw	r3,-28(fp)
   4bd00:	00bfff84 	movi	r2,-2
   4bd04:	1884703a 	and	r2,r3,r2
   4bd08:	1001703a 	wrctl	status,r2
   4bd0c:	e0bff917 	ldw	r2,-28(fp)
   4bd10:	e0bff815 	stw	r2,-32(fp)
   4bd14:	d0a71017 	ldw	r2,-25536(gp)
   4bd18:	e0bff615 	stw	r2,-40(fp)
   4bd1c:	e0fffd17 	ldw	r3,-12(fp)
   4bd20:	e0bff617 	ldw	r2,-40(fp)
   4bd24:	1885883a 	add	r2,r3,r2
   4bd28:	10c00044 	addi	r3,r2,1
   4bd2c:	e0bffc17 	ldw	r2,-16(fp)
   4bd30:	10c00215 	stw	r3,8(r2)
   4bd34:	e0bffc17 	ldw	r2,-16(fp)
   4bd38:	10c00217 	ldw	r3,8(r2)
   4bd3c:	e0bff617 	ldw	r2,-40(fp)
   4bd40:	1880042e 	bgeu	r3,r2,4bd54 <alt_alarm_start+0xa8>
   4bd44:	e0bffc17 	ldw	r2,-16(fp)
   4bd48:	00c00044 	movi	r3,1
   4bd4c:	10c00405 	stb	r3,16(r2)
   4bd50:	00000206 	br	4bd5c <alt_alarm_start+0xb0>
   4bd54:	e0bffc17 	ldw	r2,-16(fp)
   4bd58:	10000405 	stb	zero,16(r2)
   4bd5c:	e0bffc17 	ldw	r2,-16(fp)
   4bd60:	d0e02b04 	addi	r3,gp,-32596
   4bd64:	e0fffa15 	stw	r3,-24(fp)
   4bd68:	e0bffb15 	stw	r2,-20(fp)
   4bd6c:	e0bffb17 	ldw	r2,-20(fp)
   4bd70:	e0fffa17 	ldw	r3,-24(fp)
   4bd74:	10c00115 	stw	r3,4(r2)
   4bd78:	e0bffa17 	ldw	r2,-24(fp)
   4bd7c:	10c00017 	ldw	r3,0(r2)
   4bd80:	e0bffb17 	ldw	r2,-20(fp)
   4bd84:	10c00015 	stw	r3,0(r2)
   4bd88:	e0bffa17 	ldw	r2,-24(fp)
   4bd8c:	10800017 	ldw	r2,0(r2)
   4bd90:	e0fffb17 	ldw	r3,-20(fp)
   4bd94:	10c00115 	stw	r3,4(r2)
   4bd98:	e0bffa17 	ldw	r2,-24(fp)
   4bd9c:	e0fffb17 	ldw	r3,-20(fp)
   4bda0:	10c00015 	stw	r3,0(r2)
   4bda4:	e0bff817 	ldw	r2,-32(fp)
   4bda8:	e0bff715 	stw	r2,-36(fp)
   4bdac:	e0bff717 	ldw	r2,-36(fp)
   4bdb0:	1001703a 	wrctl	status,r2
   4bdb4:	0005883a 	mov	r2,zero
   4bdb8:	00000306 	br	4bdc8 <alt_alarm_start+0x11c>
   4bdbc:	00bffa84 	movi	r2,-22
   4bdc0:	00000106 	br	4bdc8 <alt_alarm_start+0x11c>
   4bdc4:	00bfde84 	movi	r2,-134
   4bdc8:	e037883a 	mov	sp,fp
   4bdcc:	df000017 	ldw	fp,0(sp)
   4bdd0:	dec00104 	addi	sp,sp,4
   4bdd4:	f800283a 	ret

0004bdd8 <alt_dcache_flush_all>:
   4bdd8:	deffff04 	addi	sp,sp,-4
   4bddc:	df000015 	stw	fp,0(sp)
   4bde0:	d839883a 	mov	fp,sp
   4bde4:	0001883a 	nop
   4bde8:	e037883a 	mov	sp,fp
   4bdec:	df000017 	ldw	fp,0(sp)
   4bdf0:	dec00104 	addi	sp,sp,4
   4bdf4:	f800283a 	ret

0004bdf8 <alt_get_errno>:
   4bdf8:	defffe04 	addi	sp,sp,-8
   4bdfc:	dfc00115 	stw	ra,4(sp)
   4be00:	df000015 	stw	fp,0(sp)
   4be04:	d839883a 	mov	fp,sp
   4be08:	d0a00917 	ldw	r2,-32732(gp)
   4be0c:	10000326 	beq	r2,zero,4be1c <alt_get_errno+0x24>
   4be10:	d0a00917 	ldw	r2,-32732(gp)
   4be14:	103ee83a 	callr	r2
   4be18:	00000106 	br	4be20 <alt_get_errno+0x28>
   4be1c:	d0a6f004 	addi	r2,gp,-25664
   4be20:	e037883a 	mov	sp,fp
   4be24:	dfc00117 	ldw	ra,4(sp)
   4be28:	df000017 	ldw	fp,0(sp)
   4be2c:	dec00204 	addi	sp,sp,8
   4be30:	f800283a 	ret

0004be34 <alt_dev_llist_insert>:
   4be34:	defffa04 	addi	sp,sp,-24
   4be38:	dfc00515 	stw	ra,20(sp)
   4be3c:	df000415 	stw	fp,16(sp)
   4be40:	df000404 	addi	fp,sp,16
   4be44:	e13ffe15 	stw	r4,-8(fp)
   4be48:	e17fff15 	stw	r5,-4(fp)
   4be4c:	e0bffe17 	ldw	r2,-8(fp)
   4be50:	10000326 	beq	r2,zero,4be60 <alt_dev_llist_insert+0x2c>
   4be54:	e0bffe17 	ldw	r2,-8(fp)
   4be58:	10800217 	ldw	r2,8(r2)
   4be5c:	1000061e 	bne	r2,zero,4be78 <alt_dev_llist_insert+0x44>
   4be60:	004bdf80 	call	4bdf8 <alt_get_errno>
   4be64:	1007883a 	mov	r3,r2
   4be68:	00800584 	movi	r2,22
   4be6c:	18800015 	stw	r2,0(r3)
   4be70:	00bffa84 	movi	r2,-22
   4be74:	00001306 	br	4bec4 <alt_dev_llist_insert+0x90>
   4be78:	e0bffe17 	ldw	r2,-8(fp)
   4be7c:	e0ffff17 	ldw	r3,-4(fp)
   4be80:	e0fffc15 	stw	r3,-16(fp)
   4be84:	e0bffd15 	stw	r2,-12(fp)
   4be88:	e0bffd17 	ldw	r2,-12(fp)
   4be8c:	e0fffc17 	ldw	r3,-16(fp)
   4be90:	10c00115 	stw	r3,4(r2)
   4be94:	e0bffc17 	ldw	r2,-16(fp)
   4be98:	10c00017 	ldw	r3,0(r2)
   4be9c:	e0bffd17 	ldw	r2,-12(fp)
   4bea0:	10c00015 	stw	r3,0(r2)
   4bea4:	e0bffc17 	ldw	r2,-16(fp)
   4bea8:	10800017 	ldw	r2,0(r2)
   4beac:	e0fffd17 	ldw	r3,-12(fp)
   4beb0:	10c00115 	stw	r3,4(r2)
   4beb4:	e0bffc17 	ldw	r2,-16(fp)
   4beb8:	e0fffd17 	ldw	r3,-12(fp)
   4bebc:	10c00015 	stw	r3,0(r2)
   4bec0:	0005883a 	mov	r2,zero
   4bec4:	e037883a 	mov	sp,fp
   4bec8:	dfc00117 	ldw	ra,4(sp)
   4becc:	df000017 	ldw	fp,0(sp)
   4bed0:	dec00204 	addi	sp,sp,8
   4bed4:	f800283a 	ret

0004bed8 <_do_ctors>:
   4bed8:	defffd04 	addi	sp,sp,-12
   4bedc:	dfc00215 	stw	ra,8(sp)
   4bee0:	df000115 	stw	fp,4(sp)
   4bee4:	df000104 	addi	fp,sp,4
   4bee8:	00800174 	movhi	r2,5
   4beec:	10b49c04 	addi	r2,r2,-11664
   4bef0:	e0bfff15 	stw	r2,-4(fp)
   4bef4:	00000606 	br	4bf10 <_do_ctors+0x38>
   4bef8:	e0bfff17 	ldw	r2,-4(fp)
   4befc:	10800017 	ldw	r2,0(r2)
   4bf00:	103ee83a 	callr	r2
   4bf04:	e0bfff17 	ldw	r2,-4(fp)
   4bf08:	10bfff04 	addi	r2,r2,-4
   4bf0c:	e0bfff15 	stw	r2,-4(fp)
   4bf10:	e0ffff17 	ldw	r3,-4(fp)
   4bf14:	00800174 	movhi	r2,5
   4bf18:	10b49d04 	addi	r2,r2,-11660
   4bf1c:	18bff62e 	bgeu	r3,r2,4bef8 <__alt_data_end+0xfffe66f8>
   4bf20:	0001883a 	nop
   4bf24:	e037883a 	mov	sp,fp
   4bf28:	dfc00117 	ldw	ra,4(sp)
   4bf2c:	df000017 	ldw	fp,0(sp)
   4bf30:	dec00204 	addi	sp,sp,8
   4bf34:	f800283a 	ret

0004bf38 <_do_dtors>:
   4bf38:	defffd04 	addi	sp,sp,-12
   4bf3c:	dfc00215 	stw	ra,8(sp)
   4bf40:	df000115 	stw	fp,4(sp)
   4bf44:	df000104 	addi	fp,sp,4
   4bf48:	00800174 	movhi	r2,5
   4bf4c:	10b49c04 	addi	r2,r2,-11664
   4bf50:	e0bfff15 	stw	r2,-4(fp)
   4bf54:	00000606 	br	4bf70 <_do_dtors+0x38>
   4bf58:	e0bfff17 	ldw	r2,-4(fp)
   4bf5c:	10800017 	ldw	r2,0(r2)
   4bf60:	103ee83a 	callr	r2
   4bf64:	e0bfff17 	ldw	r2,-4(fp)
   4bf68:	10bfff04 	addi	r2,r2,-4
   4bf6c:	e0bfff15 	stw	r2,-4(fp)
   4bf70:	e0ffff17 	ldw	r3,-4(fp)
   4bf74:	00800174 	movhi	r2,5
   4bf78:	10b49d04 	addi	r2,r2,-11660
   4bf7c:	18bff62e 	bgeu	r3,r2,4bf58 <__alt_data_end+0xfffe6758>
   4bf80:	0001883a 	nop
   4bf84:	e037883a 	mov	sp,fp
   4bf88:	dfc00117 	ldw	ra,4(sp)
   4bf8c:	df000017 	ldw	fp,0(sp)
   4bf90:	dec00204 	addi	sp,sp,8
   4bf94:	f800283a 	ret

0004bf98 <alt_icache_flush_all>:
   4bf98:	deffff04 	addi	sp,sp,-4
   4bf9c:	df000015 	stw	fp,0(sp)
   4bfa0:	d839883a 	mov	fp,sp
   4bfa4:	0001883a 	nop
   4bfa8:	e037883a 	mov	sp,fp
   4bfac:	df000017 	ldw	fp,0(sp)
   4bfb0:	dec00104 	addi	sp,sp,4
   4bfb4:	f800283a 	ret

0004bfb8 <alt_exception_cause_generated_bad_addr>:
   4bfb8:	defffe04 	addi	sp,sp,-8
   4bfbc:	df000115 	stw	fp,4(sp)
   4bfc0:	df000104 	addi	fp,sp,4
   4bfc4:	e13fff15 	stw	r4,-4(fp)
   4bfc8:	e0bfff17 	ldw	r2,-4(fp)
   4bfcc:	10bffe84 	addi	r2,r2,-6
   4bfd0:	10c00428 	cmpgeui	r3,r2,16
   4bfd4:	18001a1e 	bne	r3,zero,4c040 <alt_exception_cause_generated_bad_addr+0x88>
   4bfd8:	100690ba 	slli	r3,r2,2
   4bfdc:	00800174 	movhi	r2,5
   4bfe0:	10affc04 	addi	r2,r2,-16400
   4bfe4:	1885883a 	add	r2,r3,r2
   4bfe8:	10800017 	ldw	r2,0(r2)
   4bfec:	1000683a 	jmp	r2
   4bff0:	0004c030 	cmpltui	zero,zero,4864
   4bff4:	0004c030 	cmpltui	zero,zero,4864
   4bff8:	0004c040 	call	4c04 <OSCtxSw_SWITCH_PC+0x4bc4>
   4bffc:	0004c040 	call	4c04 <OSCtxSw_SWITCH_PC+0x4bc4>
   4c000:	0004c040 	call	4c04 <OSCtxSw_SWITCH_PC+0x4bc4>
   4c004:	0004c030 	cmpltui	zero,zero,4864
   4c008:	0004c038 	rdprs	zero,zero,4864
   4c00c:	0004c040 	call	4c04 <OSCtxSw_SWITCH_PC+0x4bc4>
   4c010:	0004c030 	cmpltui	zero,zero,4864
   4c014:	0004c030 	cmpltui	zero,zero,4864
   4c018:	0004c040 	call	4c04 <OSCtxSw_SWITCH_PC+0x4bc4>
   4c01c:	0004c030 	cmpltui	zero,zero,4864
   4c020:	0004c038 	rdprs	zero,zero,4864
   4c024:	0004c040 	call	4c04 <OSCtxSw_SWITCH_PC+0x4bc4>
   4c028:	0004c040 	call	4c04 <OSCtxSw_SWITCH_PC+0x4bc4>
   4c02c:	0004c030 	cmpltui	zero,zero,4864
   4c030:	00800044 	movi	r2,1
   4c034:	00000306 	br	4c044 <alt_exception_cause_generated_bad_addr+0x8c>
   4c038:	0005883a 	mov	r2,zero
   4c03c:	00000106 	br	4c044 <alt_exception_cause_generated_bad_addr+0x8c>
   4c040:	0005883a 	mov	r2,zero
   4c044:	e037883a 	mov	sp,fp
   4c048:	df000017 	ldw	fp,0(sp)
   4c04c:	dec00104 	addi	sp,sp,4
   4c050:	f800283a 	ret

0004c054 <alt_open_fd>:
   4c054:	defff804 	addi	sp,sp,-32
   4c058:	dfc00715 	stw	ra,28(sp)
   4c05c:	df000615 	stw	fp,24(sp)
   4c060:	dc000515 	stw	r16,20(sp)
   4c064:	df000604 	addi	fp,sp,24
   4c068:	e13ffb15 	stw	r4,-20(fp)
   4c06c:	e17ffc15 	stw	r5,-16(fp)
   4c070:	e1bffd15 	stw	r6,-12(fp)
   4c074:	e1fffe15 	stw	r7,-8(fp)
   4c078:	e1bffe17 	ldw	r6,-8(fp)
   4c07c:	e17ffd17 	ldw	r5,-12(fp)
   4c080:	e13ffc17 	ldw	r4,-16(fp)
   4c084:	004c2dc0 	call	4c2dc <open>
   4c088:	e0bffa15 	stw	r2,-24(fp)
   4c08c:	e0bffa17 	ldw	r2,-24(fp)
   4c090:	10002216 	blt	r2,zero,4c11c <alt_open_fd+0xc8>
   4c094:	04000174 	movhi	r16,5
   4c098:	84370704 	addi	r16,r16,-9188
   4c09c:	e0bffa17 	ldw	r2,-24(fp)
   4c0a0:	01400304 	movi	r5,12
   4c0a4:	1009883a 	mov	r4,r2
   4c0a8:	00426600 	call	42660 <__mulsi3>
   4c0ac:	8085883a 	add	r2,r16,r2
   4c0b0:	10c00017 	ldw	r3,0(r2)
   4c0b4:	e0bffb17 	ldw	r2,-20(fp)
   4c0b8:	10c00015 	stw	r3,0(r2)
   4c0bc:	04000174 	movhi	r16,5
   4c0c0:	84370704 	addi	r16,r16,-9188
   4c0c4:	e0bffa17 	ldw	r2,-24(fp)
   4c0c8:	01400304 	movi	r5,12
   4c0cc:	1009883a 	mov	r4,r2
   4c0d0:	00426600 	call	42660 <__mulsi3>
   4c0d4:	8085883a 	add	r2,r16,r2
   4c0d8:	10800104 	addi	r2,r2,4
   4c0dc:	10c00017 	ldw	r3,0(r2)
   4c0e0:	e0bffb17 	ldw	r2,-20(fp)
   4c0e4:	10c00115 	stw	r3,4(r2)
   4c0e8:	04000174 	movhi	r16,5
   4c0ec:	84370704 	addi	r16,r16,-9188
   4c0f0:	e0bffa17 	ldw	r2,-24(fp)
   4c0f4:	01400304 	movi	r5,12
   4c0f8:	1009883a 	mov	r4,r2
   4c0fc:	00426600 	call	42660 <__mulsi3>
   4c100:	8085883a 	add	r2,r16,r2
   4c104:	10800204 	addi	r2,r2,8
   4c108:	10c00017 	ldw	r3,0(r2)
   4c10c:	e0bffb17 	ldw	r2,-20(fp)
   4c110:	10c00215 	stw	r3,8(r2)
   4c114:	e13ffa17 	ldw	r4,-24(fp)
   4c118:	00430440 	call	43044 <alt_release_fd>
   4c11c:	0001883a 	nop
   4c120:	e6ffff04 	addi	sp,fp,-4
   4c124:	dfc00217 	ldw	ra,8(sp)
   4c128:	df000117 	ldw	fp,4(sp)
   4c12c:	dc000017 	ldw	r16,0(sp)
   4c130:	dec00304 	addi	sp,sp,12
   4c134:	f800283a 	ret

0004c138 <alt_io_redirect>:
   4c138:	defffb04 	addi	sp,sp,-20
   4c13c:	dfc00415 	stw	ra,16(sp)
   4c140:	df000315 	stw	fp,12(sp)
   4c144:	df000304 	addi	fp,sp,12
   4c148:	e13ffd15 	stw	r4,-12(fp)
   4c14c:	e17ffe15 	stw	r5,-8(fp)
   4c150:	e1bfff15 	stw	r6,-4(fp)
   4c154:	01c07fc4 	movi	r7,511
   4c158:	01800044 	movi	r6,1
   4c15c:	e17ffd17 	ldw	r5,-12(fp)
   4c160:	01000174 	movhi	r4,5
   4c164:	21370a04 	addi	r4,r4,-9176
   4c168:	004c0540 	call	4c054 <alt_open_fd>
   4c16c:	01c07fc4 	movi	r7,511
   4c170:	000d883a 	mov	r6,zero
   4c174:	e17ffe17 	ldw	r5,-8(fp)
   4c178:	01000174 	movhi	r4,5
   4c17c:	21370704 	addi	r4,r4,-9188
   4c180:	004c0540 	call	4c054 <alt_open_fd>
   4c184:	01c07fc4 	movi	r7,511
   4c188:	01800044 	movi	r6,1
   4c18c:	e17fff17 	ldw	r5,-4(fp)
   4c190:	01000174 	movhi	r4,5
   4c194:	21370d04 	addi	r4,r4,-9164
   4c198:	004c0540 	call	4c054 <alt_open_fd>
   4c19c:	0001883a 	nop
   4c1a0:	e037883a 	mov	sp,fp
   4c1a4:	dfc00117 	ldw	ra,4(sp)
   4c1a8:	df000017 	ldw	fp,0(sp)
   4c1ac:	dec00204 	addi	sp,sp,8
   4c1b0:	f800283a 	ret

0004c1b4 <alt_get_errno>:
   4c1b4:	defffe04 	addi	sp,sp,-8
   4c1b8:	dfc00115 	stw	ra,4(sp)
   4c1bc:	df000015 	stw	fp,0(sp)
   4c1c0:	d839883a 	mov	fp,sp
   4c1c4:	d0a00917 	ldw	r2,-32732(gp)
   4c1c8:	10000326 	beq	r2,zero,4c1d8 <alt_get_errno+0x24>
   4c1cc:	d0a00917 	ldw	r2,-32732(gp)
   4c1d0:	103ee83a 	callr	r2
   4c1d4:	00000106 	br	4c1dc <alt_get_errno+0x28>
   4c1d8:	d0a6f004 	addi	r2,gp,-25664
   4c1dc:	e037883a 	mov	sp,fp
   4c1e0:	dfc00117 	ldw	ra,4(sp)
   4c1e4:	df000017 	ldw	fp,0(sp)
   4c1e8:	dec00204 	addi	sp,sp,8
   4c1ec:	f800283a 	ret

0004c1f0 <alt_file_locked>:
   4c1f0:	defffb04 	addi	sp,sp,-20
   4c1f4:	dfc00415 	stw	ra,16(sp)
   4c1f8:	df000315 	stw	fp,12(sp)
   4c1fc:	dc000215 	stw	r16,8(sp)
   4c200:	df000304 	addi	fp,sp,12
   4c204:	e13ffe15 	stw	r4,-8(fp)
   4c208:	e0bffe17 	ldw	r2,-8(fp)
   4c20c:	10800217 	ldw	r2,8(r2)
   4c210:	10d00034 	orhi	r3,r2,16384
   4c214:	e0bffe17 	ldw	r2,-8(fp)
   4c218:	10c00215 	stw	r3,8(r2)
   4c21c:	e03ffd15 	stw	zero,-12(fp)
   4c220:	00002306 	br	4c2b0 <alt_file_locked+0xc0>
   4c224:	04000174 	movhi	r16,5
   4c228:	84370704 	addi	r16,r16,-9188
   4c22c:	e0bffd17 	ldw	r2,-12(fp)
   4c230:	01400304 	movi	r5,12
   4c234:	1009883a 	mov	r4,r2
   4c238:	00426600 	call	42660 <__mulsi3>
   4c23c:	8085883a 	add	r2,r16,r2
   4c240:	10c00017 	ldw	r3,0(r2)
   4c244:	e0bffe17 	ldw	r2,-8(fp)
   4c248:	10800017 	ldw	r2,0(r2)
   4c24c:	1880151e 	bne	r3,r2,4c2a4 <alt_file_locked+0xb4>
   4c250:	04000174 	movhi	r16,5
   4c254:	84370704 	addi	r16,r16,-9188
   4c258:	e0bffd17 	ldw	r2,-12(fp)
   4c25c:	01400304 	movi	r5,12
   4c260:	1009883a 	mov	r4,r2
   4c264:	00426600 	call	42660 <__mulsi3>
   4c268:	8085883a 	add	r2,r16,r2
   4c26c:	10800204 	addi	r2,r2,8
   4c270:	10800017 	ldw	r2,0(r2)
   4c274:	10000b0e 	bge	r2,zero,4c2a4 <alt_file_locked+0xb4>
   4c278:	01400304 	movi	r5,12
   4c27c:	e13ffd17 	ldw	r4,-12(fp)
   4c280:	00426600 	call	42660 <__mulsi3>
   4c284:	1007883a 	mov	r3,r2
   4c288:	00800174 	movhi	r2,5
   4c28c:	10b70704 	addi	r2,r2,-9188
   4c290:	1887883a 	add	r3,r3,r2
   4c294:	e0bffe17 	ldw	r2,-8(fp)
   4c298:	18800226 	beq	r3,r2,4c2a4 <alt_file_locked+0xb4>
   4c29c:	00bffcc4 	movi	r2,-13
   4c2a0:	00000806 	br	4c2c4 <alt_file_locked+0xd4>
   4c2a4:	e0bffd17 	ldw	r2,-12(fp)
   4c2a8:	10800044 	addi	r2,r2,1
   4c2ac:	e0bffd15 	stw	r2,-12(fp)
   4c2b0:	d0a00817 	ldw	r2,-32736(gp)
   4c2b4:	1007883a 	mov	r3,r2
   4c2b8:	e0bffd17 	ldw	r2,-12(fp)
   4c2bc:	18bfd92e 	bgeu	r3,r2,4c224 <__alt_data_end+0xfffe6a24>
   4c2c0:	0005883a 	mov	r2,zero
   4c2c4:	e6ffff04 	addi	sp,fp,-4
   4c2c8:	dfc00217 	ldw	ra,8(sp)
   4c2cc:	df000117 	ldw	fp,4(sp)
   4c2d0:	dc000017 	ldw	r16,0(sp)
   4c2d4:	dec00304 	addi	sp,sp,12
   4c2d8:	f800283a 	ret

0004c2dc <open>:
   4c2dc:	defff604 	addi	sp,sp,-40
   4c2e0:	dfc00915 	stw	ra,36(sp)
   4c2e4:	df000815 	stw	fp,32(sp)
   4c2e8:	df000804 	addi	fp,sp,32
   4c2ec:	e13ffd15 	stw	r4,-12(fp)
   4c2f0:	e17ffe15 	stw	r5,-8(fp)
   4c2f4:	e1bfff15 	stw	r6,-4(fp)
   4c2f8:	00bfffc4 	movi	r2,-1
   4c2fc:	e0bff915 	stw	r2,-28(fp)
   4c300:	00bffb44 	movi	r2,-19
   4c304:	e0bffa15 	stw	r2,-24(fp)
   4c308:	e03ffb15 	stw	zero,-20(fp)
   4c30c:	d1600604 	addi	r5,gp,-32744
   4c310:	e13ffd17 	ldw	r4,-12(fp)
   4c314:	004c9580 	call	4c958 <alt_find_dev>
   4c318:	e0bff815 	stw	r2,-32(fp)
   4c31c:	e0bff817 	ldw	r2,-32(fp)
   4c320:	1000051e 	bne	r2,zero,4c338 <open+0x5c>
   4c324:	e13ffd17 	ldw	r4,-12(fp)
   4c328:	004c9e80 	call	4c9e8 <alt_find_file>
   4c32c:	e0bff815 	stw	r2,-32(fp)
   4c330:	00800044 	movi	r2,1
   4c334:	e0bffb15 	stw	r2,-20(fp)
   4c338:	e0bff817 	ldw	r2,-32(fp)
   4c33c:	10002b26 	beq	r2,zero,4c3ec <open+0x110>
   4c340:	e13ff817 	ldw	r4,-32(fp)
   4c344:	004caf00 	call	4caf0 <alt_get_fd>
   4c348:	e0bff915 	stw	r2,-28(fp)
   4c34c:	e0bff917 	ldw	r2,-28(fp)
   4c350:	1000030e 	bge	r2,zero,4c360 <open+0x84>
   4c354:	e0bff917 	ldw	r2,-28(fp)
   4c358:	e0bffa15 	stw	r2,-24(fp)
   4c35c:	00002506 	br	4c3f4 <open+0x118>
   4c360:	01400304 	movi	r5,12
   4c364:	e13ff917 	ldw	r4,-28(fp)
   4c368:	00426600 	call	42660 <__mulsi3>
   4c36c:	1007883a 	mov	r3,r2
   4c370:	00800174 	movhi	r2,5
   4c374:	10b70704 	addi	r2,r2,-9188
   4c378:	1885883a 	add	r2,r3,r2
   4c37c:	e0bffc15 	stw	r2,-16(fp)
   4c380:	e0fffe17 	ldw	r3,-8(fp)
   4c384:	00900034 	movhi	r2,16384
   4c388:	10bfffc4 	addi	r2,r2,-1
   4c38c:	1886703a 	and	r3,r3,r2
   4c390:	e0bffc17 	ldw	r2,-16(fp)
   4c394:	10c00215 	stw	r3,8(r2)
   4c398:	e0bffb17 	ldw	r2,-20(fp)
   4c39c:	1000051e 	bne	r2,zero,4c3b4 <open+0xd8>
   4c3a0:	e13ffc17 	ldw	r4,-16(fp)
   4c3a4:	004c1f00 	call	4c1f0 <alt_file_locked>
   4c3a8:	e0bffa15 	stw	r2,-24(fp)
   4c3ac:	e0bffa17 	ldw	r2,-24(fp)
   4c3b0:	10001016 	blt	r2,zero,4c3f4 <open+0x118>
   4c3b4:	e0bff817 	ldw	r2,-32(fp)
   4c3b8:	10800317 	ldw	r2,12(r2)
   4c3bc:	10000826 	beq	r2,zero,4c3e0 <open+0x104>
   4c3c0:	e0bff817 	ldw	r2,-32(fp)
   4c3c4:	10800317 	ldw	r2,12(r2)
   4c3c8:	e1ffff17 	ldw	r7,-4(fp)
   4c3cc:	e1bffe17 	ldw	r6,-8(fp)
   4c3d0:	e17ffd17 	ldw	r5,-12(fp)
   4c3d4:	e13ffc17 	ldw	r4,-16(fp)
   4c3d8:	103ee83a 	callr	r2
   4c3dc:	00000106 	br	4c3e4 <open+0x108>
   4c3e0:	0005883a 	mov	r2,zero
   4c3e4:	e0bffa15 	stw	r2,-24(fp)
   4c3e8:	00000206 	br	4c3f4 <open+0x118>
   4c3ec:	00bffb44 	movi	r2,-19
   4c3f0:	e0bffa15 	stw	r2,-24(fp)
   4c3f4:	e0bffa17 	ldw	r2,-24(fp)
   4c3f8:	1000090e 	bge	r2,zero,4c420 <open+0x144>
   4c3fc:	e13ff917 	ldw	r4,-28(fp)
   4c400:	00430440 	call	43044 <alt_release_fd>
   4c404:	004c1b40 	call	4c1b4 <alt_get_errno>
   4c408:	1007883a 	mov	r3,r2
   4c40c:	e0bffa17 	ldw	r2,-24(fp)
   4c410:	0085c83a 	sub	r2,zero,r2
   4c414:	18800015 	stw	r2,0(r3)
   4c418:	00bfffc4 	movi	r2,-1
   4c41c:	00000106 	br	4c424 <open+0x148>
   4c420:	e0bff917 	ldw	r2,-28(fp)
   4c424:	e037883a 	mov	sp,fp
   4c428:	dfc00117 	ldw	ra,4(sp)
   4c42c:	df000017 	ldw	fp,0(sp)
   4c430:	dec00204 	addi	sp,sp,8
   4c434:	f800283a 	ret

0004c438 <alt_alarm_stop>:
   4c438:	defffa04 	addi	sp,sp,-24
   4c43c:	df000515 	stw	fp,20(sp)
   4c440:	df000504 	addi	fp,sp,20
   4c444:	e13fff15 	stw	r4,-4(fp)
   4c448:	0005303a 	rdctl	r2,status
   4c44c:	e0bffc15 	stw	r2,-16(fp)
   4c450:	e0fffc17 	ldw	r3,-16(fp)
   4c454:	00bfff84 	movi	r2,-2
   4c458:	1884703a 	and	r2,r3,r2
   4c45c:	1001703a 	wrctl	status,r2
   4c460:	e0bffc17 	ldw	r2,-16(fp)
   4c464:	e0bffb15 	stw	r2,-20(fp)
   4c468:	e0bfff17 	ldw	r2,-4(fp)
   4c46c:	e0bffd15 	stw	r2,-12(fp)
   4c470:	e0bffd17 	ldw	r2,-12(fp)
   4c474:	10800017 	ldw	r2,0(r2)
   4c478:	e0fffd17 	ldw	r3,-12(fp)
   4c47c:	18c00117 	ldw	r3,4(r3)
   4c480:	10c00115 	stw	r3,4(r2)
   4c484:	e0bffd17 	ldw	r2,-12(fp)
   4c488:	10800117 	ldw	r2,4(r2)
   4c48c:	e0fffd17 	ldw	r3,-12(fp)
   4c490:	18c00017 	ldw	r3,0(r3)
   4c494:	10c00015 	stw	r3,0(r2)
   4c498:	e0bffd17 	ldw	r2,-12(fp)
   4c49c:	e0fffd17 	ldw	r3,-12(fp)
   4c4a0:	10c00115 	stw	r3,4(r2)
   4c4a4:	e0bffd17 	ldw	r2,-12(fp)
   4c4a8:	e0fffd17 	ldw	r3,-12(fp)
   4c4ac:	10c00015 	stw	r3,0(r2)
   4c4b0:	e0bffb17 	ldw	r2,-20(fp)
   4c4b4:	e0bffe15 	stw	r2,-8(fp)
   4c4b8:	e0bffe17 	ldw	r2,-8(fp)
   4c4bc:	1001703a 	wrctl	status,r2
   4c4c0:	0001883a 	nop
   4c4c4:	e037883a 	mov	sp,fp
   4c4c8:	df000017 	ldw	fp,0(sp)
   4c4cc:	dec00104 	addi	sp,sp,4
   4c4d0:	f800283a 	ret

0004c4d4 <alt_tick>:
   4c4d4:	defffb04 	addi	sp,sp,-20
   4c4d8:	dfc00415 	stw	ra,16(sp)
   4c4dc:	df000315 	stw	fp,12(sp)
   4c4e0:	df000304 	addi	fp,sp,12
   4c4e4:	d0a02b17 	ldw	r2,-32596(gp)
   4c4e8:	e0bffd15 	stw	r2,-12(fp)
   4c4ec:	d0a71017 	ldw	r2,-25536(gp)
   4c4f0:	10800044 	addi	r2,r2,1
   4c4f4:	d0a71015 	stw	r2,-25536(gp)
   4c4f8:	00002e06 	br	4c5b4 <alt_tick+0xe0>
   4c4fc:	e0bffd17 	ldw	r2,-12(fp)
   4c500:	10800017 	ldw	r2,0(r2)
   4c504:	e0bffe15 	stw	r2,-8(fp)
   4c508:	e0bffd17 	ldw	r2,-12(fp)
   4c50c:	10800403 	ldbu	r2,16(r2)
   4c510:	10803fcc 	andi	r2,r2,255
   4c514:	10000426 	beq	r2,zero,4c528 <alt_tick+0x54>
   4c518:	d0a71017 	ldw	r2,-25536(gp)
   4c51c:	1000021e 	bne	r2,zero,4c528 <alt_tick+0x54>
   4c520:	e0bffd17 	ldw	r2,-12(fp)
   4c524:	10000405 	stb	zero,16(r2)
   4c528:	e0bffd17 	ldw	r2,-12(fp)
   4c52c:	10800217 	ldw	r2,8(r2)
   4c530:	d0e71017 	ldw	r3,-25536(gp)
   4c534:	18801d36 	bltu	r3,r2,4c5ac <alt_tick+0xd8>
   4c538:	e0bffd17 	ldw	r2,-12(fp)
   4c53c:	10800403 	ldbu	r2,16(r2)
   4c540:	10803fcc 	andi	r2,r2,255
   4c544:	1000191e 	bne	r2,zero,4c5ac <alt_tick+0xd8>
   4c548:	e0bffd17 	ldw	r2,-12(fp)
   4c54c:	10800317 	ldw	r2,12(r2)
   4c550:	e0fffd17 	ldw	r3,-12(fp)
   4c554:	18c00517 	ldw	r3,20(r3)
   4c558:	1809883a 	mov	r4,r3
   4c55c:	103ee83a 	callr	r2
   4c560:	e0bfff15 	stw	r2,-4(fp)
   4c564:	e0bfff17 	ldw	r2,-4(fp)
   4c568:	1000031e 	bne	r2,zero,4c578 <alt_tick+0xa4>
   4c56c:	e13ffd17 	ldw	r4,-12(fp)
   4c570:	004c4380 	call	4c438 <alt_alarm_stop>
   4c574:	00000d06 	br	4c5ac <alt_tick+0xd8>
   4c578:	e0bffd17 	ldw	r2,-12(fp)
   4c57c:	10c00217 	ldw	r3,8(r2)
   4c580:	e0bfff17 	ldw	r2,-4(fp)
   4c584:	1887883a 	add	r3,r3,r2
   4c588:	e0bffd17 	ldw	r2,-12(fp)
   4c58c:	10c00215 	stw	r3,8(r2)
   4c590:	e0bffd17 	ldw	r2,-12(fp)
   4c594:	10c00217 	ldw	r3,8(r2)
   4c598:	d0a71017 	ldw	r2,-25536(gp)
   4c59c:	1880032e 	bgeu	r3,r2,4c5ac <alt_tick+0xd8>
   4c5a0:	e0bffd17 	ldw	r2,-12(fp)
   4c5a4:	00c00044 	movi	r3,1
   4c5a8:	10c00405 	stb	r3,16(r2)
   4c5ac:	e0bffe17 	ldw	r2,-8(fp)
   4c5b0:	e0bffd15 	stw	r2,-12(fp)
   4c5b4:	e0fffd17 	ldw	r3,-12(fp)
   4c5b8:	d0a02b04 	addi	r2,gp,-32596
   4c5bc:	18bfcf1e 	bne	r3,r2,4c4fc <__alt_data_end+0xfffe6cfc>
   4c5c0:	00442580 	call	44258 <OSTimeTick>
   4c5c4:	0001883a 	nop
   4c5c8:	e037883a 	mov	sp,fp
   4c5cc:	dfc00117 	ldw	ra,4(sp)
   4c5d0:	df000017 	ldw	fp,0(sp)
   4c5d4:	dec00204 	addi	sp,sp,8
   4c5d8:	f800283a 	ret

0004c5dc <altera_nios2_gen2_irq_init>:
   4c5dc:	deffff04 	addi	sp,sp,-4
   4c5e0:	df000015 	stw	fp,0(sp)
   4c5e4:	d839883a 	mov	fp,sp
   4c5e8:	000170fa 	wrctl	ienable,zero
   4c5ec:	0001883a 	nop
   4c5f0:	e037883a 	mov	sp,fp
   4c5f4:	df000017 	ldw	fp,0(sp)
   4c5f8:	dec00104 	addi	sp,sp,4
   4c5fc:	f800283a 	ret

0004c600 <OSCtxSw>:
   4c600:	defff504 	addi	sp,sp,-44
   4c604:	d0e00117 	ldw	r3,-32764(gp)
   4c608:	d1270917 	ldw	r4,-25564(gp)
   4c60c:	dfc00015 	stw	ra,0(sp)
   4c610:	df000115 	stw	fp,4(sp)
   4c614:	ddc00215 	stw	r23,8(sp)
   4c618:	dd800315 	stw	r22,12(sp)
   4c61c:	dd400415 	stw	r21,16(sp)
   4c620:	dd000515 	stw	r20,20(sp)
   4c624:	dcc00615 	stw	r19,24(sp)
   4c628:	dc800715 	stw	r18,28(sp)
   4c62c:	dc400815 	stw	r17,32(sp)
   4c630:	dc000915 	stw	r16,36(sp)
   4c634:	d8c00a15 	stw	r3,40(sp)
   4c638:	26c00015 	stw	sp,0(r4)
   4c63c:	004c8740 	call	4c874 <OSTaskSwHook>
   4c640:	d1270417 	ldw	r4,-25584(gp)
   4c644:	d166fc07 	ldb	r5,-25616(gp)
   4c648:	d1270915 	stw	r4,-25564(gp)
   4c64c:	d166fc45 	stb	r5,-25615(gp)
   4c650:	26c00017 	ldw	sp,0(r4)
   4c654:	d8c00a17 	ldw	r3,40(sp)
   4c658:	dfc00017 	ldw	ra,0(sp)
   4c65c:	df000117 	ldw	fp,4(sp)
   4c660:	ddc00217 	ldw	r23,8(sp)
   4c664:	dd800317 	ldw	r22,12(sp)
   4c668:	dd400417 	ldw	r21,16(sp)
   4c66c:	dd000517 	ldw	r20,20(sp)
   4c670:	dcc00617 	ldw	r19,24(sp)
   4c674:	dc800717 	ldw	r18,28(sp)
   4c678:	dc400817 	ldw	r17,32(sp)
   4c67c:	dc000917 	ldw	r16,36(sp)
   4c680:	d0e00115 	stw	r3,-32764(gp)
   4c684:	dec00b04 	addi	sp,sp,44
   4c688:	f800283a 	ret

0004c68c <OSStartHighRdy>:
   4c68c:	0025303a 	rdctl	r18,status
   4c690:	047fff84 	movi	r17,-2
   4c694:	9464703a 	and	r18,r18,r17
   4c698:	9001703a 	wrctl	status,r18
   4c69c:	004c8740 	call	4c874 <OSTaskSwHook>
   4c6a0:	04800044 	movi	r18,1
   4c6a4:	d4a6fa45 	stb	r18,-25623(gp)
   4c6a8:	003fe506 	br	4c640 <__alt_data_end+0xfffe6e40>

0004c6ac <OSStartTsk>:
   4c6ac:	06c00004 	movi	sp,0
   4c6b0:	0005303a 	rdctl	r2,status
   4c6b4:	10800054 	ori	r2,r2,1
   4c6b8:	1001703a 	wrctl	status,r2
   4c6bc:	d8800117 	ldw	r2,4(sp)
   4c6c0:	d9000017 	ldw	r4,0(sp)
   4c6c4:	dec00204 	addi	sp,sp,8
   4c6c8:	103ee83a 	callr	r2
   4c6cc:	0001883a 	nop

0004c6d0 <OSTaskStkInit>:
   4c6d0:	defff704 	addi	sp,sp,-36
   4c6d4:	dfc00815 	stw	ra,32(sp)
   4c6d8:	df000715 	stw	fp,28(sp)
   4c6dc:	df000704 	addi	fp,sp,28
   4c6e0:	e13ffc15 	stw	r4,-16(fp)
   4c6e4:	e17ffd15 	stw	r5,-12(fp)
   4c6e8:	e1bffe15 	stw	r6,-8(fp)
   4c6ec:	3805883a 	mov	r2,r7
   4c6f0:	e0bfff0d 	sth	r2,-4(fp)
   4c6f4:	e0fffe17 	ldw	r3,-8(fp)
   4c6f8:	00bfff04 	movi	r2,-4
   4c6fc:	1884703a 	and	r2,r3,r2
   4c700:	10bef704 	addi	r2,r2,-1060
   4c704:	e0bff915 	stw	r2,-28(fp)
   4c708:	01810904 	movi	r6,1060
   4c70c:	000b883a 	mov	r5,zero
   4c710:	e13ff917 	ldw	r4,-28(fp)
   4c714:	00420800 	call	42080 <memset>
   4c718:	e0bff917 	ldw	r2,-28(fp)
   4c71c:	10c0bb04 	addi	r3,r2,748
   4c720:	e0bff917 	ldw	r2,-28(fp)
   4c724:	10c00115 	stw	r3,4(r2)
   4c728:	e0bff917 	ldw	r2,-28(fp)
   4c72c:	10c0d504 	addi	r3,r2,852
   4c730:	e0bff917 	ldw	r2,-28(fp)
   4c734:	10c00215 	stw	r3,8(r2)
   4c738:	e0bff917 	ldw	r2,-28(fp)
   4c73c:	10c0ef04 	addi	r3,r2,956
   4c740:	e0bff917 	ldw	r2,-28(fp)
   4c744:	10c00315 	stw	r3,12(r2)
   4c748:	e0fff917 	ldw	r3,-28(fp)
   4c74c:	00800174 	movhi	r2,5
   4c750:	10b4f104 	addi	r2,r2,-11324
   4c754:	18800d15 	stw	r2,52(r3)
   4c758:	e0bff917 	ldw	r2,-28(fp)
   4c75c:	00c00044 	movi	r3,1
   4c760:	10c02915 	stw	r3,164(r2)
   4c764:	10002a15 	stw	zero,168(r2)
   4c768:	e0bff917 	ldw	r2,-28(fp)
   4c76c:	00ccc384 	movi	r3,13070
   4c770:	10c02b0d 	sth	r3,172(r2)
   4c774:	e0bff917 	ldw	r2,-28(fp)
   4c778:	00eaf344 	movi	r3,-21555
   4c77c:	10c02b8d 	sth	r3,174(r2)
   4c780:	e0bff917 	ldw	r2,-28(fp)
   4c784:	00c48d04 	movi	r3,4660
   4c788:	10c02c0d 	sth	r3,176(r2)
   4c78c:	e0bff917 	ldw	r2,-28(fp)
   4c790:	00f99b44 	movi	r3,-6547
   4c794:	10c02c8d 	sth	r3,178(r2)
   4c798:	e0bff917 	ldw	r2,-28(fp)
   4c79c:	00f7bb04 	movi	r3,-8468
   4c7a0:	10c02d0d 	sth	r3,180(r2)
   4c7a4:	e0bff917 	ldw	r2,-28(fp)
   4c7a8:	00c00144 	movi	r3,5
   4c7ac:	10c02d8d 	sth	r3,182(r2)
   4c7b0:	e0bff917 	ldw	r2,-28(fp)
   4c7b4:	00c002c4 	movi	r3,11
   4c7b8:	10c02e0d 	sth	r3,184(r2)
   4c7bc:	e0bff917 	ldw	r2,-28(fp)
   4c7c0:	e0bffa15 	stw	r2,-24(fp)
   4c7c4:	e0bffa17 	ldw	r2,-24(fp)
   4c7c8:	10bff304 	addi	r2,r2,-52
   4c7cc:	e0bffb15 	stw	r2,-20(fp)
   4c7d0:	e0bffb17 	ldw	r2,-20(fp)
   4c7d4:	10800c04 	addi	r2,r2,48
   4c7d8:	e0fffc17 	ldw	r3,-16(fp)
   4c7dc:	10c00015 	stw	r3,0(r2)
   4c7e0:	e0bffb17 	ldw	r2,-20(fp)
   4c7e4:	10800b04 	addi	r2,r2,44
   4c7e8:	e0fffd17 	ldw	r3,-12(fp)
   4c7ec:	10c00015 	stw	r3,0(r2)
   4c7f0:	e0bffb17 	ldw	r2,-20(fp)
   4c7f4:	10800a04 	addi	r2,r2,40
   4c7f8:	e0fff917 	ldw	r3,-28(fp)
   4c7fc:	10c00015 	stw	r3,0(r2)
   4c800:	00800174 	movhi	r2,5
   4c804:	10b1ab04 	addi	r2,r2,-14676
   4c808:	10c00104 	addi	r3,r2,4
   4c80c:	e0bffb17 	ldw	r2,-20(fp)
   4c810:	10c00015 	stw	r3,0(r2)
   4c814:	e0bffb17 	ldw	r2,-20(fp)
   4c818:	e037883a 	mov	sp,fp
   4c81c:	dfc00117 	ldw	ra,4(sp)
   4c820:	df000017 	ldw	fp,0(sp)
   4c824:	dec00204 	addi	sp,sp,8
   4c828:	f800283a 	ret

0004c82c <OSTaskCreateHook>:
   4c82c:	defffe04 	addi	sp,sp,-8
   4c830:	df000115 	stw	fp,4(sp)
   4c834:	df000104 	addi	fp,sp,4
   4c838:	e13fff15 	stw	r4,-4(fp)
   4c83c:	0001883a 	nop
   4c840:	e037883a 	mov	sp,fp
   4c844:	df000017 	ldw	fp,0(sp)
   4c848:	dec00104 	addi	sp,sp,4
   4c84c:	f800283a 	ret

0004c850 <OSTaskDelHook>:
   4c850:	defffe04 	addi	sp,sp,-8
   4c854:	df000115 	stw	fp,4(sp)
   4c858:	df000104 	addi	fp,sp,4
   4c85c:	e13fff15 	stw	r4,-4(fp)
   4c860:	0001883a 	nop
   4c864:	e037883a 	mov	sp,fp
   4c868:	df000017 	ldw	fp,0(sp)
   4c86c:	dec00104 	addi	sp,sp,4
   4c870:	f800283a 	ret

0004c874 <OSTaskSwHook>:
   4c874:	deffff04 	addi	sp,sp,-4
   4c878:	df000015 	stw	fp,0(sp)
   4c87c:	d839883a 	mov	fp,sp
   4c880:	0001883a 	nop
   4c884:	e037883a 	mov	sp,fp
   4c888:	df000017 	ldw	fp,0(sp)
   4c88c:	dec00104 	addi	sp,sp,4
   4c890:	f800283a 	ret

0004c894 <OSTaskStatHook>:
   4c894:	deffff04 	addi	sp,sp,-4
   4c898:	df000015 	stw	fp,0(sp)
   4c89c:	d839883a 	mov	fp,sp
   4c8a0:	0001883a 	nop
   4c8a4:	e037883a 	mov	sp,fp
   4c8a8:	df000017 	ldw	fp,0(sp)
   4c8ac:	dec00104 	addi	sp,sp,4
   4c8b0:	f800283a 	ret

0004c8b4 <OSTimeTickHook>:
   4c8b4:	deffff04 	addi	sp,sp,-4
   4c8b8:	df000015 	stw	fp,0(sp)
   4c8bc:	d839883a 	mov	fp,sp
   4c8c0:	0001883a 	nop
   4c8c4:	e037883a 	mov	sp,fp
   4c8c8:	df000017 	ldw	fp,0(sp)
   4c8cc:	dec00104 	addi	sp,sp,4
   4c8d0:	f800283a 	ret

0004c8d4 <OSInitHookBegin>:
   4c8d4:	deffff04 	addi	sp,sp,-4
   4c8d8:	df000015 	stw	fp,0(sp)
   4c8dc:	d839883a 	mov	fp,sp
   4c8e0:	0001883a 	nop
   4c8e4:	e037883a 	mov	sp,fp
   4c8e8:	df000017 	ldw	fp,0(sp)
   4c8ec:	dec00104 	addi	sp,sp,4
   4c8f0:	f800283a 	ret

0004c8f4 <OSInitHookEnd>:
   4c8f4:	deffff04 	addi	sp,sp,-4
   4c8f8:	df000015 	stw	fp,0(sp)
   4c8fc:	d839883a 	mov	fp,sp
   4c900:	0001883a 	nop
   4c904:	e037883a 	mov	sp,fp
   4c908:	df000017 	ldw	fp,0(sp)
   4c90c:	dec00104 	addi	sp,sp,4
   4c910:	f800283a 	ret

0004c914 <OSTaskIdleHook>:
   4c914:	deffff04 	addi	sp,sp,-4
   4c918:	df000015 	stw	fp,0(sp)
   4c91c:	d839883a 	mov	fp,sp
   4c920:	0001883a 	nop
   4c924:	e037883a 	mov	sp,fp
   4c928:	df000017 	ldw	fp,0(sp)
   4c92c:	dec00104 	addi	sp,sp,4
   4c930:	f800283a 	ret

0004c934 <OSTCBInitHook>:
   4c934:	defffe04 	addi	sp,sp,-8
   4c938:	df000115 	stw	fp,4(sp)
   4c93c:	df000104 	addi	fp,sp,4
   4c940:	e13fff15 	stw	r4,-4(fp)
   4c944:	0001883a 	nop
   4c948:	e037883a 	mov	sp,fp
   4c94c:	df000017 	ldw	fp,0(sp)
   4c950:	dec00104 	addi	sp,sp,4
   4c954:	f800283a 	ret

0004c958 <alt_find_dev>:
   4c958:	defffa04 	addi	sp,sp,-24
   4c95c:	dfc00515 	stw	ra,20(sp)
   4c960:	df000415 	stw	fp,16(sp)
   4c964:	df000404 	addi	fp,sp,16
   4c968:	e13ffe15 	stw	r4,-8(fp)
   4c96c:	e17fff15 	stw	r5,-4(fp)
   4c970:	e0bfff17 	ldw	r2,-4(fp)
   4c974:	10800017 	ldw	r2,0(r2)
   4c978:	e0bffc15 	stw	r2,-16(fp)
   4c97c:	e13ffe17 	ldw	r4,-8(fp)
   4c980:	00407600 	call	40760 <strlen>
   4c984:	10800044 	addi	r2,r2,1
   4c988:	e0bffd15 	stw	r2,-12(fp)
   4c98c:	00000d06 	br	4c9c4 <alt_find_dev+0x6c>
   4c990:	e0bffc17 	ldw	r2,-16(fp)
   4c994:	10800217 	ldw	r2,8(r2)
   4c998:	e0fffd17 	ldw	r3,-12(fp)
   4c99c:	180d883a 	mov	r6,r3
   4c9a0:	e17ffe17 	ldw	r5,-8(fp)
   4c9a4:	1009883a 	mov	r4,r2
   4c9a8:	004cc300 	call	4cc30 <memcmp>
   4c9ac:	1000021e 	bne	r2,zero,4c9b8 <alt_find_dev+0x60>
   4c9b0:	e0bffc17 	ldw	r2,-16(fp)
   4c9b4:	00000706 	br	4c9d4 <alt_find_dev+0x7c>
   4c9b8:	e0bffc17 	ldw	r2,-16(fp)
   4c9bc:	10800017 	ldw	r2,0(r2)
   4c9c0:	e0bffc15 	stw	r2,-16(fp)
   4c9c4:	e0fffc17 	ldw	r3,-16(fp)
   4c9c8:	e0bfff17 	ldw	r2,-4(fp)
   4c9cc:	18bff01e 	bne	r3,r2,4c990 <__alt_data_end+0xfffe7190>
   4c9d0:	0005883a 	mov	r2,zero
   4c9d4:	e037883a 	mov	sp,fp
   4c9d8:	dfc00117 	ldw	ra,4(sp)
   4c9dc:	df000017 	ldw	fp,0(sp)
   4c9e0:	dec00204 	addi	sp,sp,8
   4c9e4:	f800283a 	ret

0004c9e8 <alt_find_file>:
   4c9e8:	defffb04 	addi	sp,sp,-20
   4c9ec:	dfc00415 	stw	ra,16(sp)
   4c9f0:	df000315 	stw	fp,12(sp)
   4c9f4:	df000304 	addi	fp,sp,12
   4c9f8:	e13fff15 	stw	r4,-4(fp)
   4c9fc:	d0a00417 	ldw	r2,-32752(gp)
   4ca00:	e0bffd15 	stw	r2,-12(fp)
   4ca04:	00003106 	br	4cacc <alt_find_file+0xe4>
   4ca08:	e0bffd17 	ldw	r2,-12(fp)
   4ca0c:	10800217 	ldw	r2,8(r2)
   4ca10:	1009883a 	mov	r4,r2
   4ca14:	00407600 	call	40760 <strlen>
   4ca18:	e0bffe15 	stw	r2,-8(fp)
   4ca1c:	e0bffd17 	ldw	r2,-12(fp)
   4ca20:	10c00217 	ldw	r3,8(r2)
   4ca24:	e0bffe17 	ldw	r2,-8(fp)
   4ca28:	10bfffc4 	addi	r2,r2,-1
   4ca2c:	1885883a 	add	r2,r3,r2
   4ca30:	10800003 	ldbu	r2,0(r2)
   4ca34:	10803fcc 	andi	r2,r2,255
   4ca38:	1080201c 	xori	r2,r2,128
   4ca3c:	10bfe004 	addi	r2,r2,-128
   4ca40:	10800bd8 	cmpnei	r2,r2,47
   4ca44:	1000031e 	bne	r2,zero,4ca54 <alt_find_file+0x6c>
   4ca48:	e0bffe17 	ldw	r2,-8(fp)
   4ca4c:	10bfffc4 	addi	r2,r2,-1
   4ca50:	e0bffe15 	stw	r2,-8(fp)
   4ca54:	e0bffe17 	ldw	r2,-8(fp)
   4ca58:	e0ffff17 	ldw	r3,-4(fp)
   4ca5c:	1885883a 	add	r2,r3,r2
   4ca60:	10800003 	ldbu	r2,0(r2)
   4ca64:	10803fcc 	andi	r2,r2,255
   4ca68:	1080201c 	xori	r2,r2,128
   4ca6c:	10bfe004 	addi	r2,r2,-128
   4ca70:	10800be0 	cmpeqi	r2,r2,47
   4ca74:	1000081e 	bne	r2,zero,4ca98 <alt_find_file+0xb0>
   4ca78:	e0bffe17 	ldw	r2,-8(fp)
   4ca7c:	e0ffff17 	ldw	r3,-4(fp)
   4ca80:	1885883a 	add	r2,r3,r2
   4ca84:	10800003 	ldbu	r2,0(r2)
   4ca88:	10803fcc 	andi	r2,r2,255
   4ca8c:	1080201c 	xori	r2,r2,128
   4ca90:	10bfe004 	addi	r2,r2,-128
   4ca94:	10000a1e 	bne	r2,zero,4cac0 <alt_find_file+0xd8>
   4ca98:	e0bffd17 	ldw	r2,-12(fp)
   4ca9c:	10800217 	ldw	r2,8(r2)
   4caa0:	e0fffe17 	ldw	r3,-8(fp)
   4caa4:	180d883a 	mov	r6,r3
   4caa8:	e17fff17 	ldw	r5,-4(fp)
   4caac:	1009883a 	mov	r4,r2
   4cab0:	004cc300 	call	4cc30 <memcmp>
   4cab4:	1000021e 	bne	r2,zero,4cac0 <alt_find_file+0xd8>
   4cab8:	e0bffd17 	ldw	r2,-12(fp)
   4cabc:	00000706 	br	4cadc <alt_find_file+0xf4>
   4cac0:	e0bffd17 	ldw	r2,-12(fp)
   4cac4:	10800017 	ldw	r2,0(r2)
   4cac8:	e0bffd15 	stw	r2,-12(fp)
   4cacc:	e0fffd17 	ldw	r3,-12(fp)
   4cad0:	d0a00404 	addi	r2,gp,-32752
   4cad4:	18bfcc1e 	bne	r3,r2,4ca08 <__alt_data_end+0xfffe7208>
   4cad8:	0005883a 	mov	r2,zero
   4cadc:	e037883a 	mov	sp,fp
   4cae0:	dfc00117 	ldw	ra,4(sp)
   4cae4:	df000017 	ldw	fp,0(sp)
   4cae8:	dec00204 	addi	sp,sp,8
   4caec:	f800283a 	ret

0004caf0 <alt_get_fd>:
   4caf0:	defff804 	addi	sp,sp,-32
   4caf4:	dfc00715 	stw	ra,28(sp)
   4caf8:	df000615 	stw	fp,24(sp)
   4cafc:	dc000515 	stw	r16,20(sp)
   4cb00:	df000604 	addi	fp,sp,24
   4cb04:	e13ffe15 	stw	r4,-8(fp)
   4cb08:	00bffa04 	movi	r2,-24
   4cb0c:	e0bffb15 	stw	r2,-20(fp)
   4cb10:	d0a6f117 	ldw	r2,-25660(gp)
   4cb14:	e0bffc15 	stw	r2,-16(fp)
   4cb18:	e03ffd0d 	sth	zero,-12(fp)
   4cb1c:	e0bffd0b 	ldhu	r2,-12(fp)
   4cb20:	e0fffd84 	addi	r3,fp,-10
   4cb24:	180d883a 	mov	r6,r3
   4cb28:	100b883a 	mov	r5,r2
   4cb2c:	e13ffc17 	ldw	r4,-16(fp)
   4cb30:	0048aa80 	call	48aa8 <OSSemPend>
   4cb34:	e03ffa15 	stw	zero,-24(fp)
   4cb38:	00001d06 	br	4cbb0 <alt_get_fd+0xc0>
   4cb3c:	04000174 	movhi	r16,5
   4cb40:	84370704 	addi	r16,r16,-9188
   4cb44:	e0bffa17 	ldw	r2,-24(fp)
   4cb48:	01400304 	movi	r5,12
   4cb4c:	1009883a 	mov	r4,r2
   4cb50:	00426600 	call	42660 <__mulsi3>
   4cb54:	8085883a 	add	r2,r16,r2
   4cb58:	10800017 	ldw	r2,0(r2)
   4cb5c:	1000111e 	bne	r2,zero,4cba4 <alt_get_fd+0xb4>
   4cb60:	04000174 	movhi	r16,5
   4cb64:	84370704 	addi	r16,r16,-9188
   4cb68:	e0bffa17 	ldw	r2,-24(fp)
   4cb6c:	01400304 	movi	r5,12
   4cb70:	1009883a 	mov	r4,r2
   4cb74:	00426600 	call	42660 <__mulsi3>
   4cb78:	8085883a 	add	r2,r16,r2
   4cb7c:	e0fffe17 	ldw	r3,-8(fp)
   4cb80:	10c00015 	stw	r3,0(r2)
   4cb84:	d0e00817 	ldw	r3,-32736(gp)
   4cb88:	e0bffa17 	ldw	r2,-24(fp)
   4cb8c:	1880020e 	bge	r3,r2,4cb98 <alt_get_fd+0xa8>
   4cb90:	e0bffa17 	ldw	r2,-24(fp)
   4cb94:	d0a00815 	stw	r2,-32736(gp)
   4cb98:	e0bffa17 	ldw	r2,-24(fp)
   4cb9c:	e0bffb15 	stw	r2,-20(fp)
   4cba0:	00000606 	br	4cbbc <alt_get_fd+0xcc>
   4cba4:	e0bffa17 	ldw	r2,-24(fp)
   4cba8:	10800044 	addi	r2,r2,1
   4cbac:	e0bffa15 	stw	r2,-24(fp)
   4cbb0:	e0bffa17 	ldw	r2,-24(fp)
   4cbb4:	10800810 	cmplti	r2,r2,32
   4cbb8:	103fe01e 	bne	r2,zero,4cb3c <__alt_data_end+0xfffe733c>
   4cbbc:	d0a6f117 	ldw	r2,-25660(gp)
   4cbc0:	1009883a 	mov	r4,r2
   4cbc4:	0048e200 	call	48e20 <OSSemPost>
   4cbc8:	e0bffb17 	ldw	r2,-20(fp)
   4cbcc:	e6ffff04 	addi	sp,fp,-4
   4cbd0:	dfc00217 	ldw	ra,8(sp)
   4cbd4:	df000117 	ldw	fp,4(sp)
   4cbd8:	dc000017 	ldw	r16,0(sp)
   4cbdc:	dec00304 	addi	sp,sp,12
   4cbe0:	f800283a 	ret

0004cbe4 <atexit>:
   4cbe4:	200b883a 	mov	r5,r4
   4cbe8:	000f883a 	mov	r7,zero
   4cbec:	000d883a 	mov	r6,zero
   4cbf0:	0009883a 	mov	r4,zero
   4cbf4:	004cdf41 	jmpi	4cdf4 <__register_exitproc>

0004cbf8 <exit>:
   4cbf8:	defffe04 	addi	sp,sp,-8
   4cbfc:	000b883a 	mov	r5,zero
   4cc00:	dc000015 	stw	r16,0(sp)
   4cc04:	dfc00115 	stw	ra,4(sp)
   4cc08:	2021883a 	mov	r16,r4
   4cc0c:	004cf0c0 	call	4cf0c <__call_exitprocs>
   4cc10:	00800174 	movhi	r2,5
   4cc14:	10bb8204 	addi	r2,r2,-4600
   4cc18:	11000017 	ldw	r4,0(r2)
   4cc1c:	20800f17 	ldw	r2,60(r4)
   4cc20:	10000126 	beq	r2,zero,4cc28 <exit+0x30>
   4cc24:	103ee83a 	callr	r2
   4cc28:	8009883a 	mov	r4,r16
   4cc2c:	004d2400 	call	4d240 <_exit>

0004cc30 <memcmp>:
   4cc30:	01c000c4 	movi	r7,3
   4cc34:	3980192e 	bgeu	r7,r6,4cc9c <memcmp+0x6c>
   4cc38:	2144b03a 	or	r2,r4,r5
   4cc3c:	11c4703a 	and	r2,r2,r7
   4cc40:	10000f26 	beq	r2,zero,4cc80 <memcmp+0x50>
   4cc44:	20800003 	ldbu	r2,0(r4)
   4cc48:	28c00003 	ldbu	r3,0(r5)
   4cc4c:	10c0151e 	bne	r2,r3,4cca4 <memcmp+0x74>
   4cc50:	31bfff84 	addi	r6,r6,-2
   4cc54:	01ffffc4 	movi	r7,-1
   4cc58:	00000406 	br	4cc6c <memcmp+0x3c>
   4cc5c:	20800003 	ldbu	r2,0(r4)
   4cc60:	28c00003 	ldbu	r3,0(r5)
   4cc64:	31bfffc4 	addi	r6,r6,-1
   4cc68:	10c00e1e 	bne	r2,r3,4cca4 <memcmp+0x74>
   4cc6c:	21000044 	addi	r4,r4,1
   4cc70:	29400044 	addi	r5,r5,1
   4cc74:	31fff91e 	bne	r6,r7,4cc5c <__alt_data_end+0xfffe745c>
   4cc78:	0005883a 	mov	r2,zero
   4cc7c:	f800283a 	ret
   4cc80:	20c00017 	ldw	r3,0(r4)
   4cc84:	28800017 	ldw	r2,0(r5)
   4cc88:	18bfee1e 	bne	r3,r2,4cc44 <__alt_data_end+0xfffe7444>
   4cc8c:	31bfff04 	addi	r6,r6,-4
   4cc90:	21000104 	addi	r4,r4,4
   4cc94:	29400104 	addi	r5,r5,4
   4cc98:	39bff936 	bltu	r7,r6,4cc80 <__alt_data_end+0xfffe7480>
   4cc9c:	303fe91e 	bne	r6,zero,4cc44 <__alt_data_end+0xfffe7444>
   4cca0:	003ff506 	br	4cc78 <__alt_data_end+0xfffe7478>
   4cca4:	10c5c83a 	sub	r2,r2,r3
   4cca8:	f800283a 	ret

0004ccac <memcpy>:
   4ccac:	defffd04 	addi	sp,sp,-12
   4ccb0:	dfc00215 	stw	ra,8(sp)
   4ccb4:	dc400115 	stw	r17,4(sp)
   4ccb8:	dc000015 	stw	r16,0(sp)
   4ccbc:	00c003c4 	movi	r3,15
   4ccc0:	2005883a 	mov	r2,r4
   4ccc4:	1980452e 	bgeu	r3,r6,4cddc <memcpy+0x130>
   4ccc8:	2906b03a 	or	r3,r5,r4
   4cccc:	18c000cc 	andi	r3,r3,3
   4ccd0:	1800441e 	bne	r3,zero,4cde4 <memcpy+0x138>
   4ccd4:	347ffc04 	addi	r17,r6,-16
   4ccd8:	8822d13a 	srli	r17,r17,4
   4ccdc:	28c00104 	addi	r3,r5,4
   4cce0:	23400104 	addi	r13,r4,4
   4cce4:	8820913a 	slli	r16,r17,4
   4cce8:	2b000204 	addi	r12,r5,8
   4ccec:	22c00204 	addi	r11,r4,8
   4ccf0:	84000504 	addi	r16,r16,20
   4ccf4:	2a800304 	addi	r10,r5,12
   4ccf8:	22400304 	addi	r9,r4,12
   4ccfc:	2c21883a 	add	r16,r5,r16
   4cd00:	2811883a 	mov	r8,r5
   4cd04:	200f883a 	mov	r7,r4
   4cd08:	41000017 	ldw	r4,0(r8)
   4cd0c:	1fc00017 	ldw	ra,0(r3)
   4cd10:	63c00017 	ldw	r15,0(r12)
   4cd14:	39000015 	stw	r4,0(r7)
   4cd18:	53800017 	ldw	r14,0(r10)
   4cd1c:	6fc00015 	stw	ra,0(r13)
   4cd20:	5bc00015 	stw	r15,0(r11)
   4cd24:	4b800015 	stw	r14,0(r9)
   4cd28:	18c00404 	addi	r3,r3,16
   4cd2c:	39c00404 	addi	r7,r7,16
   4cd30:	42000404 	addi	r8,r8,16
   4cd34:	6b400404 	addi	r13,r13,16
   4cd38:	63000404 	addi	r12,r12,16
   4cd3c:	5ac00404 	addi	r11,r11,16
   4cd40:	52800404 	addi	r10,r10,16
   4cd44:	4a400404 	addi	r9,r9,16
   4cd48:	1c3fef1e 	bne	r3,r16,4cd08 <__alt_data_end+0xfffe7508>
   4cd4c:	89c00044 	addi	r7,r17,1
   4cd50:	380e913a 	slli	r7,r7,4
   4cd54:	310003cc 	andi	r4,r6,15
   4cd58:	02c000c4 	movi	r11,3
   4cd5c:	11c7883a 	add	r3,r2,r7
   4cd60:	29cb883a 	add	r5,r5,r7
   4cd64:	5900212e 	bgeu	r11,r4,4cdec <memcpy+0x140>
   4cd68:	1813883a 	mov	r9,r3
   4cd6c:	2811883a 	mov	r8,r5
   4cd70:	200f883a 	mov	r7,r4
   4cd74:	42800017 	ldw	r10,0(r8)
   4cd78:	4a400104 	addi	r9,r9,4
   4cd7c:	39ffff04 	addi	r7,r7,-4
   4cd80:	4abfff15 	stw	r10,-4(r9)
   4cd84:	42000104 	addi	r8,r8,4
   4cd88:	59fffa36 	bltu	r11,r7,4cd74 <__alt_data_end+0xfffe7574>
   4cd8c:	213fff04 	addi	r4,r4,-4
   4cd90:	2008d0ba 	srli	r4,r4,2
   4cd94:	318000cc 	andi	r6,r6,3
   4cd98:	21000044 	addi	r4,r4,1
   4cd9c:	2109883a 	add	r4,r4,r4
   4cda0:	2109883a 	add	r4,r4,r4
   4cda4:	1907883a 	add	r3,r3,r4
   4cda8:	290b883a 	add	r5,r5,r4
   4cdac:	30000626 	beq	r6,zero,4cdc8 <memcpy+0x11c>
   4cdb0:	198d883a 	add	r6,r3,r6
   4cdb4:	29c00003 	ldbu	r7,0(r5)
   4cdb8:	18c00044 	addi	r3,r3,1
   4cdbc:	29400044 	addi	r5,r5,1
   4cdc0:	19ffffc5 	stb	r7,-1(r3)
   4cdc4:	19bffb1e 	bne	r3,r6,4cdb4 <__alt_data_end+0xfffe75b4>
   4cdc8:	dfc00217 	ldw	ra,8(sp)
   4cdcc:	dc400117 	ldw	r17,4(sp)
   4cdd0:	dc000017 	ldw	r16,0(sp)
   4cdd4:	dec00304 	addi	sp,sp,12
   4cdd8:	f800283a 	ret
   4cddc:	2007883a 	mov	r3,r4
   4cde0:	003ff206 	br	4cdac <__alt_data_end+0xfffe75ac>
   4cde4:	2007883a 	mov	r3,r4
   4cde8:	003ff106 	br	4cdb0 <__alt_data_end+0xfffe75b0>
   4cdec:	200d883a 	mov	r6,r4
   4cdf0:	003fee06 	br	4cdac <__alt_data_end+0xfffe75ac>

0004cdf4 <__register_exitproc>:
   4cdf4:	defffa04 	addi	sp,sp,-24
   4cdf8:	dc000315 	stw	r16,12(sp)
   4cdfc:	04000174 	movhi	r16,5
   4ce00:	843b8204 	addi	r16,r16,-4600
   4ce04:	80c00017 	ldw	r3,0(r16)
   4ce08:	dc400415 	stw	r17,16(sp)
   4ce0c:	dfc00515 	stw	ra,20(sp)
   4ce10:	18805217 	ldw	r2,328(r3)
   4ce14:	2023883a 	mov	r17,r4
   4ce18:	10003726 	beq	r2,zero,4cef8 <__register_exitproc+0x104>
   4ce1c:	10c00117 	ldw	r3,4(r2)
   4ce20:	010007c4 	movi	r4,31
   4ce24:	20c00e16 	blt	r4,r3,4ce60 <__register_exitproc+0x6c>
   4ce28:	1a000044 	addi	r8,r3,1
   4ce2c:	8800221e 	bne	r17,zero,4ceb8 <__register_exitproc+0xc4>
   4ce30:	18c00084 	addi	r3,r3,2
   4ce34:	18c7883a 	add	r3,r3,r3
   4ce38:	18c7883a 	add	r3,r3,r3
   4ce3c:	12000115 	stw	r8,4(r2)
   4ce40:	10c7883a 	add	r3,r2,r3
   4ce44:	19400015 	stw	r5,0(r3)
   4ce48:	0005883a 	mov	r2,zero
   4ce4c:	dfc00517 	ldw	ra,20(sp)
   4ce50:	dc400417 	ldw	r17,16(sp)
   4ce54:	dc000317 	ldw	r16,12(sp)
   4ce58:	dec00604 	addi	sp,sp,24
   4ce5c:	f800283a 	ret
   4ce60:	00800034 	movhi	r2,0
   4ce64:	10800004 	addi	r2,r2,0
   4ce68:	10002626 	beq	r2,zero,4cf04 <__register_exitproc+0x110>
   4ce6c:	01006404 	movi	r4,400
   4ce70:	d9400015 	stw	r5,0(sp)
   4ce74:	d9800115 	stw	r6,4(sp)
   4ce78:	d9c00215 	stw	r7,8(sp)
   4ce7c:	00000000 	call	0 <OSTCBStkPtr_OFFSET>
   4ce80:	d9400017 	ldw	r5,0(sp)
   4ce84:	d9800117 	ldw	r6,4(sp)
   4ce88:	d9c00217 	ldw	r7,8(sp)
   4ce8c:	10001d26 	beq	r2,zero,4cf04 <__register_exitproc+0x110>
   4ce90:	81000017 	ldw	r4,0(r16)
   4ce94:	10000115 	stw	zero,4(r2)
   4ce98:	02000044 	movi	r8,1
   4ce9c:	22405217 	ldw	r9,328(r4)
   4cea0:	0007883a 	mov	r3,zero
   4cea4:	12400015 	stw	r9,0(r2)
   4cea8:	20805215 	stw	r2,328(r4)
   4ceac:	10006215 	stw	zero,392(r2)
   4ceb0:	10006315 	stw	zero,396(r2)
   4ceb4:	883fde26 	beq	r17,zero,4ce30 <__alt_data_end+0xfffe7630>
   4ceb8:	18c9883a 	add	r4,r3,r3
   4cebc:	2109883a 	add	r4,r4,r4
   4cec0:	1109883a 	add	r4,r2,r4
   4cec4:	21802215 	stw	r6,136(r4)
   4cec8:	01800044 	movi	r6,1
   4cecc:	12406217 	ldw	r9,392(r2)
   4ced0:	30cc983a 	sll	r6,r6,r3
   4ced4:	4992b03a 	or	r9,r9,r6
   4ced8:	12406215 	stw	r9,392(r2)
   4cedc:	21c04215 	stw	r7,264(r4)
   4cee0:	01000084 	movi	r4,2
   4cee4:	893fd21e 	bne	r17,r4,4ce30 <__alt_data_end+0xfffe7630>
   4cee8:	11006317 	ldw	r4,396(r2)
   4ceec:	218cb03a 	or	r6,r4,r6
   4cef0:	11806315 	stw	r6,396(r2)
   4cef4:	003fce06 	br	4ce30 <__alt_data_end+0xfffe7630>
   4cef8:	18805304 	addi	r2,r3,332
   4cefc:	18805215 	stw	r2,328(r3)
   4cf00:	003fc606 	br	4ce1c <__alt_data_end+0xfffe761c>
   4cf04:	00bfffc4 	movi	r2,-1
   4cf08:	003fd006 	br	4ce4c <__alt_data_end+0xfffe764c>

0004cf0c <__call_exitprocs>:
   4cf0c:	defff504 	addi	sp,sp,-44
   4cf10:	df000915 	stw	fp,36(sp)
   4cf14:	dd400615 	stw	r21,24(sp)
   4cf18:	dc800315 	stw	r18,12(sp)
   4cf1c:	dfc00a15 	stw	ra,40(sp)
   4cf20:	ddc00815 	stw	r23,32(sp)
   4cf24:	dd800715 	stw	r22,28(sp)
   4cf28:	dd000515 	stw	r20,20(sp)
   4cf2c:	dcc00415 	stw	r19,16(sp)
   4cf30:	dc400215 	stw	r17,8(sp)
   4cf34:	dc000115 	stw	r16,4(sp)
   4cf38:	d9000015 	stw	r4,0(sp)
   4cf3c:	2839883a 	mov	fp,r5
   4cf40:	04800044 	movi	r18,1
   4cf44:	057fffc4 	movi	r21,-1
   4cf48:	00800174 	movhi	r2,5
   4cf4c:	10bb8204 	addi	r2,r2,-4600
   4cf50:	12000017 	ldw	r8,0(r2)
   4cf54:	45005217 	ldw	r20,328(r8)
   4cf58:	44c05204 	addi	r19,r8,328
   4cf5c:	a0001c26 	beq	r20,zero,4cfd0 <__call_exitprocs+0xc4>
   4cf60:	a0800117 	ldw	r2,4(r20)
   4cf64:	15ffffc4 	addi	r23,r2,-1
   4cf68:	b8000d16 	blt	r23,zero,4cfa0 <__call_exitprocs+0x94>
   4cf6c:	14000044 	addi	r16,r2,1
   4cf70:	8421883a 	add	r16,r16,r16
   4cf74:	8421883a 	add	r16,r16,r16
   4cf78:	84402004 	addi	r17,r16,128
   4cf7c:	a463883a 	add	r17,r20,r17
   4cf80:	a421883a 	add	r16,r20,r16
   4cf84:	e0001e26 	beq	fp,zero,4d000 <__call_exitprocs+0xf4>
   4cf88:	80804017 	ldw	r2,256(r16)
   4cf8c:	e0801c26 	beq	fp,r2,4d000 <__call_exitprocs+0xf4>
   4cf90:	bdffffc4 	addi	r23,r23,-1
   4cf94:	843fff04 	addi	r16,r16,-4
   4cf98:	8c7fff04 	addi	r17,r17,-4
   4cf9c:	bd7ff91e 	bne	r23,r21,4cf84 <__alt_data_end+0xfffe7784>
   4cfa0:	00800034 	movhi	r2,0
   4cfa4:	10800004 	addi	r2,r2,0
   4cfa8:	10000926 	beq	r2,zero,4cfd0 <__call_exitprocs+0xc4>
   4cfac:	a0800117 	ldw	r2,4(r20)
   4cfb0:	1000301e 	bne	r2,zero,4d074 <__call_exitprocs+0x168>
   4cfb4:	a0800017 	ldw	r2,0(r20)
   4cfb8:	10003226 	beq	r2,zero,4d084 <__call_exitprocs+0x178>
   4cfbc:	a009883a 	mov	r4,r20
   4cfc0:	98800015 	stw	r2,0(r19)
   4cfc4:	00000000 	call	0 <OSTCBStkPtr_OFFSET>
   4cfc8:	9d000017 	ldw	r20,0(r19)
   4cfcc:	a03fe41e 	bne	r20,zero,4cf60 <__alt_data_end+0xfffe7760>
   4cfd0:	dfc00a17 	ldw	ra,40(sp)
   4cfd4:	df000917 	ldw	fp,36(sp)
   4cfd8:	ddc00817 	ldw	r23,32(sp)
   4cfdc:	dd800717 	ldw	r22,28(sp)
   4cfe0:	dd400617 	ldw	r21,24(sp)
   4cfe4:	dd000517 	ldw	r20,20(sp)
   4cfe8:	dcc00417 	ldw	r19,16(sp)
   4cfec:	dc800317 	ldw	r18,12(sp)
   4cff0:	dc400217 	ldw	r17,8(sp)
   4cff4:	dc000117 	ldw	r16,4(sp)
   4cff8:	dec00b04 	addi	sp,sp,44
   4cffc:	f800283a 	ret
   4d000:	a0800117 	ldw	r2,4(r20)
   4d004:	80c00017 	ldw	r3,0(r16)
   4d008:	10bfffc4 	addi	r2,r2,-1
   4d00c:	15c01426 	beq	r2,r23,4d060 <__call_exitprocs+0x154>
   4d010:	80000015 	stw	zero,0(r16)
   4d014:	183fde26 	beq	r3,zero,4cf90 <__alt_data_end+0xfffe7790>
   4d018:	95c8983a 	sll	r4,r18,r23
   4d01c:	a0806217 	ldw	r2,392(r20)
   4d020:	a5800117 	ldw	r22,4(r20)
   4d024:	2084703a 	and	r2,r4,r2
   4d028:	10000b26 	beq	r2,zero,4d058 <__call_exitprocs+0x14c>
   4d02c:	a0806317 	ldw	r2,396(r20)
   4d030:	2088703a 	and	r4,r4,r2
   4d034:	20000c1e 	bne	r4,zero,4d068 <__call_exitprocs+0x15c>
   4d038:	89400017 	ldw	r5,0(r17)
   4d03c:	d9000017 	ldw	r4,0(sp)
   4d040:	183ee83a 	callr	r3
   4d044:	a0800117 	ldw	r2,4(r20)
   4d048:	15bfbf1e 	bne	r2,r22,4cf48 <__alt_data_end+0xfffe7748>
   4d04c:	98800017 	ldw	r2,0(r19)
   4d050:	153fcf26 	beq	r2,r20,4cf90 <__alt_data_end+0xfffe7790>
   4d054:	003fbc06 	br	4cf48 <__alt_data_end+0xfffe7748>
   4d058:	183ee83a 	callr	r3
   4d05c:	003ff906 	br	4d044 <__alt_data_end+0xfffe7844>
   4d060:	a5c00115 	stw	r23,4(r20)
   4d064:	003feb06 	br	4d014 <__alt_data_end+0xfffe7814>
   4d068:	89000017 	ldw	r4,0(r17)
   4d06c:	183ee83a 	callr	r3
   4d070:	003ff406 	br	4d044 <__alt_data_end+0xfffe7844>
   4d074:	a0800017 	ldw	r2,0(r20)
   4d078:	a027883a 	mov	r19,r20
   4d07c:	1029883a 	mov	r20,r2
   4d080:	003fb606 	br	4cf5c <__alt_data_end+0xfffe775c>
   4d084:	0005883a 	mov	r2,zero
   4d088:	003ffb06 	br	4d078 <__alt_data_end+0xfffe7878>

0004d08c <__divsi3>:
   4d08c:	20001b16 	blt	r4,zero,4d0fc <__divsi3+0x70>
   4d090:	000f883a 	mov	r7,zero
   4d094:	28001616 	blt	r5,zero,4d0f0 <__divsi3+0x64>
   4d098:	200d883a 	mov	r6,r4
   4d09c:	29001a2e 	bgeu	r5,r4,4d108 <__divsi3+0x7c>
   4d0a0:	00800804 	movi	r2,32
   4d0a4:	00c00044 	movi	r3,1
   4d0a8:	00000106 	br	4d0b0 <__divsi3+0x24>
   4d0ac:	10000d26 	beq	r2,zero,4d0e4 <__divsi3+0x58>
   4d0b0:	294b883a 	add	r5,r5,r5
   4d0b4:	10bfffc4 	addi	r2,r2,-1
   4d0b8:	18c7883a 	add	r3,r3,r3
   4d0bc:	293ffb36 	bltu	r5,r4,4d0ac <__alt_data_end+0xfffe78ac>
   4d0c0:	0005883a 	mov	r2,zero
   4d0c4:	18000726 	beq	r3,zero,4d0e4 <__divsi3+0x58>
   4d0c8:	0005883a 	mov	r2,zero
   4d0cc:	31400236 	bltu	r6,r5,4d0d8 <__divsi3+0x4c>
   4d0d0:	314dc83a 	sub	r6,r6,r5
   4d0d4:	10c4b03a 	or	r2,r2,r3
   4d0d8:	1806d07a 	srli	r3,r3,1
   4d0dc:	280ad07a 	srli	r5,r5,1
   4d0e0:	183ffa1e 	bne	r3,zero,4d0cc <__alt_data_end+0xfffe78cc>
   4d0e4:	38000126 	beq	r7,zero,4d0ec <__divsi3+0x60>
   4d0e8:	0085c83a 	sub	r2,zero,r2
   4d0ec:	f800283a 	ret
   4d0f0:	014bc83a 	sub	r5,zero,r5
   4d0f4:	39c0005c 	xori	r7,r7,1
   4d0f8:	003fe706 	br	4d098 <__alt_data_end+0xfffe7898>
   4d0fc:	0109c83a 	sub	r4,zero,r4
   4d100:	01c00044 	movi	r7,1
   4d104:	003fe306 	br	4d094 <__alt_data_end+0xfffe7894>
   4d108:	00c00044 	movi	r3,1
   4d10c:	003fee06 	br	4d0c8 <__alt_data_end+0xfffe78c8>

0004d110 <__modsi3>:
   4d110:	20001716 	blt	r4,zero,4d170 <__modsi3+0x60>
   4d114:	000f883a 	mov	r7,zero
   4d118:	2005883a 	mov	r2,r4
   4d11c:	28001216 	blt	r5,zero,4d168 <__modsi3+0x58>
   4d120:	2900162e 	bgeu	r5,r4,4d17c <__modsi3+0x6c>
   4d124:	01800804 	movi	r6,32
   4d128:	00c00044 	movi	r3,1
   4d12c:	00000106 	br	4d134 <__modsi3+0x24>
   4d130:	30000a26 	beq	r6,zero,4d15c <__modsi3+0x4c>
   4d134:	294b883a 	add	r5,r5,r5
   4d138:	31bfffc4 	addi	r6,r6,-1
   4d13c:	18c7883a 	add	r3,r3,r3
   4d140:	293ffb36 	bltu	r5,r4,4d130 <__alt_data_end+0xfffe7930>
   4d144:	18000526 	beq	r3,zero,4d15c <__modsi3+0x4c>
   4d148:	1806d07a 	srli	r3,r3,1
   4d14c:	11400136 	bltu	r2,r5,4d154 <__modsi3+0x44>
   4d150:	1145c83a 	sub	r2,r2,r5
   4d154:	280ad07a 	srli	r5,r5,1
   4d158:	183ffb1e 	bne	r3,zero,4d148 <__alt_data_end+0xfffe7948>
   4d15c:	38000126 	beq	r7,zero,4d164 <__modsi3+0x54>
   4d160:	0085c83a 	sub	r2,zero,r2
   4d164:	f800283a 	ret
   4d168:	014bc83a 	sub	r5,zero,r5
   4d16c:	003fec06 	br	4d120 <__alt_data_end+0xfffe7920>
   4d170:	0109c83a 	sub	r4,zero,r4
   4d174:	01c00044 	movi	r7,1
   4d178:	003fe706 	br	4d118 <__alt_data_end+0xfffe7918>
   4d17c:	00c00044 	movi	r3,1
   4d180:	003ff106 	br	4d148 <__alt_data_end+0xfffe7948>

0004d184 <__udivsi3>:
   4d184:	200d883a 	mov	r6,r4
   4d188:	2900152e 	bgeu	r5,r4,4d1e0 <__udivsi3+0x5c>
   4d18c:	28001416 	blt	r5,zero,4d1e0 <__udivsi3+0x5c>
   4d190:	00800804 	movi	r2,32
   4d194:	00c00044 	movi	r3,1
   4d198:	00000206 	br	4d1a4 <__udivsi3+0x20>
   4d19c:	10000e26 	beq	r2,zero,4d1d8 <__udivsi3+0x54>
   4d1a0:	28000516 	blt	r5,zero,4d1b8 <__udivsi3+0x34>
   4d1a4:	294b883a 	add	r5,r5,r5
   4d1a8:	10bfffc4 	addi	r2,r2,-1
   4d1ac:	18c7883a 	add	r3,r3,r3
   4d1b0:	293ffa36 	bltu	r5,r4,4d19c <__alt_data_end+0xfffe799c>
   4d1b4:	18000826 	beq	r3,zero,4d1d8 <__udivsi3+0x54>
   4d1b8:	0005883a 	mov	r2,zero
   4d1bc:	31400236 	bltu	r6,r5,4d1c8 <__udivsi3+0x44>
   4d1c0:	314dc83a 	sub	r6,r6,r5
   4d1c4:	10c4b03a 	or	r2,r2,r3
   4d1c8:	1806d07a 	srli	r3,r3,1
   4d1cc:	280ad07a 	srli	r5,r5,1
   4d1d0:	183ffa1e 	bne	r3,zero,4d1bc <__alt_data_end+0xfffe79bc>
   4d1d4:	f800283a 	ret
   4d1d8:	0005883a 	mov	r2,zero
   4d1dc:	f800283a 	ret
   4d1e0:	00c00044 	movi	r3,1
   4d1e4:	003ff406 	br	4d1b8 <__alt_data_end+0xfffe79b8>

0004d1e8 <__umodsi3>:
   4d1e8:	2005883a 	mov	r2,r4
   4d1ec:	2900122e 	bgeu	r5,r4,4d238 <__umodsi3+0x50>
   4d1f0:	28001116 	blt	r5,zero,4d238 <__umodsi3+0x50>
   4d1f4:	01800804 	movi	r6,32
   4d1f8:	00c00044 	movi	r3,1
   4d1fc:	00000206 	br	4d208 <__umodsi3+0x20>
   4d200:	30000c26 	beq	r6,zero,4d234 <__umodsi3+0x4c>
   4d204:	28000516 	blt	r5,zero,4d21c <__umodsi3+0x34>
   4d208:	294b883a 	add	r5,r5,r5
   4d20c:	31bfffc4 	addi	r6,r6,-1
   4d210:	18c7883a 	add	r3,r3,r3
   4d214:	293ffa36 	bltu	r5,r4,4d200 <__alt_data_end+0xfffe7a00>
   4d218:	18000626 	beq	r3,zero,4d234 <__umodsi3+0x4c>
   4d21c:	1806d07a 	srli	r3,r3,1
   4d220:	11400136 	bltu	r2,r5,4d228 <__umodsi3+0x40>
   4d224:	1145c83a 	sub	r2,r2,r5
   4d228:	280ad07a 	srli	r5,r5,1
   4d22c:	183ffb1e 	bne	r3,zero,4d21c <__alt_data_end+0xfffe7a1c>
   4d230:	f800283a 	ret
   4d234:	f800283a 	ret
   4d238:	00c00044 	movi	r3,1
   4d23c:	003ff706 	br	4d21c <__alt_data_end+0xfffe7a1c>

0004d240 <_exit>:
   4d240:	defffd04 	addi	sp,sp,-12
   4d244:	df000215 	stw	fp,8(sp)
   4d248:	df000204 	addi	fp,sp,8
   4d24c:	e13fff15 	stw	r4,-4(fp)
   4d250:	d026fa45 	stb	zero,-25623(gp)
   4d254:	e0bfff17 	ldw	r2,-4(fp)
   4d258:	e0bffe15 	stw	r2,-8(fp)
   4d25c:	e0bffe17 	ldw	r2,-8(fp)
   4d260:	10000226 	beq	r2,zero,4d26c <_exit+0x2c>
   4d264:	002af070 	cmpltui	zero,zero,43969
   4d268:	00000106 	br	4d270 <_exit+0x30>
   4d26c:	002af0b0 	cmpltui	zero,zero,43970
   4d270:	003fff06 	br	4d270 <__alt_data_end+0xfffe7a70>
